
./target/release/ostep:	file format mach-o arm64

Disassembly of section __TEXT,__text:

0000000100003d40 <__ZN4core3ptr224drop_in_place$LT$hashbrown..scopeguard..ScopeGuard$LT$hashbrown..raw..RawTableInner$LT$alloc..alloc..Global$GT$$C$hashbrown..raw..RawTableInner$LT$alloc..alloc..Global$GT$..prepare_resize..$u7b$$u7b$closure$u7d$$u7d$$GT$$GT$17h44a443be582033b2E>:
100003d40: 08 00 40 f9 	ldr	x8, [x0]
100003d44: a8 01 00 b4 	cbz	x8, 0x100003d78 <__ZN4core3ptr224drop_in_place$LT$hashbrown..scopeguard..ScopeGuard$LT$hashbrown..raw..RawTableInner$LT$alloc..alloc..Global$GT$$C$hashbrown..raw..RawTableInner$LT$alloc..alloc..Global$GT$..prepare_resize..$u7b$$u7b$closure$u7d$$u7d$$GT$$GT$17h44a443be582033b2E+0x38>
100003d48: 09 08 42 a9 	ldp	x9, x2, [x0, #32]
100003d4c: 29 25 08 9b 	madd	x9, x9, x8, x9
100003d50: 49 00 09 8b 	add	x9, x2, x9
100003d54: 29 05 00 d1 	sub	x9, x9, #1
100003d58: ea 03 02 cb 	neg	x10, x2
100003d5c: 29 01 0a 8a 	and	x9, x9, x10
100003d60: 08 01 09 8b 	add	x8, x8, x9
100003d64: 01 25 00 b1 	adds	x1, x8, #9
100003d68: 80 00 00 54 	b.eq	0x100003d78 <__ZN4core3ptr224drop_in_place$LT$hashbrown..scopeguard..ScopeGuard$LT$hashbrown..raw..RawTableInner$LT$alloc..alloc..Global$GT$$C$hashbrown..raw..RawTableInner$LT$alloc..alloc..Global$GT$..prepare_resize..$u7b$$u7b$closure$u7d$$u7d$$GT$$GT$17h44a443be582033b2E+0x38>
100003d6c: 08 0c 40 f9 	ldr	x8, [x0, #24]
100003d70: 00 01 09 cb 	sub	x0, x8, x9
100003d74: 75 06 00 14 	b	0x100005748 <___rust_dealloc>
100003d78: c0 03 5f d6 	ret

0000000100003d7c <__ZN4core3ptr237drop_in_place$LT$hashbrown..scopeguard..ScopeGuard$LT$$RF$mut$u20$hashbrown..raw..RawTableInner$LT$alloc..alloc..Global$GT$$C$hashbrown..raw..RawTableInner$LT$alloc..alloc..Global$GT$..rehash_in_place..$u7b$$u7b$closure$u7d$$u7d$$GT$$GT$17h0073f7414c933b6aE>:
100003d7c: fa 67 bb a9 	stp	x26, x25, [sp, #-80]!
100003d80: f8 5f 01 a9 	stp	x24, x23, [sp, #16]
100003d84: f6 57 02 a9 	stp	x22, x21, [sp, #32]
100003d88: f4 4f 03 a9 	stp	x20, x19, [sp, #48]
100003d8c: fd 7b 04 a9 	stp	x29, x30, [sp, #64]
100003d90: fd 03 01 91 	add	x29, sp, #64
100003d94: 14 00 40 f9 	ldr	x20, [x0]
100003d98: 13 08 40 f9 	ldr	x19, [x0, #16]
100003d9c: f4 03 00 b4 	cbz	x20, 0x100003e18 <__ZN4core3ptr237drop_in_place$LT$hashbrown..scopeguard..ScopeGuard$LT$$RF$mut$u20$hashbrown..raw..RawTableInner$LT$alloc..alloc..Global$GT$$C$hashbrown..raw..RawTableInner$LT$alloc..alloc..Global$GT$..rehash_in_place..$u7b$$u7b$closure$u7d$$u7d$$GT$$GT$17h0073f7414c933b6aE+0x9c>
100003da0: 68 02 40 f9 	ldr	x8, [x19]
100003da4: 1f 05 00 b1 	cmn	x8, #1
100003da8: 80 03 00 54 	b.eq	0x100003e18 <__ZN4core3ptr237drop_in_place$LT$hashbrown..scopeguard..ScopeGuard$LT$$RF$mut$u20$hashbrown..raw..RawTableInner$LT$alloc..alloc..Global$GT$$C$hashbrown..raw..RawTableInner$LT$alloc..alloc..Global$GT$..rehash_in_place..$u7b$$u7b$closure$u7d$$u7d$$GT$$GT$17h0073f7414c933b6aE+0x9c>
100003dac: 15 00 80 d2 	mov	x21, #0
100003db0: 16 04 40 f9 	ldr	x22, [x0, #8]
100003db4: f7 03 16 cb 	neg	x23, x22
100003db8: 18 05 00 91 	add	x24, x8, #1
100003dbc: f9 1f 80 52 	mov	w25, #255
100003dc0: 05 00 00 14 	b	0x100003dd4 <__ZN4core3ptr237drop_in_place$LT$hashbrown..scopeguard..ScopeGuard$LT$$RF$mut$u20$hashbrown..raw..RawTableInner$LT$alloc..alloc..Global$GT$$C$hashbrown..raw..RawTableInner$LT$alloc..alloc..Global$GT$..rehash_in_place..$u7b$$u7b$closure$u7d$$u7d$$GT$$GT$17h0073f7414c933b6aE+0x58>
100003dc4: b5 06 00 91 	add	x21, x21, #1
100003dc8: f7 02 16 cb 	sub	x23, x23, x22
100003dcc: 1f 03 15 eb 	cmp	x24, x21
100003dd0: 40 02 00 54 	b.eq	0x100003e18 <__ZN4core3ptr237drop_in_place$LT$hashbrown..scopeguard..ScopeGuard$LT$$RF$mut$u20$hashbrown..raw..RawTableInner$LT$alloc..alloc..Global$GT$$C$hashbrown..raw..RawTableInner$LT$alloc..alloc..Global$GT$..rehash_in_place..$u7b$$u7b$closure$u7d$$u7d$$GT$$GT$17h0073f7414c933b6aE+0x9c>
100003dd4: 68 0e 40 f9 	ldr	x8, [x19, #24]
100003dd8: 09 69 75 38 	ldrb	w9, [x8, x21]
100003ddc: 3f 01 02 71 	cmp	w9, #128
100003de0: 21 ff ff 54 	b.ne	0x100003dc4 <__ZN4core3ptr237drop_in_place$LT$hashbrown..scopeguard..ScopeGuard$LT$$RF$mut$u20$hashbrown..raw..RawTableInner$LT$alloc..alloc..Global$GT$$C$hashbrown..raw..RawTableInner$LT$alloc..alloc..Global$GT$..rehash_in_place..$u7b$$u7b$closure$u7d$$u7d$$GT$$GT$17h0073f7414c933b6aE+0x48>
100003de4: 69 02 40 f9 	ldr	x9, [x19]
100003de8: aa 22 00 d1 	sub	x10, x21, #8
100003dec: 29 01 0a 8a 	and	x9, x9, x10
100003df0: 19 69 35 38 	strb	w25, [x8, x21]
100003df4: 08 01 09 8b 	add	x8, x8, x9
100003df8: 19 21 00 39 	strb	w25, [x8, #8]
100003dfc: 68 0e 40 f9 	ldr	x8, [x19, #24]
100003e00: 00 01 17 8b 	add	x0, x8, x23
100003e04: 80 02 3f d6 	blr	x20
100003e08: 68 0a 40 f9 	ldr	x8, [x19, #16]
100003e0c: 08 05 00 d1 	sub	x8, x8, #1
100003e10: 68 0a 00 f9 	str	x8, [x19, #16]
100003e14: ec ff ff 17 	b	0x100003dc4 <__ZN4core3ptr237drop_in_place$LT$hashbrown..scopeguard..ScopeGuard$LT$$RF$mut$u20$hashbrown..raw..RawTableInner$LT$alloc..alloc..Global$GT$$C$hashbrown..raw..RawTableInner$LT$alloc..alloc..Global$GT$..rehash_in_place..$u7b$$u7b$closure$u7d$$u7d$$GT$$GT$17h0073f7414c933b6aE+0x48>
100003e18: 68 02 40 f9 	ldr	x8, [x19]
100003e1c: 09 05 00 91 	add	x9, x8, #1
100003e20: 29 fd 43 d3 	lsr	x9, x9, #3
100003e24: 2a f1 7d d3 	lsl	x10, x9, #3
100003e28: 49 01 09 cb 	sub	x9, x10, x9
100003e2c: 1f 21 00 f1 	cmp	x8, #8
100003e30: 08 31 89 9a 	csel	x8, x8, x9, lo
100003e34: 69 0a 40 f9 	ldr	x9, [x19, #16]
100003e38: 08 01 09 cb 	sub	x8, x8, x9
100003e3c: 68 06 00 f9 	str	x8, [x19, #8]
100003e40: fd 7b 44 a9 	ldp	x29, x30, [sp, #64]
100003e44: f4 4f 43 a9 	ldp	x20, x19, [sp, #48]
100003e48: f6 57 42 a9 	ldp	x22, x21, [sp, #32]
100003e4c: f8 5f 41 a9 	ldp	x24, x23, [sp, #16]
100003e50: fa 67 c5 a8 	ldp	x26, x25, [sp], #80
100003e54: c0 03 5f d6 	ret

0000000100003e58 <__ZN4core3ptr74drop_in_place$LT$$LP$alloc..string..String$C$alloc..string..String$RP$$GT$17h65e32116d6234b53E>:
100003e58: f4 4f be a9 	stp	x20, x19, [sp, #-32]!
100003e5c: fd 7b 01 a9 	stp	x29, x30, [sp, #16]
100003e60: fd 43 00 91 	add	x29, sp, #16
100003e64: f3 03 00 aa 	mov	x19, x0
100003e68: 01 00 40 f9 	ldr	x1, [x0]
100003e6c: a1 00 00 b4 	cbz	x1, 0x100003e80 <__ZN4core3ptr74drop_in_place$LT$$LP$alloc..string..String$C$alloc..string..String$RP$$GT$17h65e32116d6234b53E+0x28>
100003e70: 60 06 40 f9 	ldr	x0, [x19, #8]
100003e74: e8 03 21 aa 	mvn	x8, x1
100003e78: 02 fd 7f d3 	lsr	x2, x8, #63
100003e7c: 33 06 00 94 	bl	0x100005748 <___rust_dealloc>
100003e80: 61 0e 40 f9 	ldr	x1, [x19, #24]
100003e84: e1 00 00 b4 	cbz	x1, 0x100003ea0 <__ZN4core3ptr74drop_in_place$LT$$LP$alloc..string..String$C$alloc..string..String$RP$$GT$17h65e32116d6234b53E+0x48>
100003e88: 60 12 40 f9 	ldr	x0, [x19, #32]
100003e8c: e8 03 21 aa 	mvn	x8, x1
100003e90: 02 fd 7f d3 	lsr	x2, x8, #63
100003e94: fd 7b 41 a9 	ldp	x29, x30, [sp, #16]
100003e98: f4 4f c2 a8 	ldp	x20, x19, [sp], #32
100003e9c: 2b 06 00 14 	b	0x100005748 <___rust_dealloc>
100003ea0: fd 7b 41 a9 	ldp	x29, x30, [sp, #16]
100003ea4: f4 4f c2 a8 	ldp	x20, x19, [sp], #32
100003ea8: c0 03 5f d6 	ret

0000000100003eac <__ZN79_$LT$hashbrown..raw..RawTable$LT$T$C$A$GT$$u20$as$u20$core..ops..drop..Drop$GT$4drop17h194f1aa0711a3796E>:
100003eac: fc 6f ba a9 	stp	x28, x27, [sp, #-96]!
100003eb0: fa 67 01 a9 	stp	x26, x25, [sp, #16]
100003eb4: f8 5f 02 a9 	stp	x24, x23, [sp, #32]
100003eb8: f6 57 03 a9 	stp	x22, x21, [sp, #48]
100003ebc: f4 4f 04 a9 	stp	x20, x19, [sp, #64]
100003ec0: fd 7b 05 a9 	stp	x29, x30, [sp, #80]
100003ec4: fd 43 01 91 	add	x29, sp, #80
100003ec8: 13 00 40 f9 	ldr	x19, [x0]
100003ecc: f3 06 00 b4 	cbz	x19, 0x100003fa8 <__ZN79_$LT$hashbrown..raw..RawTable$LT$T$C$A$GT$$u20$as$u20$core..ops..drop..Drop$GT$4drop17h194f1aa0711a3796E+0xfc>
100003ed0: 15 08 40 f9 	ldr	x21, [x0, #16]
100003ed4: b5 04 00 b4 	cbz	x21, 0x100003f68 <__ZN79_$LT$hashbrown..raw..RawTable$LT$T$C$A$GT$$u20$as$u20$core..ops..drop..Drop$GT$4drop17h194f1aa0711a3796E+0xbc>
100003ed8: 14 0c 40 f9 	ldr	x20, [x0, #24]
100003edc: f6 03 14 aa 	mov	x22, x20
100003ee0: c8 86 40 f8 	ldr	x8, [x22], #8
100003ee4: e8 03 28 aa 	mvn	x8, x8
100003ee8: 19 c1 01 92 	and	x25, x8, #0x8080808080808080
100003eec: 17 06 80 52 	mov	w23, #48
100003ef0: f8 03 14 aa 	mov	x24, x20
100003ef4: 03 00 00 14 	b	0x100003f00 <__ZN79_$LT$hashbrown..raw..RawTable$LT$T$C$A$GT$$u20$as$u20$core..ops..drop..Drop$GT$4drop17h194f1aa0711a3796E+0x54>
100003ef8: 79 03 19 8a 	and	x25, x27, x25
100003efc: 95 03 00 b4 	cbz	x21, 0x100003f6c <__ZN79_$LT$hashbrown..raw..RawTable$LT$T$C$A$GT$$u20$as$u20$core..ops..drop..Drop$GT$4drop17h194f1aa0711a3796E+0xc0>
100003f00: d9 00 00 b5 	cbnz	x25, 0x100003f18 <__ZN79_$LT$hashbrown..raw..RawTable$LT$T$C$A$GT$$u20$as$u20$core..ops..drop..Drop$GT$4drop17h194f1aa0711a3796E+0x6c>
100003f04: c8 86 40 f8 	ldr	x8, [x22], #8
100003f08: e8 03 28 aa 	mvn	x8, x8
100003f0c: 18 03 06 d1 	sub	x24, x24, #384
100003f10: 19 c1 01 92 	and	x25, x8, #0x8080808080808080
100003f14: 99 ff ff b4 	cbz	x25, 0x100003f04 <__ZN79_$LT$hashbrown..raw..RawTable$LT$T$C$A$GT$$u20$as$u20$core..ops..drop..Drop$GT$4drop17h194f1aa0711a3796E+0x58>
100003f18: 28 03 c0 da 	rbit	x8, x25
100003f1c: 08 11 c0 da 	clz	x8, x8
100003f20: 08 fd 43 d3 	lsr	x8, x8, #3
100003f24: 08 fd 17 9b 	mneg	x8, x8, x23
100003f28: 1a 03 08 8b 	add	x26, x24, x8
100003f2c: 41 0f 5d f8 	ldr	x1, [x26, #-48]!
100003f30: a1 00 00 b4 	cbz	x1, 0x100003f44 <__ZN79_$LT$hashbrown..raw..RawTable$LT$T$C$A$GT$$u20$as$u20$core..ops..drop..Drop$GT$4drop17h194f1aa0711a3796E+0x98>
100003f34: 40 07 40 f9 	ldr	x0, [x26, #8]
100003f38: e8 03 21 aa 	mvn	x8, x1
100003f3c: 02 fd 7f d3 	lsr	x2, x8, #63
100003f40: 02 06 00 94 	bl	0x100005748 <___rust_dealloc>
100003f44: 3b 07 00 d1 	sub	x27, x25, #1
100003f48: b5 06 00 d1 	sub	x21, x21, #1
100003f4c: 41 0f 40 f9 	ldr	x1, [x26, #24]
100003f50: 41 fd ff b4 	cbz	x1, 0x100003ef8 <__ZN79_$LT$hashbrown..raw..RawTable$LT$T$C$A$GT$$u20$as$u20$core..ops..drop..Drop$GT$4drop17h194f1aa0711a3796E+0x4c>
100003f54: 40 13 40 f9 	ldr	x0, [x26, #32]
100003f58: e8 03 21 aa 	mvn	x8, x1
100003f5c: 02 fd 7f d3 	lsr	x2, x8, #63
100003f60: fa 05 00 94 	bl	0x100005748 <___rust_dealloc>
100003f64: e5 ff ff 17 	b	0x100003ef8 <__ZN79_$LT$hashbrown..raw..RawTable$LT$T$C$A$GT$$u20$as$u20$core..ops..drop..Drop$GT$4drop17h194f1aa0711a3796E+0x4c>
100003f68: 14 0c 40 f9 	ldr	x20, [x0, #24]
100003f6c: 08 06 80 52 	mov	w8, #48
100003f70: e9 07 7c b2 	orr	x9, xzr, #0x30
100003f74: 68 26 08 9b 	madd	x8, x19, x8, x9
100003f78: 69 02 08 8b 	add	x9, x19, x8
100003f7c: 21 25 00 b1 	adds	x1, x9, #9
100003f80: 40 01 00 54 	b.eq	0x100003fa8 <__ZN79_$LT$hashbrown..raw..RawTable$LT$T$C$A$GT$$u20$as$u20$core..ops..drop..Drop$GT$4drop17h194f1aa0711a3796E+0xfc>
100003f84: 80 02 08 cb 	sub	x0, x20, x8
100003f88: 02 01 80 52 	mov	w2, #8
100003f8c: fd 7b 45 a9 	ldp	x29, x30, [sp, #80]
100003f90: f4 4f 44 a9 	ldp	x20, x19, [sp, #64]
100003f94: f6 57 43 a9 	ldp	x22, x21, [sp, #48]
100003f98: f8 5f 42 a9 	ldp	x24, x23, [sp, #32]
100003f9c: fa 67 41 a9 	ldp	x26, x25, [sp, #16]
100003fa0: fc 6f c6 a8 	ldp	x28, x27, [sp], #96
100003fa4: e9 05 00 14 	b	0x100005748 <___rust_dealloc>
100003fa8: fd 7b 45 a9 	ldp	x29, x30, [sp, #80]
100003fac: f4 4f 44 a9 	ldp	x20, x19, [sp, #64]
100003fb0: f6 57 43 a9 	ldp	x22, x21, [sp, #48]
100003fb4: f8 5f 42 a9 	ldp	x24, x23, [sp, #32]
100003fb8: fa 67 41 a9 	ldp	x26, x25, [sp, #16]
100003fbc: fc 6f c6 a8 	ldp	x28, x27, [sp], #96
100003fc0: c0 03 5f d6 	ret

0000000100003fc4 <__ZN9hashbrown3raw21RawTable$LT$T$C$A$GT$6insert17ha1710e861ac56ddbE>:
100003fc4: f6 57 bd a9 	stp	x22, x21, [sp, #-48]!
100003fc8: f4 4f 01 a9 	stp	x20, x19, [sp, #16]
100003fcc: fd 7b 02 a9 	stp	x29, x30, [sp, #32]
100003fd0: fd 83 00 91 	add	x29, sp, #32
100003fd4: f3 03 02 aa 	mov	x19, x2
100003fd8: f5 03 01 aa 	mov	x21, x1
100003fdc: f4 03 00 aa 	mov	x20, x0
100003fe0: 09 00 40 f9 	ldr	x9, [x0]
100003fe4: 08 0c 40 f9 	ldr	x8, [x0, #24]
100003fe8: 2a 01 01 8a 	and	x10, x9, x1
100003fec: 0b 69 6a f8 	ldr	x11, [x8, x10]
100003ff0: 6b c1 01 f2 	ands	x11, x11, #0x8080808080808080
100003ff4: 01 01 00 54 	b.ne	0x100004014 <__ZN9hashbrown3raw21RawTable$LT$T$C$A$GT$6insert17ha1710e861ac56ddbE+0x50>
100003ff8: 0c 01 80 52 	mov	w12, #8
100003ffc: 4a 01 0c 8b 	add	x10, x10, x12
100004000: 4a 01 09 8a 	and	x10, x10, x9
100004004: 0b 69 6a f8 	ldr	x11, [x8, x10]
100004008: 8c 21 00 91 	add	x12, x12, #8
10000400c: 6b c1 01 f2 	ands	x11, x11, #0x8080808080808080
100004010: 60 ff ff 54 	b.eq	0x100003ffc <__ZN9hashbrown3raw21RawTable$LT$T$C$A$GT$6insert17ha1710e861ac56ddbE+0x38>
100004014: 6b 01 c0 da 	rbit	x11, x11
100004018: 6b 11 c0 da 	clz	x11, x11
10000401c: 4a 0d 4b 8b 	add	x10, x10, x11, lsr #3
100004020: 4a 01 09 8a 	and	x10, x10, x9
100004024: 0b 69 ea 38 	ldrsb	w11, [x8, x10]
100004028: 2b 01 f8 37 	tbnz	w11, #31, 0x10000404c <__ZN9hashbrown3raw21RawTable$LT$T$C$A$GT$6insert17ha1710e861ac56ddbE+0x88>
10000402c: 0a 01 40 f9 	ldr	x10, [x8]
100004030: 4a c1 01 92 	and	x10, x10, #0x8080808080808080
100004034: 4a 01 c0 da 	rbit	x10, x10
100004038: 4a 11 c0 da 	clz	x10, x10
10000403c: 4a fd 43 d3 	lsr	x10, x10, #3
100004040: 16 69 6a 38 	ldrb	w22, [x8, x10]
100004044: 96 00 00 37 	tbnz	w22, #0, 0x100004054 <__ZN9hashbrown3raw21RawTable$LT$T$C$A$GT$6insert17ha1710e861ac56ddbE+0x90>
100004048: 20 00 00 14 	b	0x1000040c8 <__ZN9hashbrown3raw21RawTable$LT$T$C$A$GT$6insert17ha1710e861ac56ddbE+0x104>
10000404c: 76 1d 00 12 	and	w22, w11, #0xff
100004050: d6 03 00 36 	tbz	w22, #0, 0x1000040c8 <__ZN9hashbrown3raw21RawTable$LT$T$C$A$GT$6insert17ha1710e861ac56ddbE+0x104>
100004054: 8b 06 40 f9 	ldr	x11, [x20, #8]
100004058: 8b 03 00 b5 	cbnz	x11, 0x1000040c8 <__ZN9hashbrown3raw21RawTable$LT$T$C$A$GT$6insert17ha1710e861ac56ddbE+0x104>
10000405c: e0 03 14 aa 	mov	x0, x20
100004060: e1 03 03 aa 	mov	x1, x3
100004064: 6f ba 00 94 	bl	0x100032a20 <__ZN9hashbrown3raw21RawTable$LT$T$C$A$GT$14reserve_rehash17haccb00d7a3eabbd7E>
100004068: 89 02 40 f9 	ldr	x9, [x20]
10000406c: 88 0e 40 f9 	ldr	x8, [x20, #24]
100004070: 2a 01 15 8a 	and	x10, x9, x21
100004074: 0b 69 6a f8 	ldr	x11, [x8, x10]
100004078: 6b c1 01 f2 	ands	x11, x11, #0x8080808080808080
10000407c: 01 01 00 54 	b.ne	0x10000409c <__ZN9hashbrown3raw21RawTable$LT$T$C$A$GT$6insert17ha1710e861ac56ddbE+0xd8>
100004080: 0c 01 80 52 	mov	w12, #8
100004084: 4a 01 0c 8b 	add	x10, x10, x12
100004088: 4a 01 09 8a 	and	x10, x10, x9
10000408c: 0b 69 6a f8 	ldr	x11, [x8, x10]
100004090: 8c 21 00 91 	add	x12, x12, #8
100004094: 6b c1 01 f2 	ands	x11, x11, #0x8080808080808080
100004098: 60 ff ff 54 	b.eq	0x100004084 <__ZN9hashbrown3raw21RawTable$LT$T$C$A$GT$6insert17ha1710e861ac56ddbE+0xc0>
10000409c: 6b 01 c0 da 	rbit	x11, x11
1000040a0: 6b 11 c0 da 	clz	x11, x11
1000040a4: 4a 0d 4b 8b 	add	x10, x10, x11, lsr #3
1000040a8: 4a 01 09 8a 	and	x10, x10, x9
1000040ac: 0b 69 ea 38 	ldrsb	w11, [x8, x10]
1000040b0: cb 00 f8 37 	tbnz	w11, #31, 0x1000040c8 <__ZN9hashbrown3raw21RawTable$LT$T$C$A$GT$6insert17ha1710e861ac56ddbE+0x104>
1000040b4: 0a 01 40 f9 	ldr	x10, [x8]
1000040b8: 4a c1 01 92 	and	x10, x10, #0x8080808080808080
1000040bc: 4a 01 c0 da 	rbit	x10, x10
1000040c0: 4a 11 c0 da 	clz	x10, x10
1000040c4: 4a fd 43 d3 	lsr	x10, x10, #3
1000040c8: cb 02 00 12 	and	w11, w22, #0x1
1000040cc: 8c 06 40 f9 	ldr	x12, [x20, #8]
1000040d0: 8b 41 2b cb 	sub	x11, x12, w11, uxtw
1000040d4: 8b 06 00 f9 	str	x11, [x20, #8]
1000040d8: ab fe 79 d3 	lsr	x11, x21, #57
1000040dc: 4c 21 00 d1 	sub	x12, x10, #8
1000040e0: 89 01 09 8a 	and	x9, x12, x9
1000040e4: 0b 69 2a 38 	strb	w11, [x8, x10]
1000040e8: 08 01 09 8b 	add	x8, x8, x9
1000040ec: 0b 21 00 39 	strb	w11, [x8, #8]
1000040f0: 88 26 41 a9 	ldp	x8, x9, [x20, #16]
1000040f4: 08 05 00 91 	add	x8, x8, #1
1000040f8: 88 0a 00 f9 	str	x8, [x20, #16]
1000040fc: 08 06 80 52 	mov	w8, #48
100004100: 48 fd 08 9b 	mneg	x8, x10, x8
100004104: 20 01 08 8b 	add	x0, x9, x8
100004108: 60 06 40 ad 	ldp	q0, q1, [x19]
10000410c: 00 84 3e ad 	stp	q0, q1, [x0, #-48]
100004110: 60 0a c0 3d 	ldr	q0, [x19, #32]
100004114: 00 00 9f 3c 	stur	q0, [x0, #-16]
100004118: fd 7b 42 a9 	ldp	x29, x30, [sp, #32]
10000411c: f4 4f 41 a9 	ldp	x20, x19, [sp, #16]
100004120: f6 57 c3 a8 	ldp	x22, x21, [sp], #48
100004124: c0 03 5f d6 	ret
100004128: f4 03 00 aa 	mov	x20, x0
10000412c: e0 03 13 aa 	mov	x0, x19
100004130: 4a ff ff 97 	bl	0x100003e58 <__ZN4core3ptr74drop_in_place$LT$$LP$alloc..string..String$C$alloc..string..String$RP$$GT$17h65e32116d6234b53E>
100004134: e0 03 14 aa 	mov	x0, x20
100004138: 1a c6 00 94 	bl	0x1000359a0 <_writev+0x1000359a0>
10000413c: 73 c5 00 94 	bl	0x100035708 <__ZN4core9panicking19panic_cannot_unwind17h0bac00b37026e68cE>

0000000100004140 <__ZN5alloc7raw_vec11finish_grow17he207e30d8296abdaE>:
100004140: f6 57 bd a9 	stp	x22, x21, [sp, #-48]!
100004144: f4 4f 01 a9 	stp	x20, x19, [sp, #16]
100004148: fd 7b 02 a9 	stp	x29, x30, [sp, #32]
10000414c: fd 83 00 91 	add	x29, sp, #32
100004150: f4 03 01 aa 	mov	x20, x1
100004154: f3 03 00 aa 	mov	x19, x0
100004158: a2 02 00 b4 	cbz	x2, 0x1000041ac <__ZN5alloc7raw_vec11finish_grow17he207e30d8296abdaE+0x6c>
10000415c: f5 03 02 aa 	mov	x21, x2
100004160: 68 08 40 f9 	ldr	x8, [x3, #16]
100004164: 48 01 00 b4 	cbz	x8, 0x10000418c <__ZN5alloc7raw_vec11finish_grow17he207e30d8296abdaE+0x4c>
100004168: 61 04 40 f9 	ldr	x1, [x3, #8]
10000416c: 01 01 00 b4 	cbz	x1, 0x10000418c <__ZN5alloc7raw_vec11finish_grow17he207e30d8296abdaE+0x4c>
100004170: 60 00 40 f9 	ldr	x0, [x3]
100004174: e2 03 15 aa 	mov	x2, x21
100004178: e3 03 14 aa 	mov	x3, x20
10000417c: 74 05 00 94 	bl	0x10000574c <___rust_realloc>
100004180: 00 01 00 b5 	cbnz	x0, 0x1000041a0 <__ZN5alloc7raw_vec11finish_grow17he207e30d8296abdaE+0x60>
100004184: 74 d6 00 a9 	stp	x20, x21, [x19, #8]
100004188: 0a 00 00 14 	b	0x1000041b0 <__ZN5alloc7raw_vec11finish_grow17he207e30d8296abdaE+0x70>
10000418c: f4 01 00 b4 	cbz	x20, 0x1000041c8 <__ZN5alloc7raw_vec11finish_grow17he207e30d8296abdaE+0x88>
100004190: e0 03 14 aa 	mov	x0, x20
100004194: e1 03 15 aa 	mov	x1, x21
100004198: 6b 05 00 94 	bl	0x100005744 <___rust_alloc>
10000419c: 40 ff ff b4 	cbz	x0, 0x100004184 <__ZN5alloc7raw_vec11finish_grow17he207e30d8296abdaE+0x44>
1000041a0: 08 00 80 d2 	mov	x8, #0
1000041a4: 60 d2 00 a9 	stp	x0, x20, [x19, #8]
1000041a8: 03 00 00 14 	b	0x1000041b4 <__ZN5alloc7raw_vec11finish_grow17he207e30d8296abdaE+0x74>
1000041ac: 74 fe 00 a9 	stp	x20, xzr, [x19, #8]
1000041b0: 28 00 80 52 	mov	w8, #1
1000041b4: 68 02 00 f9 	str	x8, [x19]
1000041b8: fd 7b 42 a9 	ldp	x29, x30, [sp, #32]
1000041bc: f4 4f 41 a9 	ldp	x20, x19, [sp, #16]
1000041c0: f6 57 c3 a8 	ldp	x22, x21, [sp], #48
1000041c4: c0 03 5f d6 	ret
1000041c8: e0 03 15 aa 	mov	x0, x21
1000041cc: b5 fe ff b5 	cbnz	x21, 0x1000041a0 <__ZN5alloc7raw_vec11finish_grow17he207e30d8296abdaE+0x60>
1000041d0: ed ff ff 17 	b	0x100004184 <__ZN5alloc7raw_vec11finish_grow17he207e30d8296abdaE+0x44>

00000001000041d4 <__ZN3std2rt10lang_start28_$u7b$$u7b$closure$u7d$$u7d$17hd1bedf87b34e316fE>:
1000041d4: fd 7b bf a9 	stp	x29, x30, [sp, #-16]!
1000041d8: fd 03 00 91 	mov	x29, sp
1000041dc: 00 00 40 f9 	ldr	x0, [x0]
1000041e0: da 00 00 94 	bl	0x100004548 <__ZN3std10sys_common9backtrace28__rust_begin_short_backtrace17h3178dbefd4055b68E>
1000041e4: 00 00 80 52 	mov	w0, #0
1000041e8: fd 7b c1 a8 	ldp	x29, x30, [sp], #16
1000041ec: c0 03 5f d6 	ret

00000001000041f0 <__ZN4core3ops8function6FnOnce40call_once$u7b$$u7b$vtable.shim$u7d$$u7d$17h6ce58af78adc4449E>:
1000041f0: fd 7b bf a9 	stp	x29, x30, [sp, #-16]!
1000041f4: fd 03 00 91 	mov	x29, sp
1000041f8: 00 00 40 f9 	ldr	x0, [x0]
1000041fc: d3 00 00 94 	bl	0x100004548 <__ZN3std10sys_common9backtrace28__rust_begin_short_backtrace17h3178dbefd4055b68E>
100004200: 00 00 80 52 	mov	w0, #0
100004204: fd 7b c1 a8 	ldp	x29, x30, [sp], #16
100004208: c0 03 5f d6 	ret

000000010000420c <__ZN4core3ptr85drop_in_place$LT$std..rt..lang_start$LT$$LP$$RP$$GT$..$u7b$$u7b$closure$u7d$$u7d$$GT$17h2a2f07666b74ea11E>:
10000420c: c0 03 5f d6 	ret

0000000100004210 <__ZN4core3str21_$LT$impl$u20$str$GT$12trim_matches17h3016e15d8e88476dE>:
100004210: 09 00 01 8b 	add	x9, x0, x1
100004214: e1 0a 00 b4 	cbz	x1, 0x100004370 <__ZN4core3str21_$LT$impl$u20$str$GT$12trim_matches17h3016e15d8e88476dE+0x160>
100004218: 0b 00 80 d2 	mov	x11, #0
10000421c: 2d 6a 1b 50 	adr	x13, #224582
100004220: 1f 20 03 d5 	nop
100004224: 0e d0 82 52 	mov	w14, #5760
100004228: ea 03 00 aa 	mov	x10, x0
10000422c: 0a 00 00 14 	b	0x100004254 <__ZN4core3str21_$LT$impl$u20$str$GT$12trim_matches17h3016e15d8e88476dE+0x44>
100004230: 8a 09 00 91 	add	x10, x12, #2
100004234: 6f 11 1a 33 	bfi	w15, w11, #6, #5
100004238: 4b 01 0c cb 	sub	x11, x10, x12
10000423c: 6b 01 08 8b 	add	x11, x11, x8
100004240: ec 25 00 51 	sub	w12, w15, #9
100004244: 9f 15 00 71 	cmp	w12, #5
100004248: c2 01 00 54 	b.hs	0x100004280 <__ZN4core3str21_$LT$impl$u20$str$GT$12trim_matches17h3016e15d8e88476dE+0x70>
10000424c: 5f 01 09 eb 	cmp	x10, x9
100004250: c0 08 00 54 	b.eq	0x100004368 <__ZN4core3str21_$LT$impl$u20$str$GT$12trim_matches17h3016e15d8e88476dE+0x158>
100004254: ec 03 0a aa 	mov	x12, x10
100004258: e8 03 0b aa 	mov	x8, x11
10000425c: 4b 15 c0 38 	ldrsb	w11, [x10], #1
100004260: 70 1d 00 12 	and	w16, w11, #0xff
100004264: ab 02 f8 37 	tbnz	w11, #31, 0x1000042b8 <__ZN4core3str21_$LT$impl$u20$str$GT$12trim_matches17h3016e15d8e88476dE+0xa8>
100004268: ef 03 10 aa 	mov	x15, x16
10000426c: 4b 01 0c cb 	sub	x11, x10, x12
100004270: 6b 01 08 8b 	add	x11, x11, x8
100004274: ec 25 00 51 	sub	w12, w15, #9
100004278: 9f 15 00 71 	cmp	w12, #5
10000427c: 83 fe ff 54 	b.lo	0x10000424c <__ZN4core3str21_$LT$impl$u20$str$GT$12trim_matches17h3016e15d8e88476dE+0x3c>
100004280: ff 81 00 71 	cmp	w15, #32
100004284: 40 fe ff 54 	b.eq	0x10000424c <__ZN4core3str21_$LT$impl$u20$str$GT$12trim_matches17h3016e15d8e88476dE+0x3c>
100004288: ff 01 02 71 	cmp	w15, #128
10000428c: 83 06 00 54 	b.lo	0x10000435c <__ZN4core3str21_$LT$impl$u20$str$GT$12trim_matches17h3016e15d8e88476dE+0x14c>
100004290: f0 7d 08 53 	lsr	w16, w15, #8
100004294: 2c 00 80 52 	mov	w12, #1
100004298: 1f 7e 00 71 	cmp	w16, #31
10000429c: 4c 04 00 54 	b.gt	0x100004324 <__ZN4core3str21_$LT$impl$u20$str$GT$12trim_matches17h3016e15d8e88476dE+0x114>
1000042a0: 10 05 00 34 	cbz	w16, 0x100004340 <__ZN4core3str21_$LT$impl$u20$str$GT$12trim_matches17h3016e15d8e88476dE+0x130>
1000042a4: 1f 5a 00 71 	cmp	w16, #22
1000042a8: 41 11 00 54 	b.ne	0x1000044d0 <__ZN4core3str21_$LT$impl$u20$str$GT$12trim_matches17h3016e15d8e88476dE+0x2c0>
1000042ac: ff 01 0e 6b 	cmp	w15, w14
1000042b0: e0 fc ff 54 	b.eq	0x10000424c <__ZN4core3str21_$LT$impl$u20$str$GT$12trim_matches17h3016e15d8e88476dE+0x3c>
1000042b4: 2a 00 00 14 	b	0x10000435c <__ZN4core3str21_$LT$impl$u20$str$GT$12trim_matches17h3016e15d8e88476dE+0x14c>
1000042b8: 0b 12 00 12 	and	w11, w16, #0x1f
1000042bc: 8a 05 40 39 	ldrb	w10, [x12, #1]
1000042c0: 4f 15 00 12 	and	w15, w10, #0x3f
1000042c4: 1f 7e 03 71 	cmp	w16, #223
1000042c8: 49 fb ff 54 	b.ls	0x100004230 <__ZN4core3str21_$LT$impl$u20$str$GT$12trim_matches17h3016e15d8e88476dE+0x20>
1000042cc: 8a 09 40 39 	ldrb	w10, [x12, #2]
1000042d0: 51 15 00 12 	and	w17, w10, #0x3f
1000042d4: f1 15 1a 33 	bfi	w17, w15, #6, #6
1000042d8: 1f c2 03 71 	cmp	w16, #240
1000042dc: 23 01 00 54 	b.lo	0x100004300 <__ZN4core3str21_$LT$impl$u20$str$GT$12trim_matches17h3016e15d8e88476dE+0xf0>
1000042e0: 8a 11 00 91 	add	x10, x12, #4
1000042e4: 8f 0d 40 39 	ldrb	w15, [x12, #3]
1000042e8: ef 15 00 12 	and	w15, w15, #0x3f
1000042ec: 2f 2e 1a 33 	bfi	w15, w17, #6, #12
1000042f0: 6f 09 0e 33 	bfi	w15, w11, #18, #3
1000042f4: ff 41 44 71 	cmp	w15, #272, lsl #12      ; =1114112
1000042f8: 01 fa ff 54 	b.ne	0x100004238 <__ZN4core3str21_$LT$impl$u20$str$GT$12trim_matches17h3016e15d8e88476dE+0x28>
1000042fc: 71 00 00 14 	b	0x1000044c0 <__ZN4core3str21_$LT$impl$u20$str$GT$12trim_matches17h3016e15d8e88476dE+0x2b0>
100004300: 8a 0d 00 91 	add	x10, x12, #3
100004304: 71 11 14 33 	bfi	w17, w11, #12, #5
100004308: ef 03 11 aa 	mov	x15, x17
10000430c: 4b 01 0c cb 	sub	x11, x10, x12
100004310: 6b 01 08 8b 	add	x11, x11, x8
100004314: ec 25 00 51 	sub	w12, w15, #9
100004318: 9f 15 00 71 	cmp	w12, #5
10000431c: 83 f9 ff 54 	b.lo	0x10000424c <__ZN4core3str21_$LT$impl$u20$str$GT$12trim_matches17h3016e15d8e88476dE+0x3c>
100004320: d8 ff ff 17 	b	0x100004280 <__ZN4core3str21_$LT$impl$u20$str$GT$12trim_matches17h3016e15d8e88476dE+0x70>
100004324: 1f 82 00 71 	cmp	w16, #32
100004328: 40 01 00 54 	b.eq	0x100004350 <__ZN4core3str21_$LT$impl$u20$str$GT$12trim_matches17h3016e15d8e88476dE+0x140>
10000432c: 1f c2 00 71 	cmp	w16, #48
100004330: 01 0d 00 54 	b.ne	0x1000044d0 <__ZN4core3str21_$LT$impl$u20$str$GT$12trim_matches17h3016e15d8e88476dE+0x2c0>
100004334: ff 0d 40 71 	cmp	w15, #3, lsl #12        ; =12288
100004338: a0 f8 ff 54 	b.eq	0x10000424c <__ZN4core3str21_$LT$impl$u20$str$GT$12trim_matches17h3016e15d8e88476dE+0x3c>
10000433c: 08 00 00 14 	b	0x10000435c <__ZN4core3str21_$LT$impl$u20$str$GT$12trim_matches17h3016e15d8e88476dE+0x14c>
100004340: ec 1d 40 92 	and	x12, x15, #0xff
100004344: ac 69 6c 38 	ldrb	w12, [x13, x12]
100004348: 2c f8 07 37 	tbnz	w12, #0, 0x10000424c <__ZN4core3str21_$LT$impl$u20$str$GT$12trim_matches17h3016e15d8e88476dE+0x3c>
10000434c: 04 00 00 14 	b	0x10000435c <__ZN4core3str21_$LT$impl$u20$str$GT$12trim_matches17h3016e15d8e88476dE+0x14c>
100004350: ec 1d 40 92 	and	x12, x15, #0xff
100004354: ac 69 6c 38 	ldrb	w12, [x13, x12]
100004358: ac f7 0f 37 	tbnz	w12, #1, 0x10000424c <__ZN4core3str21_$LT$impl$u20$str$GT$12trim_matches17h3016e15d8e88476dE+0x3c>
10000435c: 2c 00 80 52 	mov	w12, #1
100004360: ed 03 0b aa 	mov	x13, x11
100004364: 07 00 00 14 	b	0x100004380 <__ZN4core3str21_$LT$impl$u20$str$GT$12trim_matches17h3016e15d8e88476dE+0x170>
100004368: 0d 00 80 d2 	mov	x13, #0
10000436c: 51 00 00 14 	b	0x1000044b0 <__ZN4core3str21_$LT$impl$u20$str$GT$12trim_matches17h3016e15d8e88476dE+0x2a0>
100004370: 0c 00 80 52 	mov	w12, #0
100004374: 0b 00 80 d2 	mov	x11, #0
100004378: 0d 00 80 d2 	mov	x13, #0
10000437c: ea 03 00 aa 	mov	x10, x0
100004380: 5f 01 09 eb 	cmp	x10, x9
100004384: 40 09 00 54 	b.eq	0x1000044ac <__ZN4core3str21_$LT$impl$u20$str$GT$12trim_matches17h3016e15d8e88476dE+0x29c>
100004388: ce 5e 1b 50 	adr	x14, #224218
10000438c: 1f 20 03 d5 	nop
100004390: 0f d0 82 52 	mov	w15, #5760
100004394: 0b 00 00 14 	b	0x1000043c0 <__ZN4core3str21_$LT$impl$u20$str$GT$12trim_matches17h3016e15d8e88476dE+0x1b0>
100004398: 21 10 00 12 	and	w1, w1, #0x1f
10000439c: 31 16 00 12 	and	w17, w17, #0x3f
1000043a0: 31 38 1a 33 	bfi	w17, w1, #6, #15
1000043a4: 3f 42 44 71 	cmp	w17, #272, lsl #12      ; =1114112
1000043a8: 20 08 00 54 	b.eq	0x1000044ac <__ZN4core3str21_$LT$impl$u20$str$GT$12trim_matches17h3016e15d8e88476dE+0x29c>
1000043ac: 21 26 00 51 	sub	w1, w17, #9
1000043b0: 3f 14 00 71 	cmp	w1, #5
1000043b4: c2 02 00 54 	b.hs	0x10000440c <__ZN4core3str21_$LT$impl$u20$str$GT$12trim_matches17h3016e15d8e88476dE+0x1fc>
1000043b8: 5f 01 09 eb 	cmp	x10, x9
1000043bc: 80 07 00 54 	b.eq	0x1000044ac <__ZN4core3str21_$LT$impl$u20$str$GT$12trim_matches17h3016e15d8e88476dE+0x29c>
1000043c0: f0 03 09 aa 	mov	x16, x9
1000043c4: 21 fd df 38 	ldrsb	w1, [x9, #-1]!
1000043c8: 31 1c 00 12 	and	w17, w1, #0xff
1000043cc: 01 ff ff 36 	tbz	w1, #31, 0x1000043ac <__ZN4core3str21_$LT$impl$u20$str$GT$12trim_matches17h3016e15d8e88476dE+0x19c>
1000043d0: e9 03 10 aa 	mov	x9, x16
1000043d4: 21 ed df 38 	ldrsb	w1, [x9, #-2]!
1000043d8: 3f 00 01 31 	cmn	w1, #64
1000043dc: ea fd ff 54 	b.ge	0x100004398 <__ZN4core3str21_$LT$impl$u20$str$GT$12trim_matches17h3016e15d8e88476dE+0x188>
1000043e0: e9 03 10 aa 	mov	x9, x16
1000043e4: 22 dd df 38 	ldrsb	w2, [x9, #-3]!
1000043e8: 5f 00 01 31 	cmn	w2, #64
1000043ec: aa 02 00 54 	b.ge	0x100004440 <__ZN4core3str21_$LT$impl$u20$str$GT$12trim_matches17h3016e15d8e88476dE+0x230>
1000043f0: 42 1c 00 12 	and	w2, w2, #0xff
1000043f4: e9 03 10 aa 	mov	x9, x16
1000043f8: 23 cd 5f 38 	ldrb	w3, [x9, #-4]!
1000043fc: 63 08 00 12 	and	w3, w3, #0x7
100004400: 42 14 00 12 	and	w2, w2, #0x3f
100004404: 62 08 1a 33 	bfi	w2, w3, #6, #3
100004408: 0f 00 00 14 	b	0x100004444 <__ZN4core3str21_$LT$impl$u20$str$GT$12trim_matches17h3016e15d8e88476dE+0x234>
10000440c: 3f 82 00 71 	cmp	w17, #32
100004410: 40 fd ff 54 	b.eq	0x1000043b8 <__ZN4core3str21_$LT$impl$u20$str$GT$12trim_matches17h3016e15d8e88476dE+0x1a8>
100004414: 3f 02 02 71 	cmp	w17, #128
100004418: 23 04 00 54 	b.lo	0x10000449c <__ZN4core3str21_$LT$impl$u20$str$GT$12trim_matches17h3016e15d8e88476dE+0x28c>
10000441c: 21 7e 08 53 	lsr	w1, w17, #8
100004420: 3f 7c 00 71 	cmp	w1, #31
100004424: 0c 02 00 54 	b.gt	0x100004464 <__ZN4core3str21_$LT$impl$u20$str$GT$12trim_matches17h3016e15d8e88476dE+0x254>
100004428: c1 02 00 34 	cbz	w1, 0x100004480 <__ZN4core3str21_$LT$impl$u20$str$GT$12trim_matches17h3016e15d8e88476dE+0x270>
10000442c: 3f 58 00 71 	cmp	w1, #22
100004430: 61 03 00 54 	b.ne	0x10000449c <__ZN4core3str21_$LT$impl$u20$str$GT$12trim_matches17h3016e15d8e88476dE+0x28c>
100004434: 3f 02 0f 6b 	cmp	w17, w15
100004438: 00 fc ff 54 	b.eq	0x1000043b8 <__ZN4core3str21_$LT$impl$u20$str$GT$12trim_matches17h3016e15d8e88476dE+0x1a8>
10000443c: 18 00 00 14 	b	0x10000449c <__ZN4core3str21_$LT$impl$u20$str$GT$12trim_matches17h3016e15d8e88476dE+0x28c>
100004440: 42 0c 00 12 	and	w2, w2, #0xf
100004444: 21 1c 00 12 	and	w1, w1, #0xff
100004448: 21 14 00 12 	and	w1, w1, #0x3f
10000444c: 41 20 1a 33 	bfi	w1, w2, #6, #9
100004450: 31 16 00 12 	and	w17, w17, #0x3f
100004454: 31 38 1a 33 	bfi	w17, w1, #6, #15
100004458: 3f 42 44 71 	cmp	w17, #272, lsl #12      ; =1114112
10000445c: 81 fa ff 54 	b.ne	0x1000043ac <__ZN4core3str21_$LT$impl$u20$str$GT$12trim_matches17h3016e15d8e88476dE+0x19c>
100004460: 13 00 00 14 	b	0x1000044ac <__ZN4core3str21_$LT$impl$u20$str$GT$12trim_matches17h3016e15d8e88476dE+0x29c>
100004464: 3f 80 00 71 	cmp	w1, #32
100004468: 40 01 00 54 	b.eq	0x100004490 <__ZN4core3str21_$LT$impl$u20$str$GT$12trim_matches17h3016e15d8e88476dE+0x280>
10000446c: 3f c0 00 71 	cmp	w1, #48
100004470: 61 01 00 54 	b.ne	0x10000449c <__ZN4core3str21_$LT$impl$u20$str$GT$12trim_matches17h3016e15d8e88476dE+0x28c>
100004474: 3f 0e 40 71 	cmp	w17, #3, lsl #12        ; =12288
100004478: 00 fa ff 54 	b.eq	0x1000043b8 <__ZN4core3str21_$LT$impl$u20$str$GT$12trim_matches17h3016e15d8e88476dE+0x1a8>
10000447c: 08 00 00 14 	b	0x10000449c <__ZN4core3str21_$LT$impl$u20$str$GT$12trim_matches17h3016e15d8e88476dE+0x28c>
100004480: 31 1e 40 92 	and	x17, x17, #0xff
100004484: d1 69 71 38 	ldrb	w17, [x14, x17]
100004488: 91 f9 07 37 	tbnz	w17, #0, 0x1000043b8 <__ZN4core3str21_$LT$impl$u20$str$GT$12trim_matches17h3016e15d8e88476dE+0x1a8>
10000448c: 04 00 00 14 	b	0x10000449c <__ZN4core3str21_$LT$impl$u20$str$GT$12trim_matches17h3016e15d8e88476dE+0x28c>
100004490: 31 1e 40 92 	and	x17, x17, #0xff
100004494: d1 69 71 38 	ldrb	w17, [x14, x17]
100004498: 11 f9 0f 37 	tbnz	w17, #1, 0x1000043b8 <__ZN4core3str21_$LT$impl$u20$str$GT$12trim_matches17h3016e15d8e88476dE+0x1a8>
10000449c: 69 01 0a cb 	sub	x9, x11, x10
1000044a0: 2d 01 10 8b 	add	x13, x9, x16
1000044a4: 6c 00 00 36 	tbz	w12, #0, 0x1000044b0 <__ZN4core3str21_$LT$impl$u20$str$GT$12trim_matches17h3016e15d8e88476dE+0x2a0>
1000044a8: 03 00 00 14 	b	0x1000044b4 <__ZN4core3str21_$LT$impl$u20$str$GT$12trim_matches17h3016e15d8e88476dE+0x2a4>
1000044ac: 4c 00 00 35 	cbnz	w12, 0x1000044b4 <__ZN4core3str21_$LT$impl$u20$str$GT$12trim_matches17h3016e15d8e88476dE+0x2a4>
1000044b0: 08 00 80 d2 	mov	x8, #0
1000044b4: 00 00 08 8b 	add	x0, x0, x8
1000044b8: a1 01 08 cb 	sub	x1, x13, x8
1000044bc: c0 03 5f d6 	ret
1000044c0: 0c 00 80 52 	mov	w12, #0
1000044c4: 0d 00 80 d2 	mov	x13, #0
1000044c8: eb 03 08 aa 	mov	x11, x8
1000044cc: ad ff ff 17 	b	0x100004380 <__ZN4core3str21_$LT$impl$u20$str$GT$12trim_matches17h3016e15d8e88476dE+0x170>
1000044d0: ed 03 0b aa 	mov	x13, x11
1000044d4: ab ff ff 17 	b	0x100004380 <__ZN4core3str21_$LT$impl$u20$str$GT$12trim_matches17h3016e15d8e88476dE+0x170>

00000001000044d8 <__ZN5ostep4main17hcc29416cc1fce7a0E>:
1000044d8: ff 03 01 d1 	sub	sp, sp, #64
1000044dc: fd 7b 03 a9 	stp	x29, x30, [sp, #48]
1000044e0: fd c3 00 91 	add	x29, sp, #48
1000044e4: e0 bc 18 10 	adr	x0, #202652
1000044e8: 1f 20 03 d5 	nop
1000044ec: e8 03 00 91 	mov	x8, sp
1000044f0: 7b 01 00 94 	bl	0x100004adc <__ZN72_$LT$ostep..util..args..Config$u20$as$u20$ostep..util..args..ArgsMap$GT$5parse17h9a0da0eb76102b43E>
1000044f4: e0 03 00 91 	mov	x0, sp
1000044f8: 6d fe ff 97 	bl	0x100003eac <__ZN79_$LT$hashbrown..raw..RawTable$LT$T$C$A$GT$$u20$as$u20$core..ops..drop..Drop$GT$4drop17h194f1aa0711a3796E>
1000044fc: fd 7b 43 a9 	ldp	x29, x30, [sp, #48]
100004500: ff 03 01 91 	add	sp, sp, #64
100004504: c0 03 5f d6 	ret

0000000100004508 <_main>:
100004508: ff 83 00 d1 	sub	sp, sp, #32
10000450c: fd 7b 01 a9 	stp	x29, x30, [sp, #16]
100004510: fd 43 00 91 	add	x29, sp, #16
100004514: e3 03 01 aa 	mov	x3, x1
100004518: 02 7c 40 93 	sxtw	x2, w0
10000451c: e8 fd ff 10 	adr	x8, #-68
100004520: 1f 20 03 d5 	nop
100004524: e8 07 00 f9 	str	x8, [sp, #8]
100004528: c1 e8 1f 10 	adr	x1, #261400
10000452c: 1f 20 03 d5 	nop
100004530: e0 23 00 91 	add	x0, sp, #8
100004534: 04 00 80 52 	mov	w4, #0
100004538: 6f 50 00 94 	bl	0x1000186f4 <__ZN3std2rt19lang_start_internal17h24d09c16ec322e75E>
10000453c: fd 7b 41 a9 	ldp	x29, x30, [sp, #16]
100004540: ff 83 00 91 	add	sp, sp, #32
100004544: c0 03 5f d6 	ret

0000000100004548 <__ZN3std10sys_common9backtrace28__rust_begin_short_backtrace17h3178dbefd4055b68E>:
100004548: fd 7b bf a9 	stp	x29, x30, [sp, #-16]!
10000454c: fd 03 00 91 	mov	x29, sp
100004550: 00 00 3f d6 	blr	x0
100004554: fd 7b c1 a8 	ldp	x29, x30, [sp], #16
100004558: c0 03 5f d6 	ret

000000010000455c <__ZN4core3ptr35drop_in_place$LT$std..env..Args$GT$17hd306132d3711a8a9E>:
10000455c: f6 57 bd a9 	stp	x22, x21, [sp, #-48]!
100004560: f4 4f 01 a9 	stp	x20, x19, [sp, #16]
100004564: fd 7b 02 a9 	stp	x29, x30, [sp, #32]
100004568: fd 83 00 91 	add	x29, sp, #32
10000456c: f3 03 00 aa 	mov	x19, x0
100004570: 08 a4 40 a9 	ldp	x8, x9, [x0, #8]
100004574: 29 01 08 eb 	subs	x9, x9, x8
100004578: 60 02 00 54 	b.eq	0x1000045c4 <__ZN4core3ptr35drop_in_place$LT$std..env..Args$GT$17hd306132d3711a8a9E+0x68>
10000457c: ea f3 01 b2 	mov	x10, #-6148914691236517206
100004580: 6a 55 95 f2 	movk	x10, #43691
100004584: 29 7d ca 9b 	umulh	x9, x9, x10
100004588: 29 fd 44 d3 	lsr	x9, x9, #4
10000458c: 14 21 00 91 	add	x20, x8, #8
100004590: 28 05 09 8b 	add	x8, x9, x9, lsl #1
100004594: 15 f1 7d d3 	lsl	x21, x8, #3
100004598: 04 00 00 14 	b	0x1000045a8 <__ZN4core3ptr35drop_in_place$LT$std..env..Args$GT$17hd306132d3711a8a9E+0x4c>
10000459c: 94 62 00 91 	add	x20, x20, #24
1000045a0: b5 62 00 f1 	subs	x21, x21, #24
1000045a4: 00 01 00 54 	b.eq	0x1000045c4 <__ZN4core3ptr35drop_in_place$LT$std..env..Args$GT$17hd306132d3711a8a9E+0x68>
1000045a8: 81 82 5f f8 	ldur	x1, [x20, #-8]
1000045ac: 81 ff ff b4 	cbz	x1, 0x10000459c <__ZN4core3ptr35drop_in_place$LT$std..env..Args$GT$17hd306132d3711a8a9E+0x40>
1000045b0: 80 02 40 f9 	ldr	x0, [x20]
1000045b4: e8 03 21 aa 	mvn	x8, x1
1000045b8: 02 fd 7f d3 	lsr	x2, x8, #63
1000045bc: 63 04 00 94 	bl	0x100005748 <___rust_dealloc>
1000045c0: f7 ff ff 17 	b	0x10000459c <__ZN4core3ptr35drop_in_place$LT$std..env..Args$GT$17hd306132d3711a8a9E+0x40>
1000045c4: 68 02 40 f9 	ldr	x8, [x19]
1000045c8: 28 01 00 b4 	cbz	x8, 0x1000045ec <__ZN4core3ptr35drop_in_place$LT$std..env..Args$GT$17hd306132d3711a8a9E+0x90>
1000045cc: 60 0e 40 f9 	ldr	x0, [x19, #24]
1000045d0: 08 05 08 8b 	add	x8, x8, x8, lsl #1
1000045d4: 01 f1 7d d3 	lsl	x1, x8, #3
1000045d8: 02 01 80 52 	mov	w2, #8
1000045dc: fd 7b 42 a9 	ldp	x29, x30, [sp, #32]
1000045e0: f4 4f 41 a9 	ldp	x20, x19, [sp, #16]
1000045e4: f6 57 c3 a8 	ldp	x22, x21, [sp], #48
1000045e8: 58 04 00 14 	b	0x100005748 <___rust_dealloc>
1000045ec: fd 7b 42 a9 	ldp	x29, x30, [sp, #32]
1000045f0: f4 4f 41 a9 	ldp	x20, x19, [sp, #16]
1000045f4: f6 57 c3 a8 	ldp	x22, x21, [sp], #48
1000045f8: c0 03 5f d6 	ret

00000001000045fc <__ZN4core3ptr42drop_in_place$LT$alloc..string..String$GT$17he13402f8f6cdd3bfE>:
1000045fc: 01 00 40 f9 	ldr	x1, [x0]
100004600: a1 00 00 b4 	cbz	x1, 0x100004614 <__ZN4core3ptr42drop_in_place$LT$alloc..string..String$GT$17he13402f8f6cdd3bfE+0x18>
100004604: 00 04 40 f9 	ldr	x0, [x0, #8]
100004608: e8 03 21 aa 	mvn	x8, x1
10000460c: 02 fd 7f d3 	lsr	x2, x8, #63
100004610: 4e 04 00 14 	b	0x100005748 <___rust_dealloc>
100004614: c0 03 5f d6 	ret

0000000100004618 <__ZN4core3ptr65drop_in_place$LT$alloc..vec..Vec$LT$alloc..string..String$GT$$GT$17h78e16a1cf82394e8E>:
100004618: f6 57 bd a9 	stp	x22, x21, [sp, #-48]!
10000461c: f4 4f 01 a9 	stp	x20, x19, [sp, #16]
100004620: fd 7b 02 a9 	stp	x29, x30, [sp, #32]
100004624: fd 83 00 91 	add	x29, sp, #32
100004628: f3 03 00 aa 	mov	x19, x0
10000462c: 08 08 40 f9 	ldr	x8, [x0, #16]
100004630: 08 02 00 b4 	cbz	x8, 0x100004670 <__ZN4core3ptr65drop_in_place$LT$alloc..vec..Vec$LT$alloc..string..String$GT$$GT$17h78e16a1cf82394e8E+0x58>
100004634: 69 06 40 f9 	ldr	x9, [x19, #8]
100004638: 08 05 08 8b 	add	x8, x8, x8, lsl #1
10000463c: 14 f1 7d d3 	lsl	x20, x8, #3
100004640: 35 21 00 91 	add	x21, x9, #8
100004644: 04 00 00 14 	b	0x100004654 <__ZN4core3ptr65drop_in_place$LT$alloc..vec..Vec$LT$alloc..string..String$GT$$GT$17h78e16a1cf82394e8E+0x3c>
100004648: b5 62 00 91 	add	x21, x21, #24
10000464c: 94 62 00 f1 	subs	x20, x20, #24
100004650: 00 01 00 54 	b.eq	0x100004670 <__ZN4core3ptr65drop_in_place$LT$alloc..vec..Vec$LT$alloc..string..String$GT$$GT$17h78e16a1cf82394e8E+0x58>
100004654: a1 82 5f f8 	ldur	x1, [x21, #-8]
100004658: 81 ff ff b4 	cbz	x1, 0x100004648 <__ZN4core3ptr65drop_in_place$LT$alloc..vec..Vec$LT$alloc..string..String$GT$$GT$17h78e16a1cf82394e8E+0x30>
10000465c: a0 02 40 f9 	ldr	x0, [x21]
100004660: e8 03 21 aa 	mvn	x8, x1
100004664: 02 fd 7f d3 	lsr	x2, x8, #63
100004668: 38 04 00 94 	bl	0x100005748 <___rust_dealloc>
10000466c: f7 ff ff 17 	b	0x100004648 <__ZN4core3ptr65drop_in_place$LT$alloc..vec..Vec$LT$alloc..string..String$GT$$GT$17h78e16a1cf82394e8E+0x30>
100004670: 68 02 40 f9 	ldr	x8, [x19]
100004674: 28 01 00 b4 	cbz	x8, 0x100004698 <__ZN4core3ptr65drop_in_place$LT$alloc..vec..Vec$LT$alloc..string..String$GT$$GT$17h78e16a1cf82394e8E+0x80>
100004678: 60 06 40 f9 	ldr	x0, [x19, #8]
10000467c: 08 05 08 8b 	add	x8, x8, x8, lsl #1
100004680: 01 f1 7d d3 	lsl	x1, x8, #3
100004684: 02 01 80 52 	mov	w2, #8
100004688: fd 7b 42 a9 	ldp	x29, x30, [sp, #32]
10000468c: f4 4f 41 a9 	ldp	x20, x19, [sp, #16]
100004690: f6 57 c3 a8 	ldp	x22, x21, [sp], #48
100004694: 2d 04 00 14 	b	0x100005748 <___rust_dealloc>
100004698: fd 7b 42 a9 	ldp	x29, x30, [sp, #32]
10000469c: f4 4f 41 a9 	ldp	x20, x19, [sp, #16]
1000046a0: f6 57 c3 a8 	ldp	x22, x21, [sp], #48
1000046a4: c0 03 5f d6 	ret

00000001000046a8 <__ZN98_$LT$alloc..vec..Vec$LT$T$GT$$u20$as$u20$alloc..vec..spec_from_iter..SpecFromIter$LT$T$C$I$GT$$GT$9from_iter17h6f6bf0e1611b503bE>:
1000046a8: ff 03 04 d1 	sub	sp, sp, #256
1000046ac: f8 5f 0c a9 	stp	x24, x23, [sp, #192]
1000046b0: f6 57 0d a9 	stp	x22, x21, [sp, #208]
1000046b4: f4 4f 0e a9 	stp	x20, x19, [sp, #224]
1000046b8: fd 7b 0f a9 	stp	x29, x30, [sp, #240]
1000046bc: fd c3 03 91 	add	x29, sp, #240
1000046c0: f3 03 08 aa 	mov	x19, x8
1000046c4: 00 04 40 ad 	ldp	q0, q1, [x0]
1000046c8: e0 07 00 ad 	stp	q0, q1, [sp]
1000046cc: a8 c3 01 d1 	sub	x8, x29, #112
1000046d0: e0 03 00 91 	mov	x0, sp
1000046d4: 00 54 00 94 	bl	0x1000196d4 <__ZN73_$LT$std..env..Args$u20$as$u20$core..iter..traits..iterator..Iterator$GT$4next17h6a73367d57a76aa7E>
1000046d8: a8 83 59 f8 	ldur	x8, [x29, #-104]
1000046dc: 28 0d 00 b4 	cbz	x8, 0x100004880 <__ZN98_$LT$alloc..vec..Vec$LT$T$GT$$u20$as$u20$alloc..vec..spec_from_iter..SpecFromIter$LT$T$C$I$GT$$GT$9from_iter17h6f6bf0e1611b503bE+0x1d8>
1000046e0: a0 03 d9 3c 	ldur	q0, [x29, #-112]
1000046e4: a0 03 9b 3c 	stur	q0, [x29, #-80]
1000046e8: a8 03 5a f8 	ldur	x8, [x29, #-96]
1000046ec: a8 03 1c f8 	stur	x8, [x29, #-64]
1000046f0: e8 03 01 91 	add	x8, sp, #64
1000046f4: e0 03 00 91 	mov	x0, sp
1000046f8: 2d 54 00 94 	bl	0x1000197ac <__ZN73_$LT$std..env..Args$u20$as$u20$core..iter..traits..iterator..Iterator$GT$9size_hint17hd85bdb96763efc5cE>
1000046fc: e8 23 40 f9 	ldr	x8, [sp, #64]
100004700: 08 05 00 b1 	adds	x8, x8, #1
100004704: 08 31 9f da 	csinv	x8, x8, xzr, lo
100004708: 89 00 80 52 	mov	w9, #4
10000470c: 1f 11 00 f1 	cmp	x8, #4
100004710: 17 81 89 9a 	csel	x23, x8, x9, hi
100004714: e8 f3 00 b2 	mov	x8, #6148914691236517205
100004718: c8 aa 8a f2 	movk	x8, #21846
10000471c: a8 aa e0 f2 	movk	x8, #1365, lsl #48
100004720: 08 05 00 d1 	sub	x8, x8, #1
100004724: ff 02 08 eb 	cmp	x23, x8
100004728: e8 87 9f 1a 	cset	w8, ls
10000472c: 08 10 00 54 	b.hi	0x10000492c <__ZN98_$LT$alloc..vec..Vec$LT$T$GT$$u20$as$u20$alloc..vec..spec_from_iter..SpecFromIter$LT$T$C$I$GT$$GT$9from_iter17h6f6bf0e1611b503bE+0x284>
100004730: e9 06 17 8b 	add	x9, x23, x23, lsl #1
100004734: 34 f1 7d d3 	lsl	x20, x9, #3
100004738: 16 f1 7d d3 	lsl	x22, x8, #3
10000473c: d4 0e 00 b4 	cbz	x20, 0x100004914 <__ZN98_$LT$alloc..vec..Vec$LT$T$GT$$u20$as$u20$alloc..vec..spec_from_iter..SpecFromIter$LT$T$C$I$GT$$GT$9from_iter17h6f6bf0e1611b503bE+0x26c>
100004740: e0 03 14 aa 	mov	x0, x20
100004744: e1 03 16 aa 	mov	x1, x22
100004748: ff 03 00 94 	bl	0x100005744 <___rust_alloc>
10000474c: f5 03 00 aa 	mov	x21, x0
100004750: 60 0e 00 b4 	cbz	x0, 0x10000491c <__ZN98_$LT$alloc..vec..Vec$LT$T$GT$$u20$as$u20$alloc..vec..spec_from_iter..SpecFromIter$LT$T$C$I$GT$$GT$9from_iter17h6f6bf0e1611b503bE+0x274>
100004754: a8 03 5a f8 	ldur	x8, [x29, #-96]
100004758: a8 0a 00 f9 	str	x8, [x21, #16]
10000475c: a0 03 d9 3c 	ldur	q0, [x29, #-112]
100004760: a0 02 80 3d 	str	q0, [x21]
100004764: f7 d7 02 a9 	stp	x23, x21, [sp, #40]
100004768: 34 00 80 52 	mov	w20, #1
10000476c: f4 1f 00 f9 	str	x20, [sp, #56]
100004770: e0 07 40 ad 	ldp	q0, q1, [sp]
100004774: e0 07 02 ad 	stp	q0, q1, [sp, #64]
100004778: 16 03 80 52 	mov	w22, #24
10000477c: 09 00 00 14 	b	0x1000047a0 <__ZN98_$LT$alloc..vec..Vec$LT$T$GT$$u20$as$u20$alloc..vec..spec_from_iter..SpecFromIter$LT$T$C$I$GT$$GT$9from_iter17h6f6bf0e1611b503bE+0xf8>
100004780: a8 02 16 8b 	add	x8, x21, x22
100004784: a0 03 d9 3c 	ldur	q0, [x29, #-112]
100004788: a9 03 5a f8 	ldur	x9, [x29, #-96]
10000478c: 09 09 00 f9 	str	x9, [x8, #16]
100004790: 00 01 80 3d 	str	q0, [x8]
100004794: 94 06 00 91 	add	x20, x20, #1
100004798: f4 1f 00 f9 	str	x20, [sp, #56]
10000479c: d6 62 00 91 	add	x22, x22, #24
1000047a0: e8 a3 01 91 	add	x8, sp, #104
1000047a4: e0 03 01 91 	add	x0, sp, #64
1000047a8: cb 53 00 94 	bl	0x1000196d4 <__ZN73_$LT$std..env..Args$u20$as$u20$core..iter..traits..iterator..Iterator$GT$4next17h6a73367d57a76aa7E>
1000047ac: e8 3b 40 f9 	ldr	x8, [sp, #112]
1000047b0: 68 02 00 b4 	cbz	x8, 0x1000047fc <__ZN98_$LT$alloc..vec..Vec$LT$T$GT$$u20$as$u20$alloc..vec..spec_from_iter..SpecFromIter$LT$T$C$I$GT$$GT$9from_iter17h6f6bf0e1611b503bE+0x154>
1000047b4: e0 83 c6 3c 	ldur	q0, [sp, #104]
1000047b8: a0 03 99 3c 	stur	q0, [x29, #-112]
1000047bc: e8 3f 40 f9 	ldr	x8, [sp, #120]
1000047c0: a8 03 1a f8 	stur	x8, [x29, #-96]
1000047c4: e8 17 40 f9 	ldr	x8, [sp, #40]
1000047c8: 9f 02 08 eb 	cmp	x20, x8
1000047cc: a1 fd ff 54 	b.ne	0x100004780 <__ZN98_$LT$alloc..vec..Vec$LT$T$GT$$u20$as$u20$alloc..vec..spec_from_iter..SpecFromIter$LT$T$C$I$GT$$GT$9from_iter17h6f6bf0e1611b503bE+0xd8>
1000047d0: a8 43 01 d1 	sub	x8, x29, #80
1000047d4: e0 03 01 91 	add	x0, sp, #64
1000047d8: f5 53 00 94 	bl	0x1000197ac <__ZN73_$LT$std..env..Args$u20$as$u20$core..iter..traits..iterator..Iterator$GT$9size_hint17hd85bdb96763efc5cE>
1000047dc: a8 03 5b f8 	ldur	x8, [x29, #-80]
1000047e0: 08 05 00 b1 	adds	x8, x8, #1
1000047e4: 02 31 9f da 	csinv	x2, x8, xzr, lo
1000047e8: e0 a3 00 91 	add	x0, sp, #40
1000047ec: e1 03 14 aa 	mov	x1, x20
1000047f0: 90 ba 00 94 	bl	0x100033230 <__ZN5alloc7raw_vec19RawVec$LT$T$C$A$GT$7reserve21do_reserve_and_handle17h0053a018560554f2E>
1000047f4: f5 1b 40 f9 	ldr	x21, [sp, #48]
1000047f8: e2 ff ff 17 	b	0x100004780 <__ZN98_$LT$alloc..vec..Vec$LT$T$GT$$u20$as$u20$alloc..vec..spec_from_iter..SpecFromIter$LT$T$C$I$GT$$GT$9from_iter17h6f6bf0e1611b503bE+0xd8>
1000047fc: e8 a7 44 a9 	ldp	x8, x9, [sp, #72]
100004800: 29 01 08 eb 	subs	x9, x9, x8
100004804: 60 02 00 54 	b.eq	0x100004850 <__ZN98_$LT$alloc..vec..Vec$LT$T$GT$$u20$as$u20$alloc..vec..spec_from_iter..SpecFromIter$LT$T$C$I$GT$$GT$9from_iter17h6f6bf0e1611b503bE+0x1a8>
100004808: ea f3 01 b2 	mov	x10, #-6148914691236517206
10000480c: 6a 55 95 f2 	movk	x10, #43691
100004810: 29 7d ca 9b 	umulh	x9, x9, x10
100004814: 29 fd 44 d3 	lsr	x9, x9, #4
100004818: 14 21 00 91 	add	x20, x8, #8
10000481c: 28 05 09 8b 	add	x8, x9, x9, lsl #1
100004820: 15 f1 7d d3 	lsl	x21, x8, #3
100004824: 04 00 00 14 	b	0x100004834 <__ZN98_$LT$alloc..vec..Vec$LT$T$GT$$u20$as$u20$alloc..vec..spec_from_iter..SpecFromIter$LT$T$C$I$GT$$GT$9from_iter17h6f6bf0e1611b503bE+0x18c>
100004828: 94 62 00 91 	add	x20, x20, #24
10000482c: b5 62 00 f1 	subs	x21, x21, #24
100004830: 00 01 00 54 	b.eq	0x100004850 <__ZN98_$LT$alloc..vec..Vec$LT$T$GT$$u20$as$u20$alloc..vec..spec_from_iter..SpecFromIter$LT$T$C$I$GT$$GT$9from_iter17h6f6bf0e1611b503bE+0x1a8>
100004834: 81 82 5f f8 	ldur	x1, [x20, #-8]
100004838: 81 ff ff b4 	cbz	x1, 0x100004828 <__ZN98_$LT$alloc..vec..Vec$LT$T$GT$$u20$as$u20$alloc..vec..spec_from_iter..SpecFromIter$LT$T$C$I$GT$$GT$9from_iter17h6f6bf0e1611b503bE+0x180>
10000483c: 80 02 40 f9 	ldr	x0, [x20]
100004840: e8 03 21 aa 	mvn	x8, x1
100004844: 02 fd 7f d3 	lsr	x2, x8, #63
100004848: c0 03 00 94 	bl	0x100005748 <___rust_dealloc>
10000484c: f7 ff ff 17 	b	0x100004828 <__ZN98_$LT$alloc..vec..Vec$LT$T$GT$$u20$as$u20$alloc..vec..spec_from_iter..SpecFromIter$LT$T$C$I$GT$$GT$9from_iter17h6f6bf0e1611b503bE+0x180>
100004850: e8 23 40 f9 	ldr	x8, [sp, #64]
100004854: c8 00 00 b4 	cbz	x8, 0x10000486c <__ZN98_$LT$alloc..vec..Vec$LT$T$GT$$u20$as$u20$alloc..vec..spec_from_iter..SpecFromIter$LT$T$C$I$GT$$GT$9from_iter17h6f6bf0e1611b503bE+0x1c4>
100004858: e0 2f 40 f9 	ldr	x0, [sp, #88]
10000485c: 08 05 08 8b 	add	x8, x8, x8, lsl #1
100004860: 01 f1 7d d3 	lsl	x1, x8, #3
100004864: 02 01 80 52 	mov	w2, #8
100004868: b8 03 00 94 	bl	0x100005748 <___rust_dealloc>
10000486c: e0 83 c2 3c 	ldur	q0, [sp, #40]
100004870: 60 02 80 3d 	str	q0, [x19]
100004874: e8 1f 40 f9 	ldr	x8, [sp, #56]
100004878: 68 0a 00 f9 	str	x8, [x19, #16]
10000487c: 20 00 00 14 	b	0x1000048fc <__ZN98_$LT$alloc..vec..Vec$LT$T$GT$$u20$as$u20$alloc..vec..spec_from_iter..SpecFromIter$LT$T$C$I$GT$$GT$9from_iter17h6f6bf0e1611b503bE+0x254>
100004880: 08 01 80 52 	mov	w8, #8
100004884: 7f 22 00 a9 	stp	xzr, x8, [x19]
100004888: 7f 0a 00 f9 	str	xzr, [x19, #16]
10000488c: e8 a7 40 a9 	ldp	x8, x9, [sp, #8]
100004890: 29 01 08 eb 	subs	x9, x9, x8
100004894: 60 02 00 54 	b.eq	0x1000048e0 <__ZN98_$LT$alloc..vec..Vec$LT$T$GT$$u20$as$u20$alloc..vec..spec_from_iter..SpecFromIter$LT$T$C$I$GT$$GT$9from_iter17h6f6bf0e1611b503bE+0x238>
100004898: ea f3 01 b2 	mov	x10, #-6148914691236517206
10000489c: 6a 55 95 f2 	movk	x10, #43691
1000048a0: 29 7d ca 9b 	umulh	x9, x9, x10
1000048a4: 29 fd 44 d3 	lsr	x9, x9, #4
1000048a8: 13 21 00 91 	add	x19, x8, #8
1000048ac: 28 05 09 8b 	add	x8, x9, x9, lsl #1
1000048b0: 14 f1 7d d3 	lsl	x20, x8, #3
1000048b4: 04 00 00 14 	b	0x1000048c4 <__ZN98_$LT$alloc..vec..Vec$LT$T$GT$$u20$as$u20$alloc..vec..spec_from_iter..SpecFromIter$LT$T$C$I$GT$$GT$9from_iter17h6f6bf0e1611b503bE+0x21c>
1000048b8: 73 62 00 91 	add	x19, x19, #24
1000048bc: 94 62 00 f1 	subs	x20, x20, #24
1000048c0: 00 01 00 54 	b.eq	0x1000048e0 <__ZN98_$LT$alloc..vec..Vec$LT$T$GT$$u20$as$u20$alloc..vec..spec_from_iter..SpecFromIter$LT$T$C$I$GT$$GT$9from_iter17h6f6bf0e1611b503bE+0x238>
1000048c4: 61 82 5f f8 	ldur	x1, [x19, #-8]
1000048c8: 81 ff ff b4 	cbz	x1, 0x1000048b8 <__ZN98_$LT$alloc..vec..Vec$LT$T$GT$$u20$as$u20$alloc..vec..spec_from_iter..SpecFromIter$LT$T$C$I$GT$$GT$9from_iter17h6f6bf0e1611b503bE+0x210>
1000048cc: 60 02 40 f9 	ldr	x0, [x19]
1000048d0: e8 03 21 aa 	mvn	x8, x1
1000048d4: 02 fd 7f d3 	lsr	x2, x8, #63
1000048d8: 9c 03 00 94 	bl	0x100005748 <___rust_dealloc>
1000048dc: f7 ff ff 17 	b	0x1000048b8 <__ZN98_$LT$alloc..vec..Vec$LT$T$GT$$u20$as$u20$alloc..vec..spec_from_iter..SpecFromIter$LT$T$C$I$GT$$GT$9from_iter17h6f6bf0e1611b503bE+0x210>
1000048e0: e8 03 40 f9 	ldr	x8, [sp]
1000048e4: c8 00 00 b4 	cbz	x8, 0x1000048fc <__ZN98_$LT$alloc..vec..Vec$LT$T$GT$$u20$as$u20$alloc..vec..spec_from_iter..SpecFromIter$LT$T$C$I$GT$$GT$9from_iter17h6f6bf0e1611b503bE+0x254>
1000048e8: e0 0f 40 f9 	ldr	x0, [sp, #24]
1000048ec: 08 05 08 8b 	add	x8, x8, x8, lsl #1
1000048f0: 01 f1 7d d3 	lsl	x1, x8, #3
1000048f4: 02 01 80 52 	mov	w2, #8
1000048f8: 94 03 00 94 	bl	0x100005748 <___rust_dealloc>
1000048fc: fd 7b 4f a9 	ldp	x29, x30, [sp, #240]
100004900: f4 4f 4e a9 	ldp	x20, x19, [sp, #224]
100004904: f6 57 4d a9 	ldp	x22, x21, [sp, #208]
100004908: f8 5f 4c a9 	ldp	x24, x23, [sp, #192]
10000490c: ff 03 04 91 	add	sp, sp, #256
100004910: c0 03 5f d6 	ret
100004914: f5 03 16 aa 	mov	x21, x22
100004918: f6 f1 ff b5 	cbnz	x22, 0x100004754 <__ZN98_$LT$alloc..vec..Vec$LT$T$GT$$u20$as$u20$alloc..vec..spec_from_iter..SpecFromIter$LT$T$C$I$GT$$GT$9from_iter17h6f6bf0e1611b503bE+0xac>
10000491c: e0 03 14 aa 	mov	x0, x20
100004920: e1 03 16 aa 	mov	x1, x22
100004924: 27 c3 00 94 	bl	0x1000355c0 <__ZN5alloc5alloc18handle_alloc_error17h1d9de7391f28bb67E>
100004928: 02 00 00 14 	b	0x100004930 <__ZN98_$LT$alloc..vec..Vec$LT$T$GT$$u20$as$u20$alloc..vec..spec_from_iter..SpecFromIter$LT$T$C$I$GT$$GT$9from_iter17h6f6bf0e1611b503bE+0x288>
10000492c: fb 9f 00 94 	bl	0x10002c918 <__ZN5alloc7raw_vec17capacity_overflow17h45560cdc8c994c33E>
100004930: 20 00 20 d4 	brk	#0x1
100004934: f3 03 00 aa 	mov	x19, x0
100004938: 04 00 00 14 	b	0x100004948 <__ZN98_$LT$alloc..vec..Vec$LT$T$GT$$u20$as$u20$alloc..vec..spec_from_iter..SpecFromIter$LT$T$C$I$GT$$GT$9from_iter17h6f6bf0e1611b503bE+0x2a0>
10000493c: f3 03 00 aa 	mov	x19, x0
100004940: a0 43 01 d1 	sub	x0, x29, #80
100004944: 2e ff ff 97 	bl	0x1000045fc <__ZN4core3ptr42drop_in_place$LT$alloc..string..String$GT$17he13402f8f6cdd3bfE>
100004948: e0 03 00 91 	mov	x0, sp
10000494c: 04 ff ff 97 	bl	0x10000455c <__ZN4core3ptr35drop_in_place$LT$std..env..Args$GT$17hd306132d3711a8a9E>
100004950: e0 03 13 aa 	mov	x0, x19
100004954: 13 c4 00 94 	bl	0x1000359a0 <_writev+0x1000359a0>
100004958: f3 03 00 aa 	mov	x19, x0
10000495c: a0 c3 01 d1 	sub	x0, x29, #112
100004960: 27 ff ff 97 	bl	0x1000045fc <__ZN4core3ptr42drop_in_place$LT$alloc..string..String$GT$17he13402f8f6cdd3bfE>
100004964: 02 00 00 14 	b	0x10000496c <__ZN98_$LT$alloc..vec..Vec$LT$T$GT$$u20$as$u20$alloc..vec..spec_from_iter..SpecFromIter$LT$T$C$I$GT$$GT$9from_iter17h6f6bf0e1611b503bE+0x2c4>
100004968: f3 03 00 aa 	mov	x19, x0
10000496c: e0 03 01 91 	add	x0, sp, #64
100004970: fb fe ff 97 	bl	0x10000455c <__ZN4core3ptr35drop_in_place$LT$std..env..Args$GT$17hd306132d3711a8a9E>
100004974: e0 a3 00 91 	add	x0, sp, #40
100004978: 28 ff ff 97 	bl	0x100004618 <__ZN4core3ptr65drop_in_place$LT$alloc..vec..Vec$LT$alloc..string..String$GT$$GT$17h78e16a1cf82394e8E>
10000497c: e0 03 13 aa 	mov	x0, x19
100004980: 08 c4 00 94 	bl	0x1000359a0 <_writev+0x1000359a0>
100004984: 61 c3 00 94 	bl	0x100035708 <__ZN4core9panicking19panic_cannot_unwind17h0bac00b37026e68cE>

0000000100004988 <__ZN4core3ptr110drop_in_place$LT$std..collections..hash..map..HashMap$LT$alloc..string..String$C$alloc..string..String$GT$$GT$17h8fe18d2246451350E>:
100004988: 49 fd ff 17 	b	0x100003eac <__ZN79_$LT$hashbrown..raw..RawTable$LT$T$C$A$GT$$u20$as$u20$core..ops..drop..Drop$GT$4drop17h194f1aa0711a3796E>

000000010000498c <__ZN4core3ptr42drop_in_place$LT$alloc..string..String$GT$17he13402f8f6cdd3bfE>:
10000498c: e0 00 00 b4 	cbz	x0, 0x1000049a8 <__ZN4core3ptr42drop_in_place$LT$alloc..string..String$GT$17he13402f8f6cdd3bfE+0x1c>
100004990: e8 03 00 aa 	mov	x8, x0
100004994: e9 03 20 aa 	mvn	x9, x0
100004998: 22 fd 7f d3 	lsr	x2, x9, #63
10000499c: e0 03 01 aa 	mov	x0, x1
1000049a0: e1 03 08 aa 	mov	x1, x8
1000049a4: 69 03 00 14 	b	0x100005748 <___rust_dealloc>
1000049a8: c0 03 5f d6 	ret

00000001000049ac <__ZN4core3ptr65drop_in_place$LT$alloc..vec..Vec$LT$alloc..string..String$GT$$GT$17h78e16a1cf82394e8E>:
1000049ac: f6 57 bd a9 	stp	x22, x21, [sp, #-48]!
1000049b0: f4 4f 01 a9 	stp	x20, x19, [sp, #16]
1000049b4: fd 7b 02 a9 	stp	x29, x30, [sp, #32]
1000049b8: fd 83 00 91 	add	x29, sp, #32
1000049bc: f3 03 00 aa 	mov	x19, x0
1000049c0: 08 08 40 f9 	ldr	x8, [x0, #16]
1000049c4: 08 02 00 b4 	cbz	x8, 0x100004a04 <__ZN4core3ptr65drop_in_place$LT$alloc..vec..Vec$LT$alloc..string..String$GT$$GT$17h78e16a1cf82394e8E+0x58>
1000049c8: 69 06 40 f9 	ldr	x9, [x19, #8]
1000049cc: 34 21 00 91 	add	x20, x9, #8
1000049d0: 08 05 08 8b 	add	x8, x8, x8, lsl #1
1000049d4: 15 f1 7d d3 	lsl	x21, x8, #3
1000049d8: 04 00 00 14 	b	0x1000049e8 <__ZN4core3ptr65drop_in_place$LT$alloc..vec..Vec$LT$alloc..string..String$GT$$GT$17h78e16a1cf82394e8E+0x3c>
1000049dc: 94 62 00 91 	add	x20, x20, #24
1000049e0: b5 62 00 f1 	subs	x21, x21, #24
1000049e4: 00 01 00 54 	b.eq	0x100004a04 <__ZN4core3ptr65drop_in_place$LT$alloc..vec..Vec$LT$alloc..string..String$GT$$GT$17h78e16a1cf82394e8E+0x58>
1000049e8: 81 82 5f f8 	ldur	x1, [x20, #-8]
1000049ec: 81 ff ff b4 	cbz	x1, 0x1000049dc <__ZN4core3ptr65drop_in_place$LT$alloc..vec..Vec$LT$alloc..string..String$GT$$GT$17h78e16a1cf82394e8E+0x30>
1000049f0: 80 02 40 f9 	ldr	x0, [x20]
1000049f4: e8 03 21 aa 	mvn	x8, x1
1000049f8: 02 fd 7f d3 	lsr	x2, x8, #63
1000049fc: 53 03 00 94 	bl	0x100005748 <___rust_dealloc>
100004a00: f7 ff ff 17 	b	0x1000049dc <__ZN4core3ptr65drop_in_place$LT$alloc..vec..Vec$LT$alloc..string..String$GT$$GT$17h78e16a1cf82394e8E+0x30>
100004a04: 68 02 40 f9 	ldr	x8, [x19]
100004a08: 28 01 00 b4 	cbz	x8, 0x100004a2c <__ZN4core3ptr65drop_in_place$LT$alloc..vec..Vec$LT$alloc..string..String$GT$$GT$17h78e16a1cf82394e8E+0x80>
100004a0c: 60 06 40 f9 	ldr	x0, [x19, #8]
100004a10: 08 05 08 8b 	add	x8, x8, x8, lsl #1
100004a14: 01 f1 7d d3 	lsl	x1, x8, #3
100004a18: 02 01 80 52 	mov	w2, #8
100004a1c: fd 7b 42 a9 	ldp	x29, x30, [sp, #32]
100004a20: f4 4f 41 a9 	ldp	x20, x19, [sp, #16]
100004a24: f6 57 c3 a8 	ldp	x22, x21, [sp], #48
100004a28: 48 03 00 14 	b	0x100005748 <___rust_dealloc>
100004a2c: fd 7b 42 a9 	ldp	x29, x30, [sp, #32]
100004a30: f4 4f 41 a9 	ldp	x20, x19, [sp, #16]
100004a34: f6 57 c3 a8 	ldp	x22, x21, [sp], #48
100004a38: c0 03 5f d6 	ret

0000000100004a3c <__ZN4core3ptr81drop_in_place$LT$alloc..vec..into_iter..IntoIter$LT$alloc..string..String$GT$$GT$17h36a460253c56f817E>:
100004a3c: f6 57 bd a9 	stp	x22, x21, [sp, #-48]!
100004a40: f4 4f 01 a9 	stp	x20, x19, [sp, #16]
100004a44: fd 7b 02 a9 	stp	x29, x30, [sp, #32]
100004a48: fd 83 00 91 	add	x29, sp, #32
100004a4c: f3 03 00 aa 	mov	x19, x0
100004a50: 08 a4 40 a9 	ldp	x8, x9, [x0, #8]
100004a54: 29 01 08 eb 	subs	x9, x9, x8
100004a58: 60 02 00 54 	b.eq	0x100004aa4 <__ZN4core3ptr81drop_in_place$LT$alloc..vec..into_iter..IntoIter$LT$alloc..string..String$GT$$GT$17h36a460253c56f817E+0x68>
100004a5c: ea f3 01 b2 	mov	x10, #-6148914691236517206
100004a60: 6a 55 95 f2 	movk	x10, #43691
100004a64: 29 7d ca 9b 	umulh	x9, x9, x10
100004a68: 29 fd 44 d3 	lsr	x9, x9, #4
100004a6c: 14 21 00 91 	add	x20, x8, #8
100004a70: 28 05 09 8b 	add	x8, x9, x9, lsl #1
100004a74: 15 f1 7d d3 	lsl	x21, x8, #3
100004a78: 04 00 00 14 	b	0x100004a88 <__ZN4core3ptr81drop_in_place$LT$alloc..vec..into_iter..IntoIter$LT$alloc..string..String$GT$$GT$17h36a460253c56f817E+0x4c>
100004a7c: 94 62 00 91 	add	x20, x20, #24
100004a80: b5 62 00 f1 	subs	x21, x21, #24
100004a84: 00 01 00 54 	b.eq	0x100004aa4 <__ZN4core3ptr81drop_in_place$LT$alloc..vec..into_iter..IntoIter$LT$alloc..string..String$GT$$GT$17h36a460253c56f817E+0x68>
100004a88: 81 82 5f f8 	ldur	x1, [x20, #-8]
100004a8c: 81 ff ff b4 	cbz	x1, 0x100004a7c <__ZN4core3ptr81drop_in_place$LT$alloc..vec..into_iter..IntoIter$LT$alloc..string..String$GT$$GT$17h36a460253c56f817E+0x40>
100004a90: 80 02 40 f9 	ldr	x0, [x20]
100004a94: e8 03 21 aa 	mvn	x8, x1
100004a98: 02 fd 7f d3 	lsr	x2, x8, #63
100004a9c: 2b 03 00 94 	bl	0x100005748 <___rust_dealloc>
100004aa0: f7 ff ff 17 	b	0x100004a7c <__ZN4core3ptr81drop_in_place$LT$alloc..vec..into_iter..IntoIter$LT$alloc..string..String$GT$$GT$17h36a460253c56f817E+0x40>
100004aa4: 68 02 40 f9 	ldr	x8, [x19]
100004aa8: 28 01 00 b4 	cbz	x8, 0x100004acc <__ZN4core3ptr81drop_in_place$LT$alloc..vec..into_iter..IntoIter$LT$alloc..string..String$GT$$GT$17h36a460253c56f817E+0x90>
100004aac: 60 0e 40 f9 	ldr	x0, [x19, #24]
100004ab0: 08 05 08 8b 	add	x8, x8, x8, lsl #1
100004ab4: 01 f1 7d d3 	lsl	x1, x8, #3
100004ab8: 02 01 80 52 	mov	w2, #8
100004abc: fd 7b 42 a9 	ldp	x29, x30, [sp, #32]
100004ac0: f4 4f 41 a9 	ldp	x20, x19, [sp, #16]
100004ac4: f6 57 c3 a8 	ldp	x22, x21, [sp], #48
100004ac8: 20 03 00 14 	b	0x100005748 <___rust_dealloc>
100004acc: fd 7b 42 a9 	ldp	x29, x30, [sp, #32]
100004ad0: f4 4f 41 a9 	ldp	x20, x19, [sp, #16]
100004ad4: f6 57 c3 a8 	ldp	x22, x21, [sp], #48
100004ad8: c0 03 5f d6 	ret

0000000100004adc <__ZN72_$LT$ostep..util..args..Config$u20$as$u20$ostep..util..args..ArgsMap$GT$5parse17h9a0da0eb76102b43E>:
100004adc: ff 03 07 d1 	sub	sp, sp, #448
100004ae0: fc 6f 16 a9 	stp	x28, x27, [sp, #352]
100004ae4: fa 67 17 a9 	stp	x26, x25, [sp, #368]
100004ae8: f8 5f 18 a9 	stp	x24, x23, [sp, #384]
100004aec: f6 57 19 a9 	stp	x22, x21, [sp, #400]
100004af0: f4 4f 1a a9 	stp	x20, x19, [sp, #416]
100004af4: fd 7b 1b a9 	stp	x29, x30, [sp, #432]
100004af8: fd c3 06 91 	add	x29, sp, #432
100004afc: f4 03 08 aa 	mov	x20, x8
100004b00: b3 43 03 d1 	sub	x19, x29, #208
100004b04: e8 c3 00 91 	add	x8, sp, #48
100004b08: 8a 52 00 94 	bl	0x100019530 <__ZN3std3env4args17hbf8a1e33ce56aee1E>
100004b0c: e0 87 41 ad 	ldp	q0, q1, [sp, #48]
100004b10: 60 06 00 ad 	stp	q0, q1, [x19]
100004b14: e8 63 00 91 	add	x8, sp, #24
100004b18: a0 43 03 d1 	sub	x0, x29, #208
100004b1c: e3 fe ff 97 	bl	0x1000046a8 <__ZN98_$LT$alloc..vec..Vec$LT$T$GT$$u20$as$u20$alloc..vec..spec_from_iter..SpecFromIter$LT$T$C$I$GT$$GT$9from_iter17h6f6bf0e1611b503bE>
100004b20: f3 17 40 f9 	ldr	x19, [sp, #40]
100004b24: 28 02 00 90 	adrp	x8, 0x100048000 <__ZN72_$LT$ostep..util..args..Config$u20$as$u20$ostep..util..args..ArgsMap$GT$5parse17h9a0da0eb76102b43E+0x158>
100004b28: 08 41 00 91 	add	x8, x8, #16
100004b2c: 09 01 40 f9 	ldr	x9, [x8]
100004b30: e0 03 08 aa 	mov	x0, x8
100004b34: 20 01 3f d6 	blr	x9
100004b38: 0a 84 40 f8 	ldr	x10, [x0], #8
100004b3c: aa 00 00 b5 	cbnz	x10, 0x100004b50 <__ZN72_$LT$ostep..util..args..Config$u20$as$u20$ostep..util..args..ArgsMap$GT$5parse17h9a0da0eb76102b43E+0x74>
100004b40: e0 03 08 aa 	mov	x0, x8
100004b44: 20 01 3f d6 	blr	x9
100004b48: 01 00 80 d2 	mov	x1, #0
100004b4c: 9c 01 00 94 	bl	0x1000051bc <__ZN3std6thread5local4fast12Key$LT$T$GT$14try_initialize17h94fd35b31fcbd0efE>
100004b50: 08 24 40 a9 	ldp	x8, x9, [x0]
100004b54: 0a 05 00 91 	add	x10, x8, #1
100004b58: 0a 00 00 f9 	str	x10, [x0]
100004b5c: ff 7f 03 a9 	stp	xzr, xzr, [sp, #48]
100004b60: ca 8b 18 10 	adr	x10, #201080
100004b64: 1f 20 03 d5 	nop
100004b68: ff 2b 04 a9 	stp	xzr, x10, [sp, #64]
100004b6c: e8 27 05 a9 	stp	x8, x9, [sp, #80]
100004b70: f3 25 00 b4 	cbz	x19, 0x10000502c <__ZN72_$LT$ostep..util..args..Config$u20$as$u20$ostep..util..args..ArgsMap$GT$5parse17h9a0da0eb76102b43E+0x550>
100004b74: f4 0b 00 f9 	str	x20, [sp, #16]
100004b78: ea a7 41 a9 	ldp	x10, x9, [sp, #24]
100004b7c: 08 03 80 52 	mov	w8, #24
100004b80: 74 26 08 9b 	madd	x20, x19, x8, x9
100004b84: e9 2b 00 a9 	stp	x9, x10, [sp]
100004b88: ea 33 00 f9 	str	x10, [sp, #96]
100004b8c: f4 27 07 a9 	stp	x20, x9, [sp, #112]
100004b90: 3c 00 80 52 	mov	w28, #1
100004b94: f6 89 18 10 	adr	x22, #201020
100004b98: 1f 20 03 d5 	nop
100004b9c: e8 03 09 aa 	mov	x8, x9
100004ba0: 04 00 00 14 	b	0x100004bb0 <__ZN72_$LT$ostep..util..args..Config$u20$as$u20$ostep..util..args..ArgsMap$GT$5parse17h9a0da0eb76102b43E+0xd4>
100004ba4: e8 03 13 aa 	mov	x8, x19
100004ba8: 7f 02 14 eb 	cmp	x19, x20
100004bac: e0 1f 00 54 	b.eq	0x100004fa8 <__ZN72_$LT$ostep..util..args..Config$u20$as$u20$ostep..util..args..ArgsMap$GT$5parse17h9a0da0eb76102b43E+0x4cc>
100004bb0: 13 61 00 91 	add	x19, x8, #24
100004bb4: f3 37 00 f9 	str	x19, [sp, #104]
100004bb8: 00 05 40 f9 	ldr	x0, [x8, #8]
100004bbc: 60 1f 00 b4 	cbz	x0, 0x100004fa8 <__ZN72_$LT$ostep..util..args..Config$u20$as$u20$ostep..util..args..ArgsMap$GT$5parse17h9a0da0eb76102b43E+0x4cc>
100004bc0: 01 09 40 f9 	ldr	x1, [x8, #16]
100004bc4: 08 01 40 f9 	ldr	x8, [x8]
100004bc8: e8 03 08 a9 	stp	x8, x0, [sp, #128]
100004bcc: e1 4b 00 f9 	str	x1, [sp, #144]
100004bd0: 90 fd ff 97 	bl	0x100004210 <__ZN4core3str21_$LT$impl$u20$str$GT$12trim_matches17h3016e15d8e88476dE>
100004bd4: f7 03 00 aa 	mov	x23, x0
100004bd8: f5 03 01 aa 	mov	x21, x1
100004bdc: 41 0d 00 b4 	cbz	x1, 0x100004d84 <__ZN72_$LT$ostep..util..args..Config$u20$as$u20$ostep..util..args..ArgsMap$GT$5parse17h9a0da0eb76102b43E+0x2a8>
100004be0: 35 29 f8 b7 	tbnz	x21, #63, 0x100005104 <__ZN72_$LT$ostep..util..args..Config$u20$as$u20$ostep..util..args..ArgsMap$GT$5parse17h9a0da0eb76102b43E+0x628>
100004be4: e0 03 15 aa 	mov	x0, x21
100004be8: 21 00 80 52 	mov	w1, #1
100004bec: d6 02 00 94 	bl	0x100005744 <___rust_alloc>
100004bf0: f8 03 00 aa 	mov	x24, x0
100004bf4: c0 28 00 b4 	cbz	x0, 0x10000510c <__ZN72_$LT$ostep..util..args..Config$u20$as$u20$ostep..util..args..ArgsMap$GT$5parse17h9a0da0eb76102b43E+0x630>
100004bf8: e0 03 18 aa 	mov	x0, x24
100004bfc: e1 03 17 aa 	mov	x1, x23
100004c00: e2 03 15 aa 	mov	x2, x21
100004c04: b2 c3 00 94 	bl	0x100035acc <_writev+0x100035acc>
100004c08: e1 43 40 f9 	ldr	x1, [sp, #128]
100004c0c: a1 00 00 b4 	cbz	x1, 0x100004c20 <__ZN72_$LT$ostep..util..args..Config$u20$as$u20$ostep..util..args..ArgsMap$GT$5parse17h9a0da0eb76102b43E+0x144>
100004c10: e0 47 40 f9 	ldr	x0, [sp, #136]
100004c14: e8 03 21 aa 	mvn	x8, x1
100004c18: 02 fd 7f d3 	lsr	x2, x8, #63
100004c1c: cb 02 00 94 	bl	0x100005748 <___rust_dealloc>
100004c20: f5 63 08 a9 	stp	x21, x24, [sp, #128]
100004c24: f5 4b 00 f9 	str	x21, [sp, #144]
100004c28: e8 63 02 91 	add	x8, sp, #152
100004c2c: e0 03 02 91 	add	x0, sp, #128
100004c30: 98 a0 00 94 	bl	0x10002ce90 <__ZN60_$LT$alloc..string..String$u20$as$u20$core..clone..Clone$GT$5clone17h37dca3a9aa88dd90E>
100004c34: f5 67 4a a9 	ldp	x21, x25, [sp, #160]
100004c38: a8 43 03 d1 	sub	x8, x29, #208
100004c3c: e0 03 15 aa 	mov	x0, x21
100004c40: e1 03 19 aa 	mov	x1, x25
100004c44: e2 03 16 aa 	mov	x2, x22
100004c48: 23 00 80 52 	mov	w3, #1
100004c4c: 9f ae 00 94 	bl	0x1000306c8 <__ZN4core3str7pattern11StrSearcher3new17h7a732bb0bf1ebf89E>
100004c50: a8 03 55 f8 	ldur	x8, [x29, #-176]
100004c54: 88 0a 00 b4 	cbz	x8, 0x100004da4 <__ZN72_$LT$ostep..util..args..Config$u20$as$u20$ostep..util..args..ArgsMap$GT$5parse17h9a0da0eb76102b43E+0x2c8>
100004c58: a1 83 53 f8 	ldur	x1, [x29, #-200]
100004c5c: a8 83 54 f8 	ldur	x8, [x29, #-184]
100004c60: b8 83 57 f8 	ldur	x24, [x29, #-136]
100004c64: 09 05 00 d1 	sub	x9, x8, #1
100004c68: 00 03 09 8b 	add	x0, x24, x9
100004c6c: 1f 00 01 eb 	cmp	x0, x1
100004c70: e2 17 00 54 	b.hs	0x100004f6c <__ZN72_$LT$ostep..util..args..Config$u20$as$u20$ostep..util..args..ArgsMap$GT$5parse17h9a0da0eb76102b43E+0x490>
100004c74: aa 03 53 f8 	ldur	x10, [x29, #-208]
100004c78: ab 03 54 f8 	ldur	x11, [x29, #-192]
100004c7c: ac 83 58 f8 	ldur	x12, [x29, #-120]
100004c80: af b7 76 a9 	ldp	x15, x13, [x29, #-152]
100004c84: ae 83 55 f8 	ldur	x14, [x29, #-168]
100004c88: 10 01 0f cb 	sub	x16, x8, x15
100004c8c: 91 03 0e cb 	sub	x17, x28, x14
100004c90: c2 05 00 d1 	sub	x2, x14, #1
100004c94: e3 03 0c aa 	mov	x3, x12
100004c98: 05 00 00 14 	b	0x100004cac <__ZN72_$LT$ostep..util..args..Config$u20$as$u20$ostep..util..args..ArgsMap$GT$5parse17h9a0da0eb76102b43E+0x1d0>
100004c9c: e3 03 00 aa 	mov	x3, x0
100004ca0: 00 03 09 8b 	add	x0, x24, x9
100004ca4: 1f 00 01 eb 	cmp	x0, x1
100004ca8: 22 16 00 54 	b.hs	0x100004f6c <__ZN72_$LT$ostep..util..args..Config$u20$as$u20$ostep..util..args..ArgsMap$GT$5parse17h9a0da0eb76102b43E+0x490>
100004cac: 40 69 60 38 	ldrb	w0, [x10, x0]
100004cb0: a0 25 c0 9a 	lsr	x0, x13, x0
100004cb4: 20 03 00 36 	tbz	w0, #0, 0x100004d18 <__ZN72_$LT$ostep..util..args..Config$u20$as$u20$ostep..util..args..ArgsMap$GT$5parse17h9a0da0eb76102b43E+0x23c>
100004cb8: df 01 03 eb 	cmp	x14, x3
100004cbc: c0 81 83 9a 	csel	x0, x14, x3, hi
100004cc0: 9f 05 00 b1 	cmn	x12, #1
100004cc4: c0 01 80 9a 	csel	x0, x14, x0, eq
100004cc8: 1f 00 08 eb 	cmp	x0, x8
100004ccc: 04 80 88 9a 	csel	x4, x0, x8, hi
100004cd0: 07 00 18 8b 	add	x7, x0, x24
100004cd4: e5 03 0b aa 	mov	x5, x11
100004cd8: 1f 00 04 eb 	cmp	x0, x4
100004cdc: 80 02 00 54 	b.eq	0x100004d2c <__ZN72_$LT$ostep..util..args..Config$u20$as$u20$ostep..util..args..ArgsMap$GT$5parse17h9a0da0eb76102b43E+0x250>
100004ce0: e6 03 07 aa 	mov	x6, x7
100004ce4: ff 00 01 eb 	cmp	x7, x1
100004ce8: 62 1d 00 54 	b.hs	0x100005094 <__ZN72_$LT$ostep..util..args..Config$u20$as$u20$ostep..util..args..ArgsMap$GT$5parse17h9a0da0eb76102b43E+0x5b8>
100004cec: b7 68 60 38 	ldrb	w23, [x5, x0]
100004cf0: 5a 69 66 38 	ldrb	w26, [x10, x6]
100004cf4: c7 04 00 91 	add	x7, x6, #1
100004cf8: a5 04 00 91 	add	x5, x5, #1
100004cfc: 84 04 00 d1 	sub	x4, x4, #1
100004d00: ff 02 1a 6b 	cmp	w23, w26
100004d04: a0 fe ff 54 	b.eq	0x100004cd8 <__ZN72_$LT$ostep..util..args..Config$u20$as$u20$ostep..util..args..ArgsMap$GT$5parse17h9a0da0eb76102b43E+0x1fc>
100004d08: 38 02 06 8b 	add	x24, x17, x6
100004d0c: 9f 05 00 b1 	cmn	x12, #1
100004d10: a1 00 00 54 	b.ne	0x100004d24 <__ZN72_$LT$ostep..util..args..Config$u20$as$u20$ostep..util..args..ArgsMap$GT$5parse17h9a0da0eb76102b43E+0x248>
100004d14: e3 ff ff 17 	b	0x100004ca0 <__ZN72_$LT$ostep..util..args..Config$u20$as$u20$ostep..util..args..ArgsMap$GT$5parse17h9a0da0eb76102b43E+0x1c4>
100004d18: 18 03 08 8b 	add	x24, x24, x8
100004d1c: 9f 05 00 b1 	cmn	x12, #1
100004d20: 00 fc ff 54 	b.eq	0x100004ca0 <__ZN72_$LT$ostep..util..args..Config$u20$as$u20$ostep..util..args..ArgsMap$GT$5parse17h9a0da0eb76102b43E+0x1c4>
100004d24: 00 00 80 d2 	mov	x0, #0
100004d28: dd ff ff 17 	b	0x100004c9c <__ZN72_$LT$ostep..util..args..Config$u20$as$u20$ostep..util..args..ArgsMap$GT$5parse17h9a0da0eb76102b43E+0x1c0>
100004d2c: 9f 05 00 b1 	cmn	x12, #1
100004d30: e4 03 83 9a 	csel	x4, xzr, x3, eq
100004d34: 45 01 18 8b 	add	x5, x10, x24
100004d38: e0 03 02 aa 	mov	x0, x2
100004d3c: 06 04 00 91 	add	x6, x0, #1
100004d40: 9f 00 06 eb 	cmp	x4, x6
100004d44: 82 0a 00 54 	b.hs	0x100004e94 <__ZN72_$LT$ostep..util..args..Config$u20$as$u20$ostep..util..args..ArgsMap$GT$5parse17h9a0da0eb76102b43E+0x3b8>
100004d48: 1f 00 08 eb 	cmp	x0, x8
100004d4c: 42 1b 00 54 	b.hs	0x1000050b4 <__ZN72_$LT$ostep..util..args..Config$u20$as$u20$ostep..util..args..ArgsMap$GT$5parse17h9a0da0eb76102b43E+0x5d8>
100004d50: 06 03 00 8b 	add	x6, x24, x0
100004d54: df 00 01 eb 	cmp	x6, x1
100004d58: a2 1b 00 54 	b.hs	0x1000050cc <__ZN72_$LT$ostep..util..args..Config$u20$as$u20$ostep..util..args..ArgsMap$GT$5parse17h9a0da0eb76102b43E+0x5f0>
100004d5c: 66 69 60 38 	ldrb	w6, [x11, x0]
100004d60: a7 68 60 38 	ldrb	w7, [x5, x0]
100004d64: 00 04 00 d1 	sub	x0, x0, #1
100004d68: df 00 07 6b 	cmp	w6, w7
100004d6c: 80 fe ff 54 	b.eq	0x100004d3c <__ZN72_$LT$ostep..util..args..Config$u20$as$u20$ostep..util..args..ArgsMap$GT$5parse17h9a0da0eb76102b43E+0x260>
100004d70: 18 03 0f 8b 	add	x24, x24, x15
100004d74: e0 03 10 aa 	mov	x0, x16
100004d78: 9f 05 00 b1 	cmn	x12, #1
100004d7c: 01 f9 ff 54 	b.ne	0x100004c9c <__ZN72_$LT$ostep..util..args..Config$u20$as$u20$ostep..util..args..ArgsMap$GT$5parse17h9a0da0eb76102b43E+0x1c0>
100004d80: c8 ff ff 17 	b	0x100004ca0 <__ZN72_$LT$ostep..util..args..Config$u20$as$u20$ostep..util..args..ArgsMap$GT$5parse17h9a0da0eb76102b43E+0x1c4>
100004d84: 38 00 80 52 	mov	w24, #1
100004d88: e0 03 18 aa 	mov	x0, x24
100004d8c: e1 03 17 aa 	mov	x1, x23
100004d90: e2 03 15 aa 	mov	x2, x21
100004d94: 4e c3 00 94 	bl	0x100035acc <_writev+0x100035acc>
100004d98: e1 43 40 f9 	ldr	x1, [sp, #128]
100004d9c: a1 f3 ff b5 	cbnz	x1, 0x100004c10 <__ZN72_$LT$ostep..util..args..Config$u20$as$u20$ostep..util..args..ArgsMap$GT$5parse17h9a0da0eb76102b43E+0x134>
100004da0: a0 ff ff 17 	b	0x100004c20 <__ZN72_$LT$ostep..util..args..Config$u20$as$u20$ostep..util..args..ArgsMap$GT$5parse17h9a0da0eb76102b43E+0x144>
100004da4: a8 a3 56 38 	ldurb	w8, [x29, #-150]
100004da8: 28 0e 00 35 	cbnz	w8, 0x100004f6c <__ZN72_$LT$ostep..util..args..Config$u20$as$u20$ostep..util..args..ArgsMap$GT$5parse17h9a0da0eb76102b43E+0x490>
100004dac: a0 63 73 a9 	ldp	x0, x24, [x29, #-208]
100004db0: ba 83 55 f8 	ldur	x26, [x29, #-168]
100004db4: a8 83 56 38 	ldurb	w8, [x29, #-152]
100004db8: 04 00 00 14 	b	0x100004dc8 <__ZN72_$LT$ostep..util..args..Config$u20$as$u20$ostep..util..args..ArgsMap$GT$5parse17h9a0da0eb76102b43E+0x2ec>
100004dbc: 28 00 80 52 	mov	w8, #1
100004dc0: 1a 01 1a 8b 	add	x26, x8, x26
100004dc4: 28 00 80 52 	mov	w8, #1
100004dc8: 1a 01 00 b4 	cbz	x26, 0x100004de8 <__ZN72_$LT$ostep..util..args..Config$u20$as$u20$ostep..util..args..ArgsMap$GT$5parse17h9a0da0eb76102b43E+0x30c>
100004dcc: 1f 03 1a eb 	cmp	x24, x26
100004dd0: a9 00 00 54 	b.ls	0x100004de4 <__ZN72_$LT$ostep..util..args..Config$u20$as$u20$ostep..util..args..ArgsMap$GT$5parse17h9a0da0eb76102b43E+0x308>
100004dd4: 09 68 fa 38 	ldrsb	w9, [x0, x26]
100004dd8: 3f 01 01 31 	cmn	w9, #64
100004ddc: 6a 00 00 54 	b.ge	0x100004de8 <__ZN72_$LT$ostep..util..args..Config$u20$as$u20$ostep..util..args..ArgsMap$GT$5parse17h9a0da0eb76102b43E+0x30c>
100004de0: c2 00 00 14 	b	0x1000050e8 <__ZN72_$LT$ostep..util..args..Config$u20$as$u20$ostep..util..args..ArgsMap$GT$5parse17h9a0da0eb76102b43E+0x60c>
100004de4: 21 18 00 54 	b.ne	0x1000050e8 <__ZN72_$LT$ostep..util..args..Config$u20$as$u20$ostep..util..args..ArgsMap$GT$5parse17h9a0da0eb76102b43E+0x60c>
100004de8: 5f 03 18 eb 	cmp	x26, x24
100004dec: c0 0b 00 54 	b.eq	0x100004f64 <__ZN72_$LT$ostep..util..args..Config$u20$as$u20$ostep..util..args..ArgsMap$GT$5parse17h9a0da0eb76102b43E+0x488>
100004df0: 0b 00 1a 8b 	add	x11, x0, x26
100004df4: 69 01 c0 39 	ldrsb	w9, [x11]
100004df8: 2c 1d 00 12 	and	w12, w9, #0xff
100004dfc: 89 00 f8 37 	tbnz	w9, #31, 0x100004e0c <__ZN72_$LT$ostep..util..args..Config$u20$as$u20$ostep..util..args..ArgsMap$GT$5parse17h9a0da0eb76102b43E+0x330>
100004e00: e9 03 0c aa 	mov	x9, x12
100004e04: 08 03 00 34 	cbz	w8, 0x100004e64 <__ZN72_$LT$ostep..util..args..Config$u20$as$u20$ostep..util..args..ArgsMap$GT$5parse17h9a0da0eb76102b43E+0x388>
100004e08: 66 00 00 14 	b	0x100004fa0 <__ZN72_$LT$ostep..util..args..Config$u20$as$u20$ostep..util..args..ArgsMap$GT$5parse17h9a0da0eb76102b43E+0x4c4>
100004e0c: 8a 11 00 12 	and	w10, w12, #0x1f
100004e10: 69 05 40 39 	ldrb	w9, [x11, #1]
100004e14: 29 15 00 12 	and	w9, w9, #0x3f
100004e18: 9f 81 03 71 	cmp	w12, #224
100004e1c: 83 01 00 54 	b.lo	0x100004e4c <__ZN72_$LT$ostep..util..args..Config$u20$as$u20$ostep..util..args..ArgsMap$GT$5parse17h9a0da0eb76102b43E+0x370>
100004e20: 6d 09 40 39 	ldrb	w13, [x11, #2]
100004e24: ad 15 00 12 	and	w13, w13, #0x3f
100004e28: 2d 15 1a 33 	bfi	w13, w9, #6, #6
100004e2c: 9f c1 03 71 	cmp	w12, #240
100004e30: 43 01 00 54 	b.lo	0x100004e58 <__ZN72_$LT$ostep..util..args..Config$u20$as$u20$ostep..util..args..ArgsMap$GT$5parse17h9a0da0eb76102b43E+0x37c>
100004e34: 69 0d 40 39 	ldrb	w9, [x11, #3]
100004e38: 29 15 00 12 	and	w9, w9, #0x3f
100004e3c: a9 2d 1a 33 	bfi	w9, w13, #6, #12
100004e40: 49 09 0e 33 	bfi	w9, w10, #18, #3
100004e44: 08 01 00 34 	cbz	w8, 0x100004e64 <__ZN72_$LT$ostep..util..args..Config$u20$as$u20$ostep..util..args..ArgsMap$GT$5parse17h9a0da0eb76102b43E+0x388>
100004e48: 56 00 00 14 	b	0x100004fa0 <__ZN72_$LT$ostep..util..args..Config$u20$as$u20$ostep..util..args..ArgsMap$GT$5parse17h9a0da0eb76102b43E+0x4c4>
100004e4c: 49 11 1a 33 	bfi	w9, w10, #6, #5
100004e50: a8 00 00 34 	cbz	w8, 0x100004e64 <__ZN72_$LT$ostep..util..args..Config$u20$as$u20$ostep..util..args..ArgsMap$GT$5parse17h9a0da0eb76102b43E+0x388>
100004e54: 53 00 00 14 	b	0x100004fa0 <__ZN72_$LT$ostep..util..args..Config$u20$as$u20$ostep..util..args..ArgsMap$GT$5parse17h9a0da0eb76102b43E+0x4c4>
100004e58: 4d 11 14 33 	bfi	w13, w10, #12, #5
100004e5c: e9 03 0d aa 	mov	x9, x13
100004e60: 08 0a 00 35 	cbnz	w8, 0x100004fa0 <__ZN72_$LT$ostep..util..args..Config$u20$as$u20$ostep..util..args..ArgsMap$GT$5parse17h9a0da0eb76102b43E+0x4c4>
100004e64: 3f 41 44 71 	cmp	w9, #272, lsl #12       ; =1114112
100004e68: 20 08 00 54 	b.eq	0x100004f6c <__ZN72_$LT$ostep..util..args..Config$u20$as$u20$ostep..util..args..ArgsMap$GT$5parse17h9a0da0eb76102b43E+0x490>
100004e6c: 3f 01 02 71 	cmp	w9, #128
100004e70: 63 fa ff 54 	b.lo	0x100004dbc <__ZN72_$LT$ostep..util..args..Config$u20$as$u20$ostep..util..args..ArgsMap$GT$5parse17h9a0da0eb76102b43E+0x2e0>
100004e74: 3f 01 20 71 	cmp	w9, #2048
100004e78: 62 00 00 54 	b.hs	0x100004e84 <__ZN72_$LT$ostep..util..args..Config$u20$as$u20$ostep..util..args..ArgsMap$GT$5parse17h9a0da0eb76102b43E+0x3a8>
100004e7c: 48 00 80 52 	mov	w8, #2
100004e80: d0 ff ff 17 	b	0x100004dc0 <__ZN72_$LT$ostep..util..args..Config$u20$as$u20$ostep..util..args..ArgsMap$GT$5parse17h9a0da0eb76102b43E+0x2e4>
100004e84: 3f 41 40 71 	cmp	w9, #16, lsl #12        ; =65536
100004e88: 68 00 80 52 	mov	w8, #3
100004e8c: 08 35 88 9a 	cinc	x8, x8, hs
100004e90: cc ff ff 17 	b	0x100004dc0 <__ZN72_$LT$ostep..util..args..Config$u20$as$u20$ostep..util..args..ArgsMap$GT$5parse17h9a0da0eb76102b43E+0x2e4>
100004e94: 1a 03 08 8b 	add	x26, x24, x8
100004e98: 3b 03 1a eb 	subs	x27, x25, x26
100004e9c: 98 06 00 b4 	cbz	x24, 0x100004f6c <__ZN72_$LT$ostep..util..args..Config$u20$as$u20$ostep..util..args..ArgsMap$GT$5parse17h9a0da0eb76102b43E+0x490>
100004ea0: b7 02 1a 8b 	add	x23, x21, x26
100004ea4: e1 00 00 54 	b.ne	0x100004ec0 <__ZN72_$LT$ostep..util..args..Config$u20$as$u20$ostep..util..args..ArgsMap$GT$5parse17h9a0da0eb76102b43E+0x3e4>
100004ea8: e0 03 17 aa 	mov	x0, x23
100004eac: 21 71 18 30 	adr	x1, #200229
100004eb0: 1f 20 03 d5 	nop
100004eb4: e2 03 1b aa 	mov	x2, x27
100004eb8: 02 c3 00 94 	bl	0x100035ac0 <_writev+0x100035ac0>
100004ebc: 80 05 00 34 	cbz	w0, 0x100004f6c <__ZN72_$LT$ostep..util..args..Config$u20$as$u20$ostep..util..args..ArgsMap$GT$5parse17h9a0da0eb76102b43E+0x490>
100004ec0: 78 13 f8 b7 	tbnz	x24, #63, 0x10000512c <__ZN72_$LT$ostep..util..args..Config$u20$as$u20$ostep..util..args..ArgsMap$GT$5parse17h9a0da0eb76102b43E+0x650>
100004ec4: e0 03 18 aa 	mov	x0, x24
100004ec8: 21 00 80 52 	mov	w1, #1
100004ecc: 1e 02 00 94 	bl	0x100005744 <___rust_alloc>
100004ed0: 60 12 00 b4 	cbz	x0, 0x10000511c <__ZN72_$LT$ostep..util..args..Config$u20$as$u20$ostep..util..args..ArgsMap$GT$5parse17h9a0da0eb76102b43E+0x640>
100004ed4: fc 03 00 aa 	mov	x28, x0
100004ed8: e1 03 15 aa 	mov	x1, x21
100004edc: e2 03 18 aa 	mov	x2, x24
100004ee0: fb c2 00 94 	bl	0x100035acc <_writev+0x100035acc>
100004ee4: 3f 03 1a eb 	cmp	x25, x26
100004ee8: 61 00 00 54 	b.ne	0x100004ef4 <__ZN72_$LT$ostep..util..args..Config$u20$as$u20$ostep..util..args..ArgsMap$GT$5parse17h9a0da0eb76102b43E+0x418>
100004eec: 39 00 80 52 	mov	w25, #1
100004ef0: 07 00 00 14 	b	0x100004f0c <__ZN72_$LT$ostep..util..args..Config$u20$as$u20$ostep..util..args..ArgsMap$GT$5parse17h9a0da0eb76102b43E+0x430>
100004ef4: 1b 12 f8 b7 	tbnz	x27, #63, 0x100005134 <__ZN72_$LT$ostep..util..args..Config$u20$as$u20$ostep..util..args..ArgsMap$GT$5parse17h9a0da0eb76102b43E+0x658>
100004ef8: e0 03 1b aa 	mov	x0, x27
100004efc: 21 00 80 52 	mov	w1, #1
100004f00: 11 02 00 94 	bl	0x100005744 <___rust_alloc>
100004f04: f9 03 00 aa 	mov	x25, x0
100004f08: a0 11 00 b4 	cbz	x0, 0x10000513c <__ZN72_$LT$ostep..util..args..Config$u20$as$u20$ostep..util..args..ArgsMap$GT$5parse17h9a0da0eb76102b43E+0x660>
100004f0c: e0 03 19 aa 	mov	x0, x25
100004f10: e1 03 17 aa 	mov	x1, x23
100004f14: e2 03 1b aa 	mov	x2, x27
100004f18: ed c2 00 94 	bl	0x100035acc <_writev+0x100035acc>
100004f1c: f8 f3 0c a9 	stp	x24, x28, [sp, #200]
100004f20: f8 6f 00 f9 	str	x24, [sp, #216]
100004f24: bb 67 33 a9 	stp	x27, x25, [x29, #-208]
100004f28: bb 03 14 f8 	stur	x27, [x29, #-192]
100004f2c: e8 c3 02 91 	add	x8, sp, #176
100004f30: e0 c3 00 91 	add	x0, sp, #48
100004f34: e1 23 03 91 	add	x1, sp, #200
100004f38: a2 43 03 d1 	sub	x2, x29, #208
100004f3c: bc 00 00 94 	bl	0x10000522c <__ZN9hashbrown3map28HashMap$LT$K$C$V$C$S$C$A$GT$6insert17hf5a5ccb4385910fbE>
100004f40: e0 5f 40 f9 	ldr	x0, [sp, #184]
100004f44: 3c 00 80 52 	mov	w28, #1
100004f48: 20 01 00 b4 	cbz	x0, 0x100004f6c <__ZN72_$LT$ostep..util..args..Config$u20$as$u20$ostep..util..args..ArgsMap$GT$5parse17h9a0da0eb76102b43E+0x490>
100004f4c: e1 5b 40 f9 	ldr	x1, [sp, #176]
100004f50: e1 00 00 b4 	cbz	x1, 0x100004f6c <__ZN72_$LT$ostep..util..args..Config$u20$as$u20$ostep..util..args..ArgsMap$GT$5parse17h9a0da0eb76102b43E+0x490>
100004f54: e8 03 21 aa 	mvn	x8, x1
100004f58: 02 fd 7f d3 	lsr	x2, x8, #63
100004f5c: fb 01 00 94 	bl	0x100005748 <___rust_dealloc>
100004f60: 03 00 00 14 	b	0x100004f6c <__ZN72_$LT$ostep..util..args..Config$u20$as$u20$ostep..util..args..ArgsMap$GT$5parse17h9a0da0eb76102b43E+0x490>
100004f64: fa 03 18 aa 	mov	x26, x24
100004f68: 88 f9 ff 35 	cbnz	w8, 0x100004e98 <__ZN72_$LT$ostep..util..args..Config$u20$as$u20$ostep..util..args..ArgsMap$GT$5parse17h9a0da0eb76102b43E+0x3bc>
100004f6c: e1 4f 40 f9 	ldr	x1, [sp, #152]
100004f70: a1 00 00 b4 	cbz	x1, 0x100004f84 <__ZN72_$LT$ostep..util..args..Config$u20$as$u20$ostep..util..args..ArgsMap$GT$5parse17h9a0da0eb76102b43E+0x4a8>
100004f74: e8 03 21 aa 	mvn	x8, x1
100004f78: 02 fd 7f d3 	lsr	x2, x8, #63
100004f7c: e0 03 15 aa 	mov	x0, x21
100004f80: f2 01 00 94 	bl	0x100005748 <___rust_dealloc>
100004f84: e1 43 40 f9 	ldr	x1, [sp, #128]
100004f88: e1 e0 ff b4 	cbz	x1, 0x100004ba4 <__ZN72_$LT$ostep..util..args..Config$u20$as$u20$ostep..util..args..ArgsMap$GT$5parse17h9a0da0eb76102b43E+0xc8>
100004f8c: e0 47 40 f9 	ldr	x0, [sp, #136]
100004f90: e8 03 21 aa 	mvn	x8, x1
100004f94: 02 fd 7f d3 	lsr	x2, x8, #63
100004f98: ec 01 00 94 	bl	0x100005748 <___rust_dealloc>
100004f9c: 02 ff ff 17 	b	0x100004ba4 <__ZN72_$LT$ostep..util..args..Config$u20$as$u20$ostep..util..args..ArgsMap$GT$5parse17h9a0da0eb76102b43E+0xc8>
100004fa0: f8 03 1a aa 	mov	x24, x26
100004fa4: bd ff ff 17 	b	0x100004e98 <__ZN72_$LT$ostep..util..args..Config$u20$as$u20$ostep..util..args..ArgsMap$GT$5parse17h9a0da0eb76102b43E+0x3bc>
100004fa8: 88 02 13 eb 	subs	x8, x20, x19
100004fac: 60 02 00 54 	b.eq	0x100004ff8 <__ZN72_$LT$ostep..util..args..Config$u20$as$u20$ostep..util..args..ArgsMap$GT$5parse17h9a0da0eb76102b43E+0x51c>
100004fb0: e9 f3 01 b2 	mov	x9, #-6148914691236517206
100004fb4: 69 55 95 f2 	movk	x9, #43691
100004fb8: 08 7d c9 9b 	umulh	x8, x8, x9
100004fbc: 08 fd 44 d3 	lsr	x8, x8, #4
100004fc0: 73 22 00 91 	add	x19, x19, #8
100004fc4: 08 05 08 8b 	add	x8, x8, x8, lsl #1
100004fc8: 14 f1 7d d3 	lsl	x20, x8, #3
100004fcc: 04 00 00 14 	b	0x100004fdc <__ZN72_$LT$ostep..util..args..Config$u20$as$u20$ostep..util..args..ArgsMap$GT$5parse17h9a0da0eb76102b43E+0x500>
100004fd0: 73 62 00 91 	add	x19, x19, #24
100004fd4: 94 62 00 f1 	subs	x20, x20, #24
100004fd8: 00 01 00 54 	b.eq	0x100004ff8 <__ZN72_$LT$ostep..util..args..Config$u20$as$u20$ostep..util..args..ArgsMap$GT$5parse17h9a0da0eb76102b43E+0x51c>
100004fdc: 61 82 5f f8 	ldur	x1, [x19, #-8]
100004fe0: 81 ff ff b4 	cbz	x1, 0x100004fd0 <__ZN72_$LT$ostep..util..args..Config$u20$as$u20$ostep..util..args..ArgsMap$GT$5parse17h9a0da0eb76102b43E+0x4f4>
100004fe4: 60 02 40 f9 	ldr	x0, [x19]
100004fe8: e8 03 21 aa 	mvn	x8, x1
100004fec: 02 fd 7f d3 	lsr	x2, x8, #63
100004ff0: d6 01 00 94 	bl	0x100005748 <___rust_dealloc>
100004ff4: f7 ff ff 17 	b	0x100004fd0 <__ZN72_$LT$ostep..util..args..Config$u20$as$u20$ostep..util..args..ArgsMap$GT$5parse17h9a0da0eb76102b43E+0x4f4>
100004ff8: e8 07 40 f9 	ldr	x8, [sp, #8]
100004ffc: c8 00 00 b4 	cbz	x8, 0x100005014 <__ZN72_$LT$ostep..util..args..Config$u20$as$u20$ostep..util..args..ArgsMap$GT$5parse17h9a0da0eb76102b43E+0x538>
100005000: 08 05 08 8b 	add	x8, x8, x8, lsl #1
100005004: 01 f1 7d d3 	lsl	x1, x8, #3
100005008: e0 03 40 f9 	ldr	x0, [sp]
10000500c: 02 01 80 52 	mov	w2, #8
100005010: ce 01 00 94 	bl	0x100005748 <___rust_dealloc>
100005014: e0 87 41 ad 	ldp	q0, q1, [sp, #48]
100005018: e8 0b 40 f9 	ldr	x8, [sp, #16]
10000501c: 00 05 00 ad 	stp	q0, q1, [x8]
100005020: e0 17 c0 3d 	ldr	q0, [sp, #80]
100005024: 00 09 80 3d 	str	q0, [x8, #32]
100005028: 13 00 00 14 	b	0x100005074 <__ZN72_$LT$ostep..util..args..Config$u20$as$u20$ostep..util..args..ArgsMap$GT$5parse17h9a0da0eb76102b43E+0x598>
10000502c: e0 87 41 ad 	ldp	q0, q1, [sp, #48]
100005030: 80 06 00 ad 	stp	q0, q1, [x20]
100005034: e0 17 c0 3d 	ldr	q0, [sp, #80]
100005038: 80 0a 80 3d 	str	q0, [x20, #32]
10000503c: e8 0f 40 f9 	ldr	x8, [sp, #24]
100005040: a8 01 00 b4 	cbz	x8, 0x100005074 <__ZN72_$LT$ostep..util..args..Config$u20$as$u20$ostep..util..args..ArgsMap$GT$5parse17h9a0da0eb76102b43E+0x598>
100005044: e0 13 40 f9 	ldr	x0, [sp, #32]
100005048: 08 05 08 8b 	add	x8, x8, x8, lsl #1
10000504c: 01 f1 7d d3 	lsl	x1, x8, #3
100005050: 02 01 80 52 	mov	w2, #8
100005054: fd 7b 5b a9 	ldp	x29, x30, [sp, #432]
100005058: f4 4f 5a a9 	ldp	x20, x19, [sp, #416]
10000505c: f6 57 59 a9 	ldp	x22, x21, [sp, #400]
100005060: f8 5f 58 a9 	ldp	x24, x23, [sp, #384]
100005064: fa 67 57 a9 	ldp	x26, x25, [sp, #368]
100005068: fc 6f 56 a9 	ldp	x28, x27, [sp, #352]
10000506c: ff 03 07 91 	add	sp, sp, #448
100005070: b6 01 00 14 	b	0x100005748 <___rust_dealloc>
100005074: fd 7b 5b a9 	ldp	x29, x30, [sp, #432]
100005078: f4 4f 5a a9 	ldp	x20, x19, [sp, #416]
10000507c: f6 57 59 a9 	ldp	x22, x21, [sp, #400]
100005080: f8 5f 58 a9 	ldp	x24, x23, [sp, #384]
100005084: fa 67 57 a9 	ldp	x26, x25, [sp, #368]
100005088: fc 6f 56 a9 	ldp	x28, x27, [sp, #352]
10000508c: ff 03 07 91 	add	sp, sp, #448
100005090: c0 03 5f d6 	ret
100005094: a3 83 18 f8 	stur	x3, [x29, #-120]
100005098: b8 83 17 f8 	stur	x24, [x29, #-136]
10000509c: 08 00 18 8b 	add	x8, x0, x24
1000050a0: 3f 00 08 eb 	cmp	x1, x8
1000050a4: 20 80 88 9a 	csel	x0, x1, x8, hi
1000050a8: 42 8e 1f 10 	adr	x2, #258504
1000050ac: 1f 20 03 d5 	nop
1000050b0: 0c 00 00 14 	b	0x1000050e0 <__ZN72_$LT$ostep..util..args..Config$u20$as$u20$ostep..util..args..ArgsMap$GT$5parse17h9a0da0eb76102b43E+0x604>
1000050b4: a3 83 18 f8 	stur	x3, [x29, #-120]
1000050b8: b8 83 17 f8 	stur	x24, [x29, #-136]
1000050bc: 62 8e 1f 10 	adr	x2, #258508
1000050c0: 1f 20 03 d5 	nop
1000050c4: e1 03 08 aa 	mov	x1, x8
1000050c8: 06 00 00 14 	b	0x1000050e0 <__ZN72_$LT$ostep..util..args..Config$u20$as$u20$ostep..util..args..ArgsMap$GT$5parse17h9a0da0eb76102b43E+0x604>
1000050cc: a3 83 18 f8 	stur	x3, [x29, #-120]
1000050d0: b8 83 17 f8 	stur	x24, [x29, #-136]
1000050d4: 62 8e 1f 10 	adr	x2, #258508
1000050d8: 1f 20 03 d5 	nop
1000050dc: e0 03 06 aa 	mov	x0, x6
1000050e0: 76 c1 00 94 	bl	0x1000356b8 <__ZN4core9panicking18panic_bounds_check17h1da87a8a2503e657E>
1000050e4: 19 00 00 14 	b	0x100005148 <__ZN72_$LT$ostep..util..args..Config$u20$as$u20$ostep..util..args..ArgsMap$GT$5parse17h9a0da0eb76102b43E+0x66c>
1000050e8: 84 8e 1f 10 	adr	x4, #258512
1000050ec: 1f 20 03 d5 	nop
1000050f0: e1 03 18 aa 	mov	x1, x24
1000050f4: e2 03 1a aa 	mov	x2, x26
1000050f8: e3 03 18 aa 	mov	x3, x24
1000050fc: 05 c2 00 94 	bl	0x100035910 <__ZN4core3str16slice_error_fail17h3c3209c829734ad8E>
100005100: 12 00 00 14 	b	0x100005148 <__ZN72_$LT$ostep..util..args..Config$u20$as$u20$ostep..util..args..ArgsMap$GT$5parse17h9a0da0eb76102b43E+0x66c>
100005104: 05 9e 00 94 	bl	0x10002c918 <__ZN5alloc7raw_vec17capacity_overflow17h45560cdc8c994c33E>
100005108: 10 00 00 14 	b	0x100005148 <__ZN72_$LT$ostep..util..args..Config$u20$as$u20$ostep..util..args..ArgsMap$GT$5parse17h9a0da0eb76102b43E+0x66c>
10000510c: e0 03 15 aa 	mov	x0, x21
100005110: 21 00 80 52 	mov	w1, #1
100005114: 2b c1 00 94 	bl	0x1000355c0 <__ZN5alloc5alloc18handle_alloc_error17h1d9de7391f28bb67E>
100005118: 0c 00 00 14 	b	0x100005148 <__ZN72_$LT$ostep..util..args..Config$u20$as$u20$ostep..util..args..ArgsMap$GT$5parse17h9a0da0eb76102b43E+0x66c>
10000511c: e0 03 18 aa 	mov	x0, x24
100005120: 21 00 80 52 	mov	w1, #1
100005124: 27 c1 00 94 	bl	0x1000355c0 <__ZN5alloc5alloc18handle_alloc_error17h1d9de7391f28bb67E>
100005128: 08 00 00 14 	b	0x100005148 <__ZN72_$LT$ostep..util..args..Config$u20$as$u20$ostep..util..args..ArgsMap$GT$5parse17h9a0da0eb76102b43E+0x66c>
10000512c: fb 9d 00 94 	bl	0x10002c918 <__ZN5alloc7raw_vec17capacity_overflow17h45560cdc8c994c33E>
100005130: 06 00 00 14 	b	0x100005148 <__ZN72_$LT$ostep..util..args..Config$u20$as$u20$ostep..util..args..ArgsMap$GT$5parse17h9a0da0eb76102b43E+0x66c>
100005134: f9 9d 00 94 	bl	0x10002c918 <__ZN5alloc7raw_vec17capacity_overflow17h45560cdc8c994c33E>
100005138: 04 00 00 14 	b	0x100005148 <__ZN72_$LT$ostep..util..args..Config$u20$as$u20$ostep..util..args..ArgsMap$GT$5parse17h9a0da0eb76102b43E+0x66c>
10000513c: e0 03 1b aa 	mov	x0, x27
100005140: 21 00 80 52 	mov	w1, #1
100005144: 1f c1 00 94 	bl	0x1000355c0 <__ZN5alloc5alloc18handle_alloc_error17h1d9de7391f28bb67E>
100005148: 20 00 20 d4 	brk	#0x1
10000514c: f3 03 00 aa 	mov	x19, x0
100005150: e0 63 00 91 	add	x0, sp, #24
100005154: 16 fe ff 97 	bl	0x1000049ac <__ZN4core3ptr65drop_in_place$LT$alloc..vec..Vec$LT$alloc..string..String$GT$$GT$17h78e16a1cf82394e8E>
100005158: 16 00 00 14 	b	0x1000051b0 <__ZN72_$LT$ostep..util..args..Config$u20$as$u20$ostep..util..args..ArgsMap$GT$5parse17h9a0da0eb76102b43E+0x6d4>
10000515c: 0b 00 00 14 	b	0x100005188 <__ZN72_$LT$ostep..util..args..Config$u20$as$u20$ostep..util..args..ArgsMap$GT$5parse17h9a0da0eb76102b43E+0x6ac>
100005160: f3 03 00 aa 	mov	x19, x0
100005164: e0 03 18 aa 	mov	x0, x24
100005168: e1 03 1c aa 	mov	x1, x28
10000516c: 08 fe ff 97 	bl	0x10000498c <__ZN4core3ptr42drop_in_place$LT$alloc..string..String$GT$17he13402f8f6cdd3bfE>
100005170: 07 00 00 14 	b	0x10000518c <__ZN72_$LT$ostep..util..args..Config$u20$as$u20$ostep..util..args..ArgsMap$GT$5parse17h9a0da0eb76102b43E+0x6b0>
100005174: 05 00 00 14 	b	0x100005188 <__ZN72_$LT$ostep..util..args..Config$u20$as$u20$ostep..util..args..ArgsMap$GT$5parse17h9a0da0eb76102b43E+0x6ac>
100005178: 04 00 00 14 	b	0x100005188 <__ZN72_$LT$ostep..util..args..Config$u20$as$u20$ostep..util..args..ArgsMap$GT$5parse17h9a0da0eb76102b43E+0x6ac>
10000517c: 01 00 00 14 	b	0x100005180 <__ZN72_$LT$ostep..util..args..Config$u20$as$u20$ostep..util..args..ArgsMap$GT$5parse17h9a0da0eb76102b43E+0x6a4>
100005180: f3 03 00 aa 	mov	x19, x0
100005184: 05 00 00 14 	b	0x100005198 <__ZN72_$LT$ostep..util..args..Config$u20$as$u20$ostep..util..args..ArgsMap$GT$5parse17h9a0da0eb76102b43E+0x6bc>
100005188: f3 03 00 aa 	mov	x19, x0
10000518c: e0 4f 40 f9 	ldr	x0, [sp, #152]
100005190: e1 03 15 aa 	mov	x1, x21
100005194: fe fd ff 97 	bl	0x10000498c <__ZN4core3ptr42drop_in_place$LT$alloc..string..String$GT$17he13402f8f6cdd3bfE>
100005198: e0 07 48 a9 	ldp	x0, x1, [sp, #128]
10000519c: fc fd ff 97 	bl	0x10000498c <__ZN4core3ptr42drop_in_place$LT$alloc..string..String$GT$17he13402f8f6cdd3bfE>
1000051a0: e0 83 01 91 	add	x0, sp, #96
1000051a4: 26 fe ff 97 	bl	0x100004a3c <__ZN4core3ptr81drop_in_place$LT$alloc..vec..into_iter..IntoIter$LT$alloc..string..String$GT$$GT$17h36a460253c56f817E>
1000051a8: e0 c3 00 91 	add	x0, sp, #48
1000051ac: f7 fd ff 97 	bl	0x100004988 <__ZN4core3ptr110drop_in_place$LT$std..collections..hash..map..HashMap$LT$alloc..string..String$C$alloc..string..String$GT$$GT$17h8fe18d2246451350E>
1000051b0: e0 03 13 aa 	mov	x0, x19
1000051b4: fb c1 00 94 	bl	0x1000359a0 <_writev+0x1000359a0>
1000051b8: 54 c1 00 94 	bl	0x100035708 <__ZN4core9panicking19panic_cannot_unwind17h0bac00b37026e68cE>

00000001000051bc <__ZN3std6thread5local4fast12Key$LT$T$GT$14try_initialize17h94fd35b31fcbd0efE>:
1000051bc: f4 4f be a9 	stp	x20, x19, [sp, #-32]!
1000051c0: fd 7b 01 a9 	stp	x29, x30, [sp, #16]
1000051c4: fd 43 00 91 	add	x29, sp, #16
1000051c8: f3 03 00 aa 	mov	x19, x0
1000051cc: e1 00 00 b4 	cbz	x1, 0x1000051e8 <__ZN3std6thread5local4fast12Key$LT$T$GT$14try_initialize17h94fd35b31fcbd0efE+0x2c>
1000051d0: e8 03 01 aa 	mov	x8, x1
1000051d4: 29 00 40 a9 	ldp	x9, x0, [x1]
1000051d8: 21 08 40 f9 	ldr	x1, [x1, #16]
1000051dc: 1f 01 00 f9 	str	xzr, [x8]
1000051e0: 3f 05 00 f1 	cmp	x9, #1
1000051e4: 40 00 00 54 	b.eq	0x1000051ec <__ZN3std6thread5local4fast12Key$LT$T$GT$14try_initialize17h94fd35b31fcbd0efE+0x30>
1000051e8: 29 68 00 94 	bl	0x10001f28c <__ZN3std3sys4unix4rand19hashmap_random_keys17hb78018511675ff89E>
1000051ec: 28 00 80 52 	mov	w8, #1
1000051f0: 68 02 00 f9 	str	x8, [x19]
1000051f4: e8 03 13 aa 	mov	x8, x19
1000051f8: 00 8d 00 f8 	str	x0, [x8, #8]!
1000051fc: 61 0a 00 f9 	str	x1, [x19, #16]
100005200: e0 03 08 aa 	mov	x0, x8
100005204: fd 7b 41 a9 	ldp	x29, x30, [sp, #16]
100005208: f4 4f c2 a8 	ldp	x20, x19, [sp], #32
10000520c: c0 03 5f d6 	ret

0000000100005210 <__ZN4core3ptr42drop_in_place$LT$alloc..string..String$GT$17he13402f8f6cdd3bfE>:
100005210: 01 00 40 f9 	ldr	x1, [x0]
100005214: a1 00 00 b4 	cbz	x1, 0x100005228 <__ZN4core3ptr42drop_in_place$LT$alloc..string..String$GT$17he13402f8f6cdd3bfE+0x18>
100005218: 00 04 40 f9 	ldr	x0, [x0, #8]
10000521c: e8 03 21 aa 	mvn	x8, x1
100005220: 02 fd 7f d3 	lsr	x2, x8, #63
100005224: 49 01 00 14 	b	0x100005748 <___rust_dealloc>
100005228: c0 03 5f d6 	ret

000000010000522c <__ZN9hashbrown3map28HashMap$LT$K$C$V$C$S$C$A$GT$6insert17hf5a5ccb4385910fbE>:
10000522c: ff 43 03 d1 	sub	sp, sp, #208
100005230: fc 6f 07 a9 	stp	x28, x27, [sp, #112]
100005234: fa 67 08 a9 	stp	x26, x25, [sp, #128]
100005238: f8 5f 09 a9 	stp	x24, x23, [sp, #144]
10000523c: f6 57 0a a9 	stp	x22, x21, [sp, #160]
100005240: f4 4f 0b a9 	stp	x20, x19, [sp, #176]
100005244: fd 7b 0c a9 	stp	x29, x30, [sp, #192]
100005248: fd 03 03 91 	add	x29, sp, #192
10000524c: f5 03 02 aa 	mov	x21, x2
100005250: f3 03 01 aa 	mov	x19, x1
100005254: f6 03 00 aa 	mov	x22, x0
100005258: f4 03 08 aa 	mov	x20, x8
10000525c: 17 80 00 91 	add	x23, x0, #32
100005260: e0 03 17 aa 	mov	x0, x23
100005264: 6c 00 00 94 	bl	0x100005414 <__ZN4core4hash11BuildHasher8hash_one17h02a2ee07b3a7cee0E>
100005268: f7 db 00 a9 	stp	x23, x22, [sp, #8]
10000526c: f5 d3 01 a9 	stp	x21, x20, [sp, #24]
100005270: 1c 00 80 d2 	mov	x28, #0
100005274: d7 02 40 f9 	ldr	x23, [x22]
100005278: ca 0e 40 f9 	ldr	x10, [x22, #24]
10000527c: 08 fc 79 d3 	lsr	x8, x0, #57
100005280: e9 c3 00 b2 	mov	x9, #72340172838076673
100005284: 08 7d 09 9b 	mul	x8, x8, x9
100005288: f3 a3 02 a9 	stp	x19, x8, [sp, #40]
10000528c: 79 ea 40 a9 	ldp	x25, x26, [x19, #8]
100005290: ea 1f 00 f9 	str	x10, [sp, #56]
100005294: 55 c1 00 d1 	sub	x21, x10, #48
100005298: 18 06 80 52 	mov	w24, #48
10000529c: e0 03 00 f9 	str	x0, [sp]
1000052a0: e8 03 00 aa 	mov	x8, x0
1000052a4: 16 01 17 8a 	and	x22, x8, x23
1000052a8: e8 1f 40 f9 	ldr	x8, [sp, #56]
1000052ac: 13 69 76 f8 	ldr	x19, [x8, x22]
1000052b0: e8 1b 40 f9 	ldr	x8, [sp, #48]
1000052b4: 68 02 08 ca 	eor	x8, x19, x8
1000052b8: e9 db 07 b2 	mov	x9, #-72340172838076674
1000052bc: e9 df 9f f2 	movk	x9, #65279
1000052c0: 09 01 09 8b 	add	x9, x8, x9
1000052c4: 28 01 28 8a 	bic	x8, x9, x8
1000052c8: 14 c1 01 f2 	ands	x20, x8, #0x8080808080808080
1000052cc: 41 01 00 54 	b.ne	0x1000052f4 <__ZN9hashbrown3map28HashMap$LT$K$C$V$C$S$C$A$GT$6insert17hf5a5ccb4385910fbE+0xc8>
1000052d0: 68 06 13 8a 	and	x8, x19, x19, lsl #1
1000052d4: 1f c1 01 f2 	tst	x8, #0x8080808080808080
1000052d8: 21 06 00 54 	b.ne	0x10000539c <__ZN9hashbrown3map28HashMap$LT$K$C$V$C$S$C$A$GT$6insert17hf5a5ccb4385910fbE+0x170>
1000052dc: 9c 23 00 91 	add	x28, x28, #8
1000052e0: c8 02 1c 8b 	add	x8, x22, x28
1000052e4: f0 ff ff 17 	b	0x1000052a4 <__ZN9hashbrown3map28HashMap$LT$K$C$V$C$S$C$A$GT$6insert17hf5a5ccb4385910fbE+0x78>
1000052e8: 88 06 00 d1 	sub	x8, x20, #1
1000052ec: 14 01 14 8a 	and	x20, x8, x20
1000052f0: 14 ff ff b4 	cbz	x20, 0x1000052d0 <__ZN9hashbrown3map28HashMap$LT$K$C$V$C$S$C$A$GT$6insert17hf5a5ccb4385910fbE+0xa4>
1000052f4: 88 02 c0 da 	rbit	x8, x20
1000052f8: 08 11 c0 da 	clz	x8, x8
1000052fc: c8 0e 48 8b 	add	x8, x22, x8, lsr #3
100005300: 1b 01 17 8a 	and	x27, x8, x23
100005304: 68 ff 18 9b 	mneg	x8, x27, x24
100005308: a8 02 08 8b 	add	x8, x21, x8
10000530c: 09 09 40 f9 	ldr	x9, [x8, #16]
100005310: 5f 03 09 eb 	cmp	x26, x9
100005314: a1 fe ff 54 	b.ne	0x1000052e8 <__ZN9hashbrown3map28HashMap$LT$K$C$V$C$S$C$A$GT$6insert17hf5a5ccb4385910fbE+0xbc>
100005318: 01 05 40 f9 	ldr	x1, [x8, #8]
10000531c: e0 03 19 aa 	mov	x0, x25
100005320: e2 03 1a aa 	mov	x2, x26
100005324: e7 c1 00 94 	bl	0x100035ac0 <_writev+0x100035ac0>
100005328: 00 fe ff 35 	cbnz	w0, 0x1000052e8 <__ZN9hashbrown3map28HashMap$LT$K$C$V$C$S$C$A$GT$6insert17hf5a5ccb4385910fbE+0xbc>
10000532c: e8 03 1b cb 	neg	x8, x27
100005330: 09 06 80 52 	mov	w9, #48
100005334: ea 1f 40 f9 	ldr	x10, [sp, #56]
100005338: 08 29 09 9b 	madd	x8, x8, x9, x10
10000533c: 00 81 de 3c 	ldur	q0, [x8, #-24]
100005340: ea 13 40 f9 	ldr	x10, [sp, #32]
100005344: 40 01 80 3d 	str	q0, [x10]
100005348: 09 81 5f f8 	ldur	x9, [x8, #-8]
10000534c: 49 09 00 f9 	str	x9, [x10, #16]
100005350: e9 0f 40 f9 	ldr	x9, [sp, #24]
100005354: 20 01 c0 3d 	ldr	q0, [x9]
100005358: 00 81 9e 3c 	stur	q0, [x8, #-24]
10000535c: 29 09 40 f9 	ldr	x9, [x9, #16]
100005360: 09 81 1f f8 	stur	x9, [x8, #-8]
100005364: e8 17 40 f9 	ldr	x8, [sp, #40]
100005368: 01 01 40 f9 	ldr	x1, [x8]
10000536c: 61 03 00 b4 	cbz	x1, 0x1000053d8 <__ZN9hashbrown3map28HashMap$LT$K$C$V$C$S$C$A$GT$6insert17hf5a5ccb4385910fbE+0x1ac>
100005370: 00 05 40 f9 	ldr	x0, [x8, #8]
100005374: e8 03 21 aa 	mvn	x8, x1
100005378: 02 fd 7f d3 	lsr	x2, x8, #63
10000537c: fd 7b 4c a9 	ldp	x29, x30, [sp, #192]
100005380: f4 4f 4b a9 	ldp	x20, x19, [sp, #176]
100005384: f6 57 4a a9 	ldp	x22, x21, [sp, #160]
100005388: f8 5f 49 a9 	ldp	x24, x23, [sp, #144]
10000538c: fa 67 48 a9 	ldp	x26, x25, [sp, #128]
100005390: fc 6f 47 a9 	ldp	x28, x27, [sp, #112]
100005394: ff 43 03 91 	add	sp, sp, #208
100005398: ec 00 00 14 	b	0x100005748 <___rust_dealloc>
10000539c: e8 17 40 f9 	ldr	x8, [sp, #40]
1000053a0: 00 01 c0 3d 	ldr	q0, [x8]
1000053a4: e0 13 80 3d 	str	q0, [sp, #64]
1000053a8: 08 09 40 f9 	ldr	x8, [x8, #16]
1000053ac: e8 2b 00 f9 	str	x8, [sp, #80]
1000053b0: e0 23 41 a9 	ldp	x0, x8, [sp, #16]
1000053b4: 00 01 c0 3d 	ldr	q0, [x8]
1000053b8: e0 83 85 3c 	stur	q0, [sp, #88]
1000053bc: 08 09 40 f9 	ldr	x8, [x8, #16]
1000053c0: e8 37 00 f9 	str	x8, [sp, #104]
1000053c4: e2 03 01 91 	add	x2, sp, #64
1000053c8: e1 0f 40 a9 	ldp	x1, x3, [sp]
1000053cc: fe fa ff 97 	bl	0x100003fc4 <__ZN9hashbrown3raw21RawTable$LT$T$C$A$GT$6insert17ha1710e861ac56ddbE>
1000053d0: e8 13 40 f9 	ldr	x8, [sp, #32]
1000053d4: 1f 05 00 f9 	str	xzr, [x8, #8]
1000053d8: fd 7b 4c a9 	ldp	x29, x30, [sp, #192]
1000053dc: f4 4f 4b a9 	ldp	x20, x19, [sp, #176]
1000053e0: f6 57 4a a9 	ldp	x22, x21, [sp, #160]
1000053e4: f8 5f 49 a9 	ldp	x24, x23, [sp, #144]
1000053e8: fa 67 48 a9 	ldp	x26, x25, [sp, #128]
1000053ec: fc 6f 47 a9 	ldp	x28, x27, [sp, #112]
1000053f0: ff 43 03 91 	add	sp, sp, #208
1000053f4: c0 03 5f d6 	ret
1000053f8: f4 03 00 aa 	mov	x20, x0
1000053fc: e0 03 15 aa 	mov	x0, x21
100005400: 84 ff ff 97 	bl	0x100005210 <__ZN4core3ptr42drop_in_place$LT$alloc..string..String$GT$17he13402f8f6cdd3bfE>
100005404: e0 03 13 aa 	mov	x0, x19
100005408: 82 ff ff 97 	bl	0x100005210 <__ZN4core3ptr42drop_in_place$LT$alloc..string..String$GT$17he13402f8f6cdd3bfE>
10000540c: e0 03 14 aa 	mov	x0, x20
100005410: 64 c1 00 94 	bl	0x1000359a0 <_writev+0x1000359a0>

0000000100005414 <__ZN4core4hash11BuildHasher8hash_one17h02a2ee07b3a7cee0E>:
100005414: ff 83 01 d1 	sub	sp, sp, #96
100005418: fd 7b 05 a9 	stp	x29, x30, [sp, #80]
10000541c: fd 43 01 91 	add	x29, sp, #80
100005420: ff 7f 03 a9 	stp	xzr, xzr, [sp, #48]
100005424: 00 00 c0 3d 	ldr	q0, [x0]
100005428: 01 04 18 4e 	dup.2d	v1, v0[1]
10000542c: 1f 20 03 d5 	nop
100005430: 82 45 18 9c 	ldr	q2, 0x100035ce0 <_anon.1f3d47ee37d7805743d16d88349f17b9.0+0x8>
100005434: 21 1c 22 6e 	eor.16b	v1, v1, v2
100005438: e1 83 00 ad 	stp	q1, q0, [sp, #16]
10000543c: 08 00 66 9e 	fmov	x8, d0
100005440: a9 ae 8c d2 	mov	x9, #25973
100005444: 69 0e ae f2 	movk	x9, #28787, lsl #16
100005448: a9 ac cd f2 	movk	x9, #28005, lsl #32
10000544c: e9 6d ee f2 	movk	x9, #29551, lsl #48
100005450: 09 01 09 ca 	eor	x9, x8, x9
100005454: 2a 4c 8e d2 	mov	x10, #29281
100005458: aa cc ad f2 	movk	x10, #28261, lsl #16
10000545c: aa ec cc f2 	movk	x10, #26469, lsl #32
100005460: 2a 8f ed f2 	movk	x10, #27769, lsl #48
100005464: 08 01 0a ca 	eor	x8, x8, x10
100005468: e9 23 00 a9 	stp	x9, x8, [sp]
10000546c: ff 23 00 f9 	str	xzr, [sp, #64]
100005470: 28 88 40 a9 	ldp	x8, x2, [x1, #8]
100005474: e0 03 00 91 	mov	x0, sp
100005478: e1 03 08 aa 	mov	x1, x8
10000547c: 37 00 00 94 	bl	0x100005558 <__ZN71_$LT$core..hash..sip..Hasher$LT$S$GT$$u20$as$u20$core..hash..Hasher$GT$5write17h11a3be3fdbc09f7dE>
100005480: e8 1f 80 52 	mov	w8, #255
100005484: a8 f3 1f 38 	sturb	w8, [x29, #-1]
100005488: e0 03 00 91 	mov	x0, sp
10000548c: a1 07 00 d1 	sub	x1, x29, #1
100005490: 22 00 80 52 	mov	w2, #1
100005494: 31 00 00 94 	bl	0x100005558 <__ZN71_$LT$core..hash..sip..Hasher$LT$S$GT$$u20$as$u20$core..hash..Hasher$GT$5write17h11a3be3fdbc09f7dE>
100005498: e8 27 40 a9 	ldp	x8, x9, [sp]
10000549c: ea 2f 41 a9 	ldp	x10, x11, [sp, #16]
1000054a0: ec 37 43 a9 	ldp	x12, x13, [sp, #48]
1000054a4: ac e1 0c aa 	orr	x12, x13, x12, lsl #56
1000054a8: 8b 01 0b ca 	eor	x11, x12, x11
1000054ac: 48 01 08 8b 	add	x8, x10, x8
1000054b0: 0a cd ca ca 	eor	x10, x8, x10, ror #51
1000054b4: 08 81 c8 93 	ror	x8, x8, #32
1000054b8: 69 01 09 8b 	add	x9, x11, x9
1000054bc: 2d 01 0a 8b 	add	x13, x9, x10
1000054c0: 29 c1 cb ca 	eor	x9, x9, x11, ror #48
1000054c4: 28 01 08 8b 	add	x8, x9, x8
1000054c8: 0b 01 0c ca 	eor	x11, x8, x12
1000054cc: 08 ad c9 ca 	eor	x8, x8, x9, ror #43
1000054d0: a9 bd ca ca 	eor	x9, x13, x10, ror #47
1000054d4: aa 81 cd 93 	ror	x10, x13, #32
1000054d8: 4a 1d 40 d2 	eor	x10, x10, #0xff
1000054dc: 6b 01 09 8b 	add	x11, x11, x9
1000054e0: 6c 81 cb 93 	ror	x12, x11, #32
1000054e4: 69 cd c9 ca 	eor	x9, x11, x9, ror #51
1000054e8: 0a 01 0a 8b 	add	x10, x8, x10
1000054ec: 2b 01 0a 8b 	add	x11, x9, x10
1000054f0: 48 c1 c8 ca 	eor	x8, x10, x8, ror #48
1000054f4: 69 bd c9 ca 	eor	x9, x11, x9, ror #47
1000054f8: 0a 01 0c 8b 	add	x10, x8, x12
1000054fc: 2c 01 0a 8b 	add	x12, x9, x10
100005500: 48 ad c8 ca 	eor	x8, x10, x8, ror #43
100005504: 6a 81 cb 93 	ror	x10, x11, #32
100005508: 8b 81 cc 93 	ror	x11, x12, #32
10000550c: 89 cd c9 ca 	eor	x9, x12, x9, ror #51
100005510: 0a 01 0a 8b 	add	x10, x8, x10
100005514: 2c 01 0a 8b 	add	x12, x9, x10
100005518: 48 c1 c8 ca 	eor	x8, x10, x8, ror #48
10000551c: 89 bd c9 ca 	eor	x9, x12, x9, ror #47
100005520: 0a 01 0b 8b 	add	x10, x8, x11
100005524: 2b 01 0a 8b 	add	x11, x9, x10
100005528: 48 ad c8 ca 	eor	x8, x10, x8, ror #43
10000552c: 8a 81 cc 93 	ror	x10, x12, #32
100005530: 69 cd c9 ca 	eor	x9, x11, x9, ror #51
100005534: 0a 01 0a 8b 	add	x10, x8, x10
100005538: 2b 01 0a 8b 	add	x11, x9, x10
10000553c: 48 c1 c8 ca 	eor	x8, x10, x8, ror #48
100005540: 68 ad c8 ca 	eor	x8, x11, x8, ror #43
100005544: 08 bd c9 ca 	eor	x8, x8, x9, ror #47
100005548: 00 81 cb ca 	eor	x0, x8, x11, ror #32
10000554c: fd 7b 45 a9 	ldp	x29, x30, [sp, #80]
100005550: ff 83 01 91 	add	sp, sp, #96
100005554: c0 03 5f d6 	ret

0000000100005558 <__ZN71_$LT$core..hash..sip..Hasher$LT$S$GT$$u20$as$u20$core..hash..Hasher$GT$5write17h11a3be3fdbc09f7dE>:
100005558: 08 18 40 f9 	ldr	x8, [x0, #48]
10000555c: 08 01 02 8b 	add	x8, x8, x2
100005560: 08 18 00 f9 	str	x8, [x0, #48]
100005564: 09 20 40 f9 	ldr	x9, [x0, #64]
100005568: a9 01 00 b4 	cbz	x9, 0x10000559c <__ZN71_$LT$core..hash..sip..Hasher$LT$S$GT$$u20$as$u20$core..hash..Hasher$GT$5write17h11a3be3fdbc09f7dE+0x44>
10000556c: 08 01 80 52 	mov	w8, #8
100005570: 08 01 09 cb 	sub	x8, x8, x9
100005574: 5f 00 08 eb 	cmp	x2, x8
100005578: 4b 30 88 9a 	csel	x11, x2, x8, lo
10000557c: 7f 0d 00 f1 	cmp	x11, #3
100005580: a9 02 00 54 	b.ls	0x1000055d4 <__ZN71_$LT$core..hash..sip..Hasher$LT$S$GT$$u20$as$u20$core..hash..Hasher$GT$5write17h11a3be3fdbc09f7dE+0x7c>
100005584: 2a 00 40 b9 	ldr	w10, [x1]
100005588: 8c 00 80 52 	mov	w12, #4
10000558c: 8d 01 40 b2 	orr	x13, x12, #0x1
100005590: bf 01 0b eb 	cmp	x13, x11
100005594: a3 02 00 54 	b.lo	0x1000055e8 <__ZN71_$LT$core..hash..sip..Hasher$LT$S$GT$$u20$as$u20$core..hash..Hasher$GT$5write17h11a3be3fdbc09f7dE+0x90>
100005598: 19 00 00 14 	b	0x1000055fc <__ZN71_$LT$core..hash..sip..Hasher$LT$S$GT$$u20$as$u20$core..hash..Hasher$GT$5write17h11a3be3fdbc09f7dE+0xa4>
10000559c: 08 00 80 d2 	mov	x8, #0
1000055a0: 4a 00 08 cb 	sub	x10, x2, x8
1000055a4: 49 09 40 92 	and	x9, x10, #0x7
1000055a8: 4a f1 7d 92 	and	x10, x10, #0xfffffffffffffff8
1000055ac: 1f 01 0a eb 	cmp	x8, x10
1000055b0: 23 07 00 54 	b.lo	0x100005694 <__ZN71_$LT$core..hash..sip..Hasher$LT$S$GT$$u20$as$u20$core..hash..Hasher$GT$5write17h11a3be3fdbc09f7dE+0x13c>
1000055b4: 3f 0d 00 f1 	cmp	x9, #3
1000055b8: a9 09 00 54 	b.ls	0x1000056ec <__ZN71_$LT$core..hash..sip..Hasher$LT$S$GT$$u20$as$u20$core..hash..Hasher$GT$5write17h11a3be3fdbc09f7dE+0x194>
1000055bc: 2a 68 68 b8 	ldr	w10, [x1, x8]
1000055c0: 8b 00 80 52 	mov	w11, #4
1000055c4: 6c 01 40 b2 	orr	x12, x11, #0x1
1000055c8: 9f 01 09 eb 	cmp	x12, x9
1000055cc: a3 09 00 54 	b.lo	0x100005700 <__ZN71_$LT$core..hash..sip..Hasher$LT$S$GT$$u20$as$u20$core..hash..Hasher$GT$5write17h11a3be3fdbc09f7dE+0x1a8>
1000055d0: 52 00 00 14 	b	0x100005718 <__ZN71_$LT$core..hash..sip..Hasher$LT$S$GT$$u20$as$u20$core..hash..Hasher$GT$5write17h11a3be3fdbc09f7dE+0x1c0>
1000055d4: 0c 00 80 d2 	mov	x12, #0
1000055d8: 0a 00 80 d2 	mov	x10, #0
1000055dc: 8d 01 40 b2 	orr	x13, x12, #0x1
1000055e0: bf 01 0b eb 	cmp	x13, x11
1000055e4: c2 00 00 54 	b.hs	0x1000055fc <__ZN71_$LT$core..hash..sip..Hasher$LT$S$GT$$u20$as$u20$core..hash..Hasher$GT$5write17h11a3be3fdbc09f7dE+0xa4>
1000055e8: 2d 68 6c 78 	ldrh	w13, [x1, x12]
1000055ec: 8e f1 7d d3 	lsl	x14, x12, #3
1000055f0: ad 21 ce 9a 	lsl	x13, x13, x14
1000055f4: aa 01 0a aa 	orr	x10, x13, x10
1000055f8: 8c 01 7f b2 	orr	x12, x12, #0x2
1000055fc: 9f 01 0b eb 	cmp	x12, x11
100005600: a2 00 00 54 	b.hs	0x100005614 <__ZN71_$LT$core..hash..sip..Hasher$LT$S$GT$$u20$as$u20$core..hash..Hasher$GT$5write17h11a3be3fdbc09f7dE+0xbc>
100005604: 2b 68 6c 38 	ldrb	w11, [x1, x12]
100005608: 8c f1 7d d3 	lsl	x12, x12, #3
10000560c: 6b 21 cc 9a 	lsl	x11, x11, x12
100005610: 6a 01 0a aa 	orr	x10, x11, x10
100005614: 2b 71 1d 53 	lsl	w11, w9, #3
100005618: 6b 09 7d 92 	and	x11, x11, #0x38
10000561c: 4a 21 cb 9a 	lsl	x10, x10, x11
100005620: 0b 1c 40 f9 	ldr	x11, [x0, #56]
100005624: 6a 01 0a aa 	orr	x10, x11, x10
100005628: 0a 1c 00 f9 	str	x10, [x0, #56]
10000562c: 1f 01 02 eb 	cmp	x8, x2
100005630: 89 00 00 54 	b.ls	0x100005640 <__ZN71_$LT$core..hash..sip..Hasher$LT$S$GT$$u20$as$u20$core..hash..Hasher$GT$5write17h11a3be3fdbc09f7dE+0xe8>
100005634: 29 01 02 8b 	add	x9, x9, x2
100005638: 09 20 00 f9 	str	x9, [x0, #64]
10000563c: c0 03 5f d6 	ret
100005640: 0b 24 41 a9 	ldp	x11, x9, [x0, #16]
100005644: 29 01 0a ca 	eor	x9, x9, x10
100005648: 0c 34 40 a9 	ldp	x12, x13, [x0]
10000564c: 6c 01 0c 8b 	add	x12, x11, x12
100005650: 8b cd cb ca 	eor	x11, x12, x11, ror #51
100005654: ad 01 09 8b 	add	x13, x13, x9
100005658: ae 01 0b 8b 	add	x14, x13, x11
10000565c: a9 c1 c9 ca 	eor	x9, x13, x9, ror #48
100005660: 8c 81 cc 93 	ror	x12, x12, #32
100005664: 2c 01 0c 8b 	add	x12, x9, x12
100005668: 8a 01 0a ca 	eor	x10, x12, x10
10000566c: 89 ad c9 ca 	eor	x9, x12, x9, ror #43
100005670: cb bd cb ca 	eor	x11, x14, x11, ror #47
100005674: 0b 24 01 a9 	stp	x11, x9, [x0, #16]
100005678: c9 81 ce 93 	ror	x9, x14, #32
10000567c: 0a 24 00 a9 	stp	x10, x9, [x0]
100005680: 4a 00 08 cb 	sub	x10, x2, x8
100005684: 49 09 40 92 	and	x9, x10, #0x7
100005688: 4a f1 7d 92 	and	x10, x10, #0xfffffffffffffff8
10000568c: 1f 01 0a eb 	cmp	x8, x10
100005690: 22 f9 ff 54 	b.hs	0x1000055b4 <__ZN71_$LT$core..hash..sip..Hasher$LT$S$GT$$u20$as$u20$core..hash..Hasher$GT$5write17h11a3be3fdbc09f7dE+0x5c>
100005694: 0d 30 41 a9 	ldp	x13, x12, [x0, #16]
100005698: 0e 2c 40 a9 	ldp	x14, x11, [x0]
10000569c: 2f 68 68 f8 	ldr	x15, [x1, x8]
1000056a0: ec 01 0c ca 	eor	x12, x15, x12
1000056a4: ce 01 0d 8b 	add	x14, x14, x13
1000056a8: cd cd cd ca 	eor	x13, x14, x13, ror #51
1000056ac: 8b 01 0b 8b 	add	x11, x12, x11
1000056b0: 70 01 0d 8b 	add	x16, x11, x13
1000056b4: 6b c1 cc ca 	eor	x11, x11, x12, ror #48
1000056b8: cc 81 ce 93 	ror	x12, x14, #32
1000056bc: 6c 01 0c 8b 	add	x12, x11, x12
1000056c0: 8e 01 0f ca 	eor	x14, x12, x15
1000056c4: 8c ad cb ca 	eor	x12, x12, x11, ror #43
1000056c8: 0d be cd ca 	eor	x13, x16, x13, ror #47
1000056cc: 0b 82 d0 93 	ror	x11, x16, #32
1000056d0: 08 21 00 91 	add	x8, x8, #8
1000056d4: 1f 01 0a eb 	cmp	x8, x10
1000056d8: 23 fe ff 54 	b.lo	0x10000569c <__ZN71_$LT$core..hash..sip..Hasher$LT$S$GT$$u20$as$u20$core..hash..Hasher$GT$5write17h11a3be3fdbc09f7dE+0x144>
1000056dc: 0d 30 01 a9 	stp	x13, x12, [x0, #16]
1000056e0: 0e 2c 00 a9 	stp	x14, x11, [x0]
1000056e4: 3f 0d 00 f1 	cmp	x9, #3
1000056e8: a8 f6 ff 54 	b.hi	0x1000055bc <__ZN71_$LT$core..hash..sip..Hasher$LT$S$GT$$u20$as$u20$core..hash..Hasher$GT$5write17h11a3be3fdbc09f7dE+0x64>
1000056ec: 0b 00 80 d2 	mov	x11, #0
1000056f0: 0a 00 80 d2 	mov	x10, #0
1000056f4: 6c 01 40 b2 	orr	x12, x11, #0x1
1000056f8: 9f 01 09 eb 	cmp	x12, x9
1000056fc: e2 00 00 54 	b.hs	0x100005718 <__ZN71_$LT$core..hash..sip..Hasher$LT$S$GT$$u20$as$u20$core..hash..Hasher$GT$5write17h11a3be3fdbc09f7dE+0x1c0>
100005700: 6c 01 08 8b 	add	x12, x11, x8
100005704: 2c 68 6c 78 	ldrh	w12, [x1, x12]
100005708: 6d f1 7d d3 	lsl	x13, x11, #3
10000570c: 8c 21 cd 9a 	lsl	x12, x12, x13
100005710: 8a 01 0a aa 	orr	x10, x12, x10
100005714: 6b 01 7f b2 	orr	x11, x11, #0x2
100005718: 7f 01 09 eb 	cmp	x11, x9
10000571c: 63 00 00 54 	b.lo	0x100005728 <__ZN71_$LT$core..hash..sip..Hasher$LT$S$GT$$u20$as$u20$core..hash..Hasher$GT$5write17h11a3be3fdbc09f7dE+0x1d0>
100005720: 0a a4 03 a9 	stp	x10, x9, [x0, #56]
100005724: c0 03 5f d6 	ret
100005728: 68 01 08 8b 	add	x8, x11, x8
10000572c: 28 68 68 38 	ldrb	w8, [x1, x8]
100005730: 6b f1 7d d3 	lsl	x11, x11, #3
100005734: 08 21 cb 9a 	lsl	x8, x8, x11
100005738: 0a 01 0a aa 	orr	x10, x8, x10
10000573c: 0a a4 03 a9 	stp	x10, x9, [x0, #56]
100005740: c0 03 5f d6 	ret

0000000100005744 <___rust_alloc>:
100005744: 16 5f 00 14 	b	0x10001d39c <___rdl_alloc>

0000000100005748 <___rust_dealloc>:
100005748: 30 5f 00 14 	b	0x10001d408 <___rdl_dealloc>

000000010000574c <___rust_realloc>:
10000574c: 30 5f 00 14 	b	0x10001d40c <___rdl_realloc>

0000000100005750 <___rust_alloc_error_handler>:
100005750: 27 6a 00 14 	b	0x10001ffec <___rg_oom>

0000000100005754 <__ZN36_$LT$T$u20$as$u20$core..any..Any$GT$7type_id17h1e518310635152dbE>:
100005754: 20 e0 8b d2 	mov	x0, #24321
100005758: 80 bb a2 f2 	movk	x0, #5596, lsl #16
10000575c: c0 3f cb f2 	movk	x0, #23038, lsl #32
100005760: 20 ac e7 f2 	movk	x0, #15713, lsl #48
100005764: c0 03 5f d6 	ret

0000000100005768 <__ZN36_$LT$T$u20$as$u20$core..any..Any$GT$7type_id17h7187fff34b7c08b7E>:
100005768: 80 9e 85 d2 	mov	x0, #11508
10000576c: 60 f0 a3 f2 	movk	x0, #8067, lsl #16
100005770: 00 8f c3 f2 	movk	x0, #7288, lsl #32
100005774: e0 7c ea f2 	movk	x0, #21479, lsl #48
100005778: c0 03 5f d6 	ret

000000010000577c <__ZN36_$LT$T$u20$as$u20$core..any..Any$GT$7type_id17h9e50e97c5f35a02eE>:
10000577c: 00 59 83 d2 	mov	x0, #6856
100005780: 00 3f b5 f2 	movk	x0, #43512, lsl #16
100005784: 80 86 cd f2 	movk	x0, #27700, lsl #32
100005788: e0 34 f1 f2 	movk	x0, #35239, lsl #48
10000578c: c0 03 5f d6 	ret

0000000100005790 <__ZN42_$LT$$RF$T$u20$as$u20$core..fmt..Debug$GT$3fmt17h09a0e1de1cb08dd9E>:
100005790: 08 00 40 f9 	ldr	x8, [x0]
100005794: 00 21 40 a9 	ldp	x0, x8, [x8]
100005798: 02 0d 40 f9 	ldr	x2, [x8, #24]
10000579c: 40 00 1f d6 	br	x2

00000001000057a0 <__ZN42_$LT$$RF$T$u20$as$u20$core..fmt..Debug$GT$3fmt17h4035cfac3342b47dE>:
1000057a0: e0 03 01 aa 	mov	x0, x1
1000057a4: 61 55 18 50 	adr	x1, #199342
1000057a8: 1f 20 03 d5 	nop
1000057ac: 42 00 80 52 	mov	w2, #2
1000057b0: 43 a4 00 14 	b	0x10002e8bc <__ZN4core3fmt9Formatter3pad17ha283e5715c43cd2bE>

00000001000057b4 <__ZN42_$LT$$RF$T$u20$as$u20$core..fmt..Debug$GT$3fmt17h518cf972fbace7d2E>:
1000057b4: f4 4f be a9 	stp	x20, x19, [sp, #-32]!
1000057b8: fd 7b 01 a9 	stp	x29, x30, [sp, #16]
1000057bc: fd 43 00 91 	add	x29, sp, #16
1000057c0: f3 03 01 aa 	mov	x19, x1
1000057c4: 14 00 40 f9 	ldr	x20, [x0]
1000057c8: e0 03 01 aa 	mov	x0, x1
1000057cc: 71 a5 00 94 	bl	0x10002ed90 <__ZN4core3fmt9Formatter15debug_lower_hex17h817ff30fbadb46b3E>
1000057d0: c0 00 00 36 	tbz	w0, #0, 0x1000057e8 <__ZN42_$LT$$RF$T$u20$as$u20$core..fmt..Debug$GT$3fmt17h518cf972fbace7d2E+0x34>
1000057d4: e0 03 14 aa 	mov	x0, x20
1000057d8: e1 03 13 aa 	mov	x1, x19
1000057dc: fd 7b 41 a9 	ldp	x29, x30, [sp, #16]
1000057e0: f4 4f c2 a8 	ldp	x20, x19, [sp], #32
1000057e4: 9a b1 00 14 	b	0x100031e4c <__ZN4core3fmt3num53_$LT$impl$u20$core..fmt..LowerHex$u20$for$u20$i32$GT$3fmt17h11d86a7e0ccc3ab0E>
1000057e8: e0 03 13 aa 	mov	x0, x19
1000057ec: 6c a5 00 94 	bl	0x10002ed9c <__ZN4core3fmt9Formatter15debug_upper_hex17heb9d6e6cef4d2634E>
1000057f0: c0 00 00 36 	tbz	w0, #0, 0x100005808 <__ZN42_$LT$$RF$T$u20$as$u20$core..fmt..Debug$GT$3fmt17h518cf972fbace7d2E+0x54>
1000057f4: e0 03 14 aa 	mov	x0, x20
1000057f8: e1 03 13 aa 	mov	x1, x19
1000057fc: fd 7b 41 a9 	ldp	x29, x30, [sp, #16]
100005800: f4 4f c2 a8 	ldp	x20, x19, [sp], #32
100005804: ba b1 00 14 	b	0x100031eec <__ZN4core3fmt3num53_$LT$impl$u20$core..fmt..UpperHex$u20$for$u20$i32$GT$3fmt17h4b5fdcb7cee23090E>
100005808: e0 03 14 aa 	mov	x0, x20
10000580c: e1 03 13 aa 	mov	x1, x19
100005810: fd 7b 41 a9 	ldp	x29, x30, [sp, #16]
100005814: f4 4f c2 a8 	ldp	x20, x19, [sp], #32
100005818: e7 b2 00 14 	b	0x1000323b4 <__ZN4core3fmt3num3imp52_$LT$impl$u20$core..fmt..Display$u20$for$u20$i32$GT$3fmt17hab716689bd97d174E>

000000010000581c <__ZN42_$LT$$RF$T$u20$as$u20$core..fmt..Debug$GT$3fmt17h9be5263a1486618cE>:
10000581c: 08 00 40 f9 	ldr	x8, [x0]
100005820: 00 01 40 f9 	ldr	x0, [x8]
100005824: 27 9e 00 14 	b	0x10002d0c0 <__ZN64_$LT$alloc..ffi..c_str..NulError$u20$as$u20$core..fmt..Debug$GT$3fmt17hf25d8a7e3422c076E>

0000000100005828 <__ZN42_$LT$$RF$T$u20$as$u20$core..fmt..Debug$GT$3fmt17hab3bed909f4b8be2E>:
100005828: e2 03 01 aa 	mov	x2, x1
10000582c: 08 04 40 a9 	ldp	x8, x1, [x0]
100005830: e0 03 08 aa 	mov	x0, x8
100005834: 52 a6 00 14 	b	0x10002f17c <__ZN40_$LT$str$u20$as$u20$core..fmt..Debug$GT$3fmt17h8431fe4c96e3375aE>

0000000100005838 <__ZN42_$LT$$RF$T$u20$as$u20$core..fmt..Debug$GT$3fmt17hb6a526e3569a55bcE>:
100005838: f4 4f be a9 	stp	x20, x19, [sp, #-32]!
10000583c: fd 7b 01 a9 	stp	x29, x30, [sp, #16]
100005840: fd 43 00 91 	add	x29, sp, #16
100005844: f3 03 01 aa 	mov	x19, x1
100005848: 14 00 40 f9 	ldr	x20, [x0]
10000584c: e0 03 01 aa 	mov	x0, x1
100005850: 50 a5 00 94 	bl	0x10002ed90 <__ZN4core3fmt9Formatter15debug_lower_hex17h817ff30fbadb46b3E>
100005854: c0 00 00 36 	tbz	w0, #0, 0x10000586c <__ZN42_$LT$$RF$T$u20$as$u20$core..fmt..Debug$GT$3fmt17hb6a526e3569a55bcE+0x34>
100005858: e0 03 14 aa 	mov	x0, x20
10000585c: e1 03 13 aa 	mov	x1, x19
100005860: fd 7b 41 a9 	ldp	x29, x30, [sp, #16]
100005864: f4 4f c2 a8 	ldp	x20, x19, [sp], #32
100005868: c9 b1 00 14 	b	0x100031f8c <__ZN4core3fmt3num55_$LT$impl$u20$core..fmt..LowerHex$u20$for$u20$usize$GT$3fmt17h412ec3e4756dd577E>
10000586c: e0 03 13 aa 	mov	x0, x19
100005870: 4b a5 00 94 	bl	0x10002ed9c <__ZN4core3fmt9Formatter15debug_upper_hex17heb9d6e6cef4d2634E>
100005874: c0 00 00 36 	tbz	w0, #0, 0x10000588c <__ZN42_$LT$$RF$T$u20$as$u20$core..fmt..Debug$GT$3fmt17hb6a526e3569a55bcE+0x54>
100005878: e0 03 14 aa 	mov	x0, x20
10000587c: e1 03 13 aa 	mov	x1, x19
100005880: fd 7b 41 a9 	ldp	x29, x30, [sp, #16]
100005884: f4 4f c2 a8 	ldp	x20, x19, [sp], #32
100005888: e9 b1 00 14 	b	0x10003202c <__ZN4core3fmt3num55_$LT$impl$u20$core..fmt..UpperHex$u20$for$u20$usize$GT$3fmt17ha176471695dff1b4E>
10000588c: e0 03 14 aa 	mov	x0, x20
100005890: e1 03 13 aa 	mov	x1, x19
100005894: fd 7b 41 a9 	ldp	x29, x30, [sp, #16]
100005898: f4 4f c2 a8 	ldp	x20, x19, [sp], #32
10000589c: 73 b3 00 14 	b	0x100032668 <__ZN4core3fmt3num3imp54_$LT$impl$u20$core..fmt..Display$u20$for$u20$usize$GT$3fmt17heb299d708a72dca6E>

00000001000058a0 <__ZN42_$LT$$RF$T$u20$as$u20$core..fmt..Debug$GT$3fmt17hf10b6e640d653c9dE>:
1000058a0: e8 03 01 aa 	mov	x8, x1
1000058a4: 09 00 40 f9 	ldr	x9, [x0]
1000058a8: 29 01 40 39 	ldrb	w9, [x9]
1000058ac: 29 f1 7d d3 	lsl	x9, x9, #3
1000058b0: 4a 15 19 10 	adr	x10, #205480
1000058b4: 1f 20 03 d5 	nop
1000058b8: 42 69 69 f8 	ldr	x2, [x10, x9]
1000058bc: 6a e6 1f 10 	adr	x10, #261324
1000058c0: 1f 20 03 d5 	nop
1000058c4: 41 69 69 f8 	ldr	x1, [x10, x9]
1000058c8: e0 03 08 aa 	mov	x0, x8
1000058cc: 1b a5 00 14 	b	0x10002ed38 <__ZN57_$LT$core..fmt..Formatter$u20$as$u20$core..fmt..Write$GT$9write_str17h507f23e9adfee312E>

00000001000058d0 <__ZN44_$LT$$RF$T$u20$as$u20$core..fmt..Display$GT$3fmt17h060271b0c2500561E>:
1000058d0: 00 00 40 f9 	ldr	x0, [x0]
1000058d4: 31 9f 00 14 	b	0x10002d598 <__ZN70_$LT$core..panic..location..Location$u20$as$u20$core..fmt..Display$GT$3fmt17h6130276138388fbbE>

00000001000058d8 <__ZN44_$LT$$RF$T$u20$as$u20$core..fmt..Display$GT$3fmt17hd2012db98eb1c395E>:
1000058d8: e2 03 01 aa 	mov	x2, x1
1000058dc: 08 04 40 a9 	ldp	x8, x1, [x0]
1000058e0: e0 03 08 aa 	mov	x0, x8
1000058e4: 3a a7 00 14 	b	0x10002f5cc <__ZN42_$LT$str$u20$as$u20$core..fmt..Display$GT$3fmt17h0a343f4215a0244aE>

00000001000058e8 <__ZN4core3fmt3num50_$LT$impl$u20$core..fmt..Debug$u20$for$u20$i32$GT$3fmt17h975f6718e7c24a6bE>:
1000058e8: f4 4f be a9 	stp	x20, x19, [sp, #-32]!
1000058ec: fd 7b 01 a9 	stp	x29, x30, [sp, #16]
1000058f0: fd 43 00 91 	add	x29, sp, #16
1000058f4: f3 03 01 aa 	mov	x19, x1
1000058f8: f4 03 00 aa 	mov	x20, x0
1000058fc: e0 03 01 aa 	mov	x0, x1
100005900: 24 a5 00 94 	bl	0x10002ed90 <__ZN4core3fmt9Formatter15debug_lower_hex17h817ff30fbadb46b3E>
100005904: c0 00 00 36 	tbz	w0, #0, 0x10000591c <__ZN4core3fmt3num50_$LT$impl$u20$core..fmt..Debug$u20$for$u20$i32$GT$3fmt17h975f6718e7c24a6bE+0x34>
100005908: e0 03 14 aa 	mov	x0, x20
10000590c: e1 03 13 aa 	mov	x1, x19
100005910: fd 7b 41 a9 	ldp	x29, x30, [sp, #16]
100005914: f4 4f c2 a8 	ldp	x20, x19, [sp], #32
100005918: 4d b1 00 14 	b	0x100031e4c <__ZN4core3fmt3num53_$LT$impl$u20$core..fmt..LowerHex$u20$for$u20$i32$GT$3fmt17h11d86a7e0ccc3ab0E>
10000591c: e0 03 13 aa 	mov	x0, x19
100005920: 1f a5 00 94 	bl	0x10002ed9c <__ZN4core3fmt9Formatter15debug_upper_hex17heb9d6e6cef4d2634E>
100005924: c0 00 00 36 	tbz	w0, #0, 0x10000593c <__ZN4core3fmt3num50_$LT$impl$u20$core..fmt..Debug$u20$for$u20$i32$GT$3fmt17h975f6718e7c24a6bE+0x54>
100005928: e0 03 14 aa 	mov	x0, x20
10000592c: e1 03 13 aa 	mov	x1, x19
100005930: fd 7b 41 a9 	ldp	x29, x30, [sp, #16]
100005934: f4 4f c2 a8 	ldp	x20, x19, [sp], #32
100005938: 6d b1 00 14 	b	0x100031eec <__ZN4core3fmt3num53_$LT$impl$u20$core..fmt..UpperHex$u20$for$u20$i32$GT$3fmt17h4b5fdcb7cee23090E>
10000593c: e0 03 14 aa 	mov	x0, x20
100005940: e1 03 13 aa 	mov	x1, x19
100005944: fd 7b 41 a9 	ldp	x29, x30, [sp, #16]
100005948: f4 4f c2 a8 	ldp	x20, x19, [sp], #32
10000594c: 9a b2 00 14 	b	0x1000323b4 <__ZN4core3fmt3num3imp52_$LT$impl$u20$core..fmt..Display$u20$for$u20$i32$GT$3fmt17hab716689bd97d174E>

0000000100005950 <__ZN4core3fmt5Write10write_char17h1bb5c994d08c7fafE>:
100005950: ff 03 01 d1 	sub	sp, sp, #64
100005954: f6 57 01 a9 	stp	x22, x21, [sp, #16]
100005958: f4 4f 02 a9 	stp	x20, x19, [sp, #32]
10000595c: fd 7b 03 a9 	stp	x29, x30, [sp, #48]
100005960: fd c3 00 91 	add	x29, sp, #48
100005964: ff 0f 00 b9 	str	wzr, [sp, #12]
100005968: 3f 00 02 71 	cmp	w1, #128
10000596c: 82 00 00 54 	b.hs	0x10000597c <__ZN4core3fmt5Write10write_char17h1bb5c994d08c7fafE+0x2c>
100005970: e1 33 00 39 	strb	w1, [sp, #12]
100005974: 33 00 80 52 	mov	w19, #1
100005978: 25 00 00 14 	b	0x100005a0c <__ZN4core3fmt5Write10write_char17h1bb5c994d08c7fafE+0xbc>
10000597c: 3f 00 20 71 	cmp	w1, #2048
100005980: 22 01 00 54 	b.hs	0x1000059a4 <__ZN4core3fmt5Write10write_char17h1bb5c994d08c7fafE+0x54>
100005984: 28 7c 06 53 	lsr	w8, w1, #6
100005988: 08 05 1a 32 	orr	w8, w8, #0xc0
10000598c: e8 33 00 39 	strb	w8, [sp, #12]
100005990: 08 10 80 52 	mov	w8, #128
100005994: 28 14 00 33 	bfxil	w8, w1, #0, #6
100005998: e8 37 00 39 	strb	w8, [sp, #13]
10000599c: 53 00 80 52 	mov	w19, #2
1000059a0: 1b 00 00 14 	b	0x100005a0c <__ZN4core3fmt5Write10write_char17h1bb5c994d08c7fafE+0xbc>
1000059a4: 3f 40 40 71 	cmp	w1, #16, lsl #12        ; =65536
1000059a8: 82 01 00 54 	b.hs	0x1000059d8 <__ZN4core3fmt5Write10write_char17h1bb5c994d08c7fafE+0x88>
1000059ac: 28 7c 0c 53 	lsr	w8, w1, #12
1000059b0: 08 09 1b 32 	orr	w8, w8, #0xe0
1000059b4: e8 33 00 39 	strb	w8, [sp, #12]
1000059b8: 08 10 80 52 	mov	w8, #128
1000059bc: 09 10 80 52 	mov	w9, #128
1000059c0: 29 2c 06 33 	bfxil	w9, w1, #6, #6
1000059c4: e9 37 00 39 	strb	w9, [sp, #13]
1000059c8: 28 14 00 33 	bfxil	w8, w1, #0, #6
1000059cc: e8 3b 00 39 	strb	w8, [sp, #14]
1000059d0: 73 00 80 52 	mov	w19, #3
1000059d4: 0e 00 00 14 	b	0x100005a0c <__ZN4core3fmt5Write10write_char17h1bb5c994d08c7fafE+0xbc>
1000059d8: 08 1e 80 52 	mov	w8, #240
1000059dc: 28 50 12 33 	bfxil	w8, w1, #18, #3
1000059e0: e8 33 00 39 	strb	w8, [sp, #12]
1000059e4: 08 10 80 52 	mov	w8, #128
1000059e8: 09 10 80 52 	mov	w9, #128
1000059ec: 29 44 0c 33 	bfxil	w9, w1, #12, #6
1000059f0: e9 37 00 39 	strb	w9, [sp, #13]
1000059f4: 09 10 80 52 	mov	w9, #128
1000059f8: 29 2c 06 33 	bfxil	w9, w1, #6, #6
1000059fc: e9 3b 00 39 	strb	w9, [sp, #14]
100005a00: 28 14 00 33 	bfxil	w8, w1, #0, #6
100005a04: e8 3f 00 39 	strb	w8, [sp, #15]
100005a08: 93 00 80 52 	mov	w19, #4
100005a0c: 14 04 40 f9 	ldr	x20, [x0, #8]
100005a10: 95 0a 40 f9 	ldr	x21, [x20, #16]
100005a14: 88 02 40 f9 	ldr	x8, [x20]
100005a18: 08 01 15 cb 	sub	x8, x8, x21
100005a1c: 1f 01 13 eb 	cmp	x8, x19
100005a20: c3 01 00 54 	b.lo	0x100005a58 <__ZN4core3fmt5Write10write_char17h1bb5c994d08c7fafE+0x108>
100005a24: 88 06 40 f9 	ldr	x8, [x20, #8]
100005a28: 00 01 15 8b 	add	x0, x8, x21
100005a2c: e1 33 00 91 	add	x1, sp, #12
100005a30: e2 03 13 aa 	mov	x2, x19
100005a34: 26 c0 00 94 	bl	0x100035acc <_writev+0x100035acc>
100005a38: a8 02 13 8b 	add	x8, x21, x19
100005a3c: 88 0a 00 f9 	str	x8, [x20, #16]
100005a40: 00 00 80 52 	mov	w0, #0
100005a44: fd 7b 43 a9 	ldp	x29, x30, [sp, #48]
100005a48: f4 4f 42 a9 	ldp	x20, x19, [sp, #32]
100005a4c: f6 57 41 a9 	ldp	x22, x21, [sp, #16]
100005a50: ff 03 01 91 	add	sp, sp, #64
100005a54: c0 03 5f d6 	ret
100005a58: e0 03 14 aa 	mov	x0, x20
100005a5c: e1 03 15 aa 	mov	x1, x21
100005a60: e2 03 13 aa 	mov	x2, x19
100005a64: 80 bb 00 94 	bl	0x100034864 <__ZN5alloc7raw_vec19RawVec$LT$T$C$A$GT$7reserve21do_reserve_and_handle17hc7ed173096b955cdE>
100005a68: 95 0a 40 f9 	ldr	x21, [x20, #16]
100005a6c: ee ff ff 17 	b	0x100005a24 <__ZN4core3fmt5Write10write_char17h1bb5c994d08c7fafE+0xd4>

0000000100005a70 <__ZN4core3fmt5Write10write_char17h6e77df9ab6fa479dE>:
100005a70: ff 83 00 d1 	sub	sp, sp, #32
100005a74: fd 7b 01 a9 	stp	x29, x30, [sp, #16]
100005a78: fd 43 00 91 	add	x29, sp, #16
100005a7c: bf c3 1f b8 	stur	wzr, [x29, #-4]
100005a80: 3f 00 02 71 	cmp	w1, #128
100005a84: 82 00 00 54 	b.hs	0x100005a94 <__ZN4core3fmt5Write10write_char17h6e77df9ab6fa479dE+0x24>
100005a88: a1 c3 1f 38 	sturb	w1, [x29, #-4]
100005a8c: 22 00 80 52 	mov	w2, #1
100005a90: 25 00 00 14 	b	0x100005b24 <__ZN4core3fmt5Write10write_char17h6e77df9ab6fa479dE+0xb4>
100005a94: 3f 00 20 71 	cmp	w1, #2048
100005a98: 22 01 00 54 	b.hs	0x100005abc <__ZN4core3fmt5Write10write_char17h6e77df9ab6fa479dE+0x4c>
100005a9c: 28 7c 06 53 	lsr	w8, w1, #6
100005aa0: 08 05 1a 32 	orr	w8, w8, #0xc0
100005aa4: a8 c3 1f 38 	sturb	w8, [x29, #-4]
100005aa8: 08 10 80 52 	mov	w8, #128
100005aac: 28 14 00 33 	bfxil	w8, w1, #0, #6
100005ab0: a8 d3 1f 38 	sturb	w8, [x29, #-3]
100005ab4: 42 00 80 52 	mov	w2, #2
100005ab8: 1b 00 00 14 	b	0x100005b24 <__ZN4core3fmt5Write10write_char17h6e77df9ab6fa479dE+0xb4>
100005abc: 3f 40 40 71 	cmp	w1, #16, lsl #12        ; =65536
100005ac0: 82 01 00 54 	b.hs	0x100005af0 <__ZN4core3fmt5Write10write_char17h6e77df9ab6fa479dE+0x80>
100005ac4: 28 7c 0c 53 	lsr	w8, w1, #12
100005ac8: 08 09 1b 32 	orr	w8, w8, #0xe0
100005acc: a8 c3 1f 38 	sturb	w8, [x29, #-4]
100005ad0: 08 10 80 52 	mov	w8, #128
100005ad4: 09 10 80 52 	mov	w9, #128
100005ad8: 29 2c 06 33 	bfxil	w9, w1, #6, #6
100005adc: a9 d3 1f 38 	sturb	w9, [x29, #-3]
100005ae0: 28 14 00 33 	bfxil	w8, w1, #0, #6
100005ae4: a8 e3 1f 38 	sturb	w8, [x29, #-2]
100005ae8: 62 00 80 52 	mov	w2, #3
100005aec: 0e 00 00 14 	b	0x100005b24 <__ZN4core3fmt5Write10write_char17h6e77df9ab6fa479dE+0xb4>
100005af0: 08 1e 80 52 	mov	w8, #240
100005af4: 28 50 12 33 	bfxil	w8, w1, #18, #3
100005af8: a8 c3 1f 38 	sturb	w8, [x29, #-4]
100005afc: 08 10 80 52 	mov	w8, #128
100005b00: 09 10 80 52 	mov	w9, #128
100005b04: 29 44 0c 33 	bfxil	w9, w1, #12, #6
100005b08: a9 d3 1f 38 	sturb	w9, [x29, #-3]
100005b0c: 09 10 80 52 	mov	w9, #128
100005b10: 29 2c 06 33 	bfxil	w9, w1, #6, #6
100005b14: a9 e3 1f 38 	sturb	w9, [x29, #-2]
100005b18: 28 14 00 33 	bfxil	w8, w1, #0, #6
100005b1c: a8 f3 1f 38 	sturb	w8, [x29, #-1]
100005b20: 82 00 80 52 	mov	w2, #4
100005b24: a1 13 00 d1 	sub	x1, x29, #4
100005b28: ec 53 00 94 	bl	0x10001aad8 <__ZN80_$LT$std..io..Write..write_fmt..Adapter$LT$T$GT$$u20$as$u20$core..fmt..Write$GT$9write_str17h078d52d14f82e3afE>
100005b2c: fd 7b 41 a9 	ldp	x29, x30, [sp, #16]
100005b30: ff 83 00 91 	add	sp, sp, #32
100005b34: c0 03 5f d6 	ret

0000000100005b38 <__ZN4core3fmt5Write9write_fmt17h56356f43b22e8ef6E>:
100005b38: ff 43 01 d1 	sub	sp, sp, #80
100005b3c: fd 7b 04 a9 	stp	x29, x30, [sp, #64]
100005b40: fd 03 01 91 	add	x29, sp, #64
100005b44: e0 07 00 f9 	str	x0, [sp, #8]
100005b48: 20 04 40 ad 	ldp	q0, q1, [x1]
100005b4c: e0 87 00 ad 	stp	q0, q1, [sp, #16]
100005b50: 20 08 c0 3d 	ldr	q0, [x1, #32]
100005b54: e0 0f 80 3d 	str	q0, [sp, #48]
100005b58: 41 3c 1f 10 	adr	x1, #255880
100005b5c: 1f 20 03 d5 	nop
100005b60: e0 23 00 91 	add	x0, sp, #8
100005b64: e2 43 00 91 	add	x2, sp, #16
100005b68: 9b a1 00 94 	bl	0x10002e1d4 <__ZN4core3fmt5write17hc60df9bae744c40cE>
100005b6c: fd 7b 44 a9 	ldp	x29, x30, [sp, #64]
100005b70: ff 43 01 91 	add	sp, sp, #80
100005b74: c0 03 5f d6 	ret

0000000100005b78 <__ZN4core3fmt5Write9write_fmt17hc5c372cc810d3ef6E>:
100005b78: ff 43 01 d1 	sub	sp, sp, #80
100005b7c: fd 7b 04 a9 	stp	x29, x30, [sp, #64]
100005b80: fd 03 01 91 	add	x29, sp, #64
100005b84: e0 07 00 f9 	str	x0, [sp, #8]
100005b88: 20 04 40 ad 	ldp	q0, q1, [x1]
100005b8c: e0 87 00 ad 	stp	q0, q1, [sp, #16]
100005b90: 20 08 c0 3d 	ldr	q0, [x1, #32]
100005b94: e0 0f 80 3d 	str	q0, [sp, #48]
100005b98: 41 3d 1f 10 	adr	x1, #255912
100005b9c: 1f 20 03 d5 	nop
100005ba0: e0 23 00 91 	add	x0, sp, #8
100005ba4: e2 43 00 91 	add	x2, sp, #16
100005ba8: 8b a1 00 94 	bl	0x10002e1d4 <__ZN4core3fmt5write17hc60df9bae744c40cE>
100005bac: fd 7b 44 a9 	ldp	x29, x30, [sp, #64]
100005bb0: ff 43 01 91 	add	sp, sp, #80
100005bb4: c0 03 5f d6 	ret

0000000100005bb8 <__ZN4core3ops8function6FnOnce40call_once$u7b$$u7b$vtable.shim$u7d$$u7d$17h21311060f8341512E>:
100005bb8: ff 03 01 d1 	sub	sp, sp, #64
100005bbc: f4 4f 02 a9 	stp	x20, x19, [sp, #32]
100005bc0: fd 7b 03 a9 	stp	x29, x30, [sp, #48]
100005bc4: fd c3 00 91 	add	x29, sp, #48
100005bc8: e8 03 01 aa 	mov	x8, x1
100005bcc: f3 03 00 aa 	mov	x19, x0
100005bd0: 40 00 c0 3d 	ldr	q0, [x2]
100005bd4: e0 03 80 3d 	str	q0, [sp]
100005bd8: 49 08 40 f9 	ldr	x9, [x2, #16]
100005bdc: e9 0b 00 f9 	str	x9, [sp, #16]
100005be0: 09 04 40 f9 	ldr	x9, [x0, #8]
100005be4: 3f 01 00 f1 	cmp	x9, #0
100005be8: e3 03 80 9a 	csel	x3, xzr, x0, eq
100005bec: 02 60 40 39 	ldrb	w2, [x0, #24]
100005bf0: e1 03 00 91 	mov	x1, sp
100005bf4: e0 03 08 aa 	mov	x0, x8
100005bf8: 0f 5c 00 94 	bl	0x10001cc34 <__ZN3std10sys_common9backtrace15output_filename17h34a1242d5976a76dE>
100005bfc: f4 03 00 aa 	mov	x20, x0
100005c00: 60 06 40 f9 	ldr	x0, [x19, #8]
100005c04: c0 00 00 b4 	cbz	x0, 0x100005c1c <__ZN4core3ops8function6FnOnce40call_once$u7b$$u7b$vtable.shim$u7d$$u7d$17h21311060f8341512E+0x64>
100005c08: 61 02 40 f9 	ldr	x1, [x19]
100005c0c: 81 00 00 b4 	cbz	x1, 0x100005c1c <__ZN4core3ops8function6FnOnce40call_once$u7b$$u7b$vtable.shim$u7d$$u7d$17h21311060f8341512E+0x64>
100005c10: e8 03 21 aa 	mvn	x8, x1
100005c14: 02 fd 7f d3 	lsr	x2, x8, #63
100005c18: cc fe ff 97 	bl	0x100005748 <___rust_dealloc>
100005c1c: e0 03 14 aa 	mov	x0, x20
100005c20: fd 7b 43 a9 	ldp	x29, x30, [sp, #48]
100005c24: f4 4f 42 a9 	ldp	x20, x19, [sp, #32]
100005c28: ff 03 01 91 	add	sp, sp, #64
100005c2c: c0 03 5f d6 	ret
100005c30: f4 03 00 aa 	mov	x20, x0
100005c34: e0 03 13 aa 	mov	x0, x19
100005c38: e0 04 00 94 	bl	0x100006fb8 <__ZN4core3ptr70drop_in_place$LT$std..panicking..begin_panic_handler..PanicPayload$GT$17h35f3d6f344def32dE>
100005c3c: e0 03 14 aa 	mov	x0, x20
100005c40: 58 bf 00 94 	bl	0x1000359a0 <_writev+0x1000359a0>

0000000100005c44 <__ZN4core3ops8function6FnOnce40call_once$u7b$$u7b$vtable.shim$u7d$$u7d$17h37a1dde3faccbb35E>:
100005c44: 76 5b 00 14 	b	0x10001ca1c <__ZN3std10sys_common9backtrace10_print_fmt28_$u7b$$u7b$closure$u7d$$u7d$28_$u7b$$u7b$closure$u7d$$u7d$17hdc85bc4fa297fbedE>

0000000100005c48 <__ZN4core3ops8function6FnOnce40call_once$u7b$$u7b$vtable.shim$u7d$$u7d$17h64ab4bae9beb6084E>:
100005c48: 08 00 40 f9 	ldr	x8, [x0]
100005c4c: 00 01 40 f9 	ldr	x0, [x8]
100005c50: 4e bf 00 14 	b	0x100035988 <_writev+0x100035988>

0000000100005c54 <__ZN4core3ops8function6FnOnce40call_once$u7b$$u7b$vtable.shim$u7d$$u7d$17h7b8ab8c0d9d725e2E>:
100005c54: fd 7b bf a9 	stp	x29, x30, [sp, #-16]!
100005c58: fd 03 00 91 	mov	x29, sp
100005c5c: 0a 00 40 f9 	ldr	x10, [x0]
100005c60: 49 21 40 a9 	ldp	x9, x8, [x10]
100005c64: 5f 01 00 f9 	str	xzr, [x10]
100005c68: 49 01 00 b4 	cbz	x9, 0x100005c90 <__ZN4core3ops8function6FnOnce40call_once$u7b$$u7b$vtable.shim$u7d$$u7d$17h7b8ab8c0d9d725e2E+0x3c>
100005c6c: 2a 00 80 52 	mov	w10, #1
100005c70: 2a 01 00 39 	strb	w10, [x9]
100005c74: 00 e4 00 6f 	movi.2d	v0, #0000000000000000
100005c78: 00 01 00 ad 	stp	q0, q0, [x8]
100005c7c: 0a 7d 02 a9 	stp	x10, xzr, [x8, #32]
100005c80: 1f c1 00 39 	strb	wzr, [x8, #48]
100005c84: 1f 39 00 b9 	str	wzr, [x8, #56]
100005c88: fd 7b c1 a8 	ldp	x29, x30, [sp], #16
100005c8c: c0 03 5f d6 	ret
100005c90: a0 35 18 30 	adr	x0, #198325
100005c94: 1f 20 03 d5 	nop
100005c98: c2 82 1f 10 	adr	x2, #258136
100005c9c: 1f 20 03 d5 	nop
100005ca0: 61 05 80 52 	mov	w1, #43
100005ca4: 68 be 00 94 	bl	0x100035644 <__ZN4core9panicking5panic17h5140de40daf56c24E>

0000000100005ca8 <__ZN4core3ops8function6FnOnce40call_once$u7b$$u7b$vtable.shim$u7d$$u7d$17hb45efeab715692c3E>:
100005ca8: 10 5b 00 14 	b	0x10001c8e8 <__ZN3std10sys_common9backtrace10_print_fmt28_$u7b$$u7b$closure$u7d$$u7d$17ha0ca08543e89a83fE>

0000000100005cac <__ZN4core3ops8function6FnOnce40call_once$u7b$$u7b$vtable.shim$u7d$$u7d$17hebcf4c23725a672fE>:
100005cac: ff 83 00 d1 	sub	sp, sp, #32
100005cb0: fd 7b 01 a9 	stp	x29, x30, [sp, #16]
100005cb4: fd 43 00 91 	add	x29, sp, #16
100005cb8: 08 00 40 f9 	ldr	x8, [x0]
100005cbc: e8 07 00 f9 	str	x8, [sp, #8]
100005cc0: e0 23 00 91 	add	x0, sp, #8
100005cc4: 79 59 00 94 	bl	0x10001c2a8 <__ZN3std4sync4once4Once9call_once28_$u7b$$u7b$closure$u7d$$u7d$17hfa4cb74149fc8de6E>
100005cc8: fd 7b 41 a9 	ldp	x29, x30, [sp, #16]
100005ccc: ff 83 00 91 	add	sp, sp, #32
100005cd0: c0 03 5f d6 	ret

0000000100005cd4 <__ZN4core3ops8function6FnOnce40call_once$u7b$$u7b$vtable.shim$u7d$$u7d$17hfa8e57d9991a377dE>:
100005cd4: 08 00 40 f9 	ldr	x8, [x0]
100005cd8: 00 01 40 f9 	ldr	x0, [x8]
100005cdc: 1c bf 00 14 	b	0x10003594c <_writev+0x10003594c>

0000000100005ce0 <__ZN4core3ops8function6FnOnce9call_once17h3af47f8a1297ef5bE>:
100005ce0: fd 7b bf a9 	stp	x29, x30, [sp, #-16]!
100005ce4: fd 03 00 91 	mov	x29, sp
100005ce8: 1b 4c 00 94 	bl	0x100018d54 <__ZN3std2rt19lang_start_internal28_$u7b$$u7b$closure$u7d$$u7d$17h0daa0e6d0dd07761E>

0000000100005cec <__ZN4core3ptr100drop_in_place$LT$$RF$mut$u20$std..io..Write..write_fmt..Adapter$LT$alloc..vec..Vec$LT$u8$GT$$GT$$GT$17h5c7f92a3c80286b9E>:
100005cec: c0 03 5f d6 	ret

0000000100005cf0 <__ZN4core3ptr101drop_in_place$LT$alloc..sync..Arc$LT$std..sync..mutex..Mutex$LT$alloc..vec..Vec$LT$u8$GT$$GT$$GT$$GT$17h2c3d588f4469764cE>:
100005cf0: 08 00 40 f9 	ldr	x8, [x0]
100005cf4: 09 00 80 92 	mov	x9, #-1
100005cf8: 08 01 69 f8 	<unknown>
100005cfc: 1f 05 00 f1 	cmp	x8, #1
100005d00: 81 00 00 54 	b.ne	0x100005d10 <__ZN4core3ptr101drop_in_place$LT$alloc..sync..Arc$LT$std..sync..mutex..Mutex$LT$alloc..vec..Vec$LT$u8$GT$$GT$$GT$$GT$17h2c3d588f4469764cE+0x20>
100005d04: bf 39 03 d5 	dmb	ishld
100005d08: 00 00 40 f9 	ldr	x0, [x0]
100005d0c: e7 11 00 14 	b	0x10000a4a8 <__ZN5alloc4sync12Arc$LT$T$GT$9drop_slow17hfbdaaab5f62c66e2E>
100005d10: c0 03 5f d6 	ret

0000000100005d14 <__ZN4core3ptr1021drop_in_place$LT$core..slice..sort..merge_sort..RunVec$LT$alloc..slice..stable_sort$LT$$LP$gimli..common..DebugInfoOffset$C$gimli..common..DebugArangesOffset$RP$$C$alloc..slice..$LT$impl$u20$$u5b$$LP$gimli..common..DebugInfoOffset$C$gimli..common..DebugArangesOffset$RP$$u5d$$GT$..sort_by_key$LT$gimli..common..DebugInfoOffset$C$addr2line..ResDwarf$LT$gimli..read..endian_slice..EndianSlice$LT$gimli..endianity..LittleEndian$GT$$GT$..parse..$u7b$$u7b$closure$u7d$$u7d$$GT$..$u7b$$u7b$closure$u7d$$u7d$$GT$..$u7b$$u7b$closure$u7d$$u7d$$C$alloc..slice..stable_sort$LT$$LP$gimli..common..DebugInfoOffset$C$gimli..common..DebugArangesOffset$RP$$C$alloc..slice..$LT$impl$u20$$u5b$$LP$gimli..common..DebugInfoOffset$C$gimli..common..DebugArangesOffset$RP$$u5d$$GT$..sort_by_key$LT$gimli..common..DebugInfoOffset$C$addr2line..ResDwarf$LT$gimli..read..endian_slice..EndianSlice$LT$gimli..endianity..LittleEndian$GT$$GT$..parse..$u7b$$u7b$closure$u7d$$u7d$$GT$..$u7b$$u7b$closure$u7d$$u7d$$GT$..$u7b$$u7b$closure$u7d$$u7d$$GT$$GT$17h7364240140f138deE>:
100005d14: 21 ec 7c d3 	lsl	x1, x1, #4
100005d18: 02 01 80 52 	mov	w2, #8
100005d1c: 8b fe ff 17 	b	0x100005748 <___rust_dealloc>

0000000100005d20 <__ZN4core3ptr104drop_in_place$LT$alloc..vec..Vec$LT$$LP$usize$C$std..backtrace_rs..symbolize..gimli..Mapping$RP$$GT$$GT$17hd957823566adf816E>:
100005d20: f8 5f bc a9 	stp	x24, x23, [sp, #-64]!
100005d24: f6 57 01 a9 	stp	x22, x21, [sp, #16]
100005d28: f4 4f 02 a9 	stp	x20, x19, [sp, #32]
100005d2c: fd 7b 03 a9 	stp	x29, x30, [sp, #48]
100005d30: fd c3 00 91 	add	x29, sp, #48
100005d34: f3 03 00 aa 	mov	x19, x0
100005d38: 08 a4 40 a9 	ldp	x8, x9, [x0, #8]
100005d3c: 29 15 09 8b 	add	x9, x9, x9, lsl #5
100005d40: 35 f1 7d d3 	lsl	x21, x9, #3
100005d44: 16 01 15 8b 	add	x22, x8, x21
100005d48: f5 00 00 b4 	cbz	x21, 0x100005d64 <__ZN4core3ptr104drop_in_place$LT$alloc..vec..Vec$LT$$LP$usize$C$std..backtrace_rs..symbolize..gimli..Mapping$RP$$GT$$GT$17hd957823566adf816E+0x44>
100005d4c: 14 21 04 91 	add	x20, x8, #264
100005d50: 00 21 00 91 	add	x0, x8, #8
100005d54: b5 22 04 d1 	sub	x21, x21, #264
100005d58: e3 03 00 94 	bl	0x100006ce4 <__ZN4core3ptr65drop_in_place$LT$std..backtrace_rs..symbolize..gimli..Mapping$GT$17h7ed65f09cd485f04E>
100005d5c: e8 03 14 aa 	mov	x8, x20
100005d60: fa ff ff 17 	b	0x100005d48 <__ZN4core3ptr104drop_in_place$LT$alloc..vec..Vec$LT$$LP$usize$C$std..backtrace_rs..symbolize..gimli..Mapping$RP$$GT$$GT$17hd957823566adf816E+0x28>
100005d64: 68 02 40 f9 	ldr	x8, [x19]
100005d68: 48 01 00 b4 	cbz	x8, 0x100005d90 <__ZN4core3ptr104drop_in_place$LT$alloc..vec..Vec$LT$$LP$usize$C$std..backtrace_rs..symbolize..gimli..Mapping$RP$$GT$$GT$17hd957823566adf816E+0x70>
100005d6c: 60 06 40 f9 	ldr	x0, [x19, #8]
100005d70: 08 15 08 8b 	add	x8, x8, x8, lsl #5
100005d74: 01 f1 7d d3 	lsl	x1, x8, #3
100005d78: 02 01 80 52 	mov	w2, #8
100005d7c: fd 7b 43 a9 	ldp	x29, x30, [sp, #48]
100005d80: f4 4f 42 a9 	ldp	x20, x19, [sp, #32]
100005d84: f6 57 41 a9 	ldp	x22, x21, [sp, #16]
100005d88: f8 5f c4 a8 	ldp	x24, x23, [sp], #64
100005d8c: 6f fe ff 17 	b	0x100005748 <___rust_dealloc>
100005d90: fd 7b 43 a9 	ldp	x29, x30, [sp, #48]
100005d94: f4 4f 42 a9 	ldp	x20, x19, [sp, #32]
100005d98: f6 57 41 a9 	ldp	x22, x21, [sp, #16]
100005d9c: f8 5f c4 a8 	ldp	x24, x23, [sp], #64
100005da0: c0 03 5f d6 	ret
100005da4: f5 03 00 aa 	mov	x21, x0
100005da8: 9f 02 16 eb 	cmp	x20, x22
100005dac: c0 00 00 54 	b.eq	0x100005dc4 <__ZN4core3ptr104drop_in_place$LT$alloc..vec..Vec$LT$$LP$usize$C$std..backtrace_rs..symbolize..gimli..Mapping$RP$$GT$$GT$17hd957823566adf816E+0xa4>
100005db0: 97 22 04 91 	add	x23, x20, #264
100005db4: e0 03 14 aa 	mov	x0, x20
100005db8: 2b 05 00 94 	bl	0x100007264 <__ZN4core3ptr81drop_in_place$LT$$LP$usize$C$std..backtrace_rs..symbolize..gimli..Mapping$RP$$GT$17hc7f75ce4611fe819E>
100005dbc: f4 03 17 aa 	mov	x20, x23
100005dc0: fa ff ff 17 	b	0x100005da8 <__ZN4core3ptr104drop_in_place$LT$alloc..vec..Vec$LT$$LP$usize$C$std..backtrace_rs..symbolize..gimli..Mapping$RP$$GT$$GT$17hd957823566adf816E+0x88>
100005dc4: 60 06 40 a9 	ldp	x0, x1, [x19]
100005dc8: 1d 00 00 94 	bl	0x100005e3c <__ZN4core3ptr111drop_in_place$LT$alloc..raw_vec..RawVec$LT$$LP$usize$C$std..backtrace_rs..symbolize..gimli..Mapping$RP$$GT$$GT$17hc741a86c33c6eae7E>
100005dcc: e0 03 15 aa 	mov	x0, x21
100005dd0: f4 be 00 94 	bl	0x1000359a0 <_writev+0x1000359a0>
100005dd4: 4d be 00 94 	bl	0x100035708 <__ZN4core9panicking19panic_cannot_unwind17h0bac00b37026e68cE>

0000000100005dd8 <__ZN4core3ptr105drop_in_place$LT$core..result..Result$LT$alloc..ffi..c_str..CString$C$alloc..ffi..c_str..NulError$GT$$GT$17h9948bc3068ccc9ebE>:
100005dd8: 08 08 40 f9 	ldr	x8, [x0, #16]
100005ddc: e8 00 00 b4 	cbz	x8, 0x100005df8 <__ZN4core3ptr105drop_in_place$LT$core..result..Result$LT$alloc..ffi..c_str..CString$C$alloc..ffi..c_str..NulError$GT$$GT$17h9948bc3068ccc9ebE+0x20>
100005de0: 01 04 40 f9 	ldr	x1, [x0, #8]
100005de4: 81 01 00 b4 	cbz	x1, 0x100005e14 <__ZN4core3ptr105drop_in_place$LT$core..result..Result$LT$alloc..ffi..c_str..CString$C$alloc..ffi..c_str..NulError$GT$$GT$17h9948bc3068ccc9ebE+0x3c>
100005de8: e9 03 21 aa 	mvn	x9, x1
100005dec: 22 fd 7f d3 	lsr	x2, x9, #63
100005df0: e0 03 08 aa 	mov	x0, x8
100005df4: 55 fe ff 17 	b	0x100005748 <___rust_dealloc>
100005df8: 08 00 40 f9 	ldr	x8, [x0]
100005dfc: 1f 01 00 39 	strb	wzr, [x8]
100005e00: 01 04 40 f9 	ldr	x1, [x0, #8]
100005e04: 81 00 00 b4 	cbz	x1, 0x100005e14 <__ZN4core3ptr105drop_in_place$LT$core..result..Result$LT$alloc..ffi..c_str..CString$C$alloc..ffi..c_str..NulError$GT$$GT$17h9948bc3068ccc9ebE+0x3c>
100005e08: 00 00 40 f9 	ldr	x0, [x0]
100005e0c: 22 00 80 52 	mov	w2, #1
100005e10: 4e fe ff 17 	b	0x100005748 <___rust_dealloc>
100005e14: c0 03 5f d6 	ret

0000000100005e18 <__ZN4core3ptr107drop_in_place$LT$alloc..sync..Arc$LT$core..mem..maybe_uninit..MaybeUninit$LT$std..thread..Inner$GT$$GT$$GT$17hfac27e242cbf1beeE>:
100005e18: 08 00 40 f9 	ldr	x8, [x0]
100005e1c: 09 00 80 92 	mov	x9, #-1
100005e20: 08 01 69 f8 	<unknown>
100005e24: 1f 05 00 f1 	cmp	x8, #1
100005e28: 81 00 00 54 	b.ne	0x100005e38 <__ZN4core3ptr107drop_in_place$LT$alloc..sync..Arc$LT$core..mem..maybe_uninit..MaybeUninit$LT$std..thread..Inner$GT$$GT$$GT$17hfac27e242cbf1beeE+0x20>
100005e2c: bf 39 03 d5 	dmb	ishld
100005e30: 00 00 40 f9 	ldr	x0, [x0]
100005e34: 32 11 00 14 	b	0x10000a2fc <__ZN5alloc4sync12Arc$LT$T$GT$9drop_slow17h26dfbfcfd370d7feE>
100005e38: c0 03 5f d6 	ret

0000000100005e3c <__ZN4core3ptr111drop_in_place$LT$alloc..raw_vec..RawVec$LT$$LP$usize$C$std..backtrace_rs..symbolize..gimli..Mapping$RP$$GT$$GT$17hc741a86c33c6eae7E>:
100005e3c: e0 00 00 b4 	cbz	x0, 0x100005e58 <__ZN4core3ptr111drop_in_place$LT$alloc..raw_vec..RawVec$LT$$LP$usize$C$std..backtrace_rs..symbolize..gimli..Mapping$RP$$GT$$GT$17hc741a86c33c6eae7E+0x1c>
100005e40: 08 14 00 8b 	add	x8, x0, x0, lsl #5
100005e44: 08 f1 7d d3 	lsl	x8, x8, #3
100005e48: e0 03 01 aa 	mov	x0, x1
100005e4c: e1 03 08 aa 	mov	x1, x8
100005e50: 02 01 80 52 	mov	w2, #8
100005e54: 3d fe ff 17 	b	0x100005748 <___rust_dealloc>
100005e58: c0 03 5f d6 	ret

0000000100005e5c <__ZN4core3ptr115drop_in_place$LT$core..cell..RefMut$LT$core..option..Option$LT$std..sys_common..thread_info..ThreadInfo$GT$$GT$$GT$17h4fa71c79e66f7024E>:
100005e5c: 08 00 40 f9 	ldr	x8, [x0]
100005e60: 08 05 00 91 	add	x8, x8, #1
100005e64: 08 00 00 f9 	str	x8, [x0]
100005e68: c0 03 5f d6 	ret

0000000100005e6c <__ZN4core3ptr118drop_in_place$LT$alloc..vec..Vec$LT$$LP$gimli..common..DebugInfoOffset$C$gimli..common..DebugArangesOffset$RP$$GT$$GT$17haf94562cd0a8275bE>:
100005e6c: c0 00 00 b4 	cbz	x0, 0x100005e84 <__ZN4core3ptr118drop_in_place$LT$alloc..vec..Vec$LT$$LP$gimli..common..DebugInfoOffset$C$gimli..common..DebugArangesOffset$RP$$GT$$GT$17haf94562cd0a8275bE+0x18>
100005e70: 08 ec 7c d3 	lsl	x8, x0, #4
100005e74: e0 03 01 aa 	mov	x0, x1
100005e78: e1 03 08 aa 	mov	x1, x8
100005e7c: 02 01 80 52 	mov	w2, #8
100005e80: 32 fe ff 17 	b	0x100005748 <___rust_dealloc>
100005e84: c0 03 5f d6 	ret

0000000100005e88 <__ZN4core3ptr119drop_in_place$LT$addr2line..lazy..LazyCell$LT$core..result..Result$LT$addr2line..Lines$C$gimli..read..Error$GT$$GT$$GT$17h1da8e443a4ee612cE>:
100005e88: 08 00 40 f9 	ldr	x8, [x0]
100005e8c: 68 00 00 b4 	cbz	x8, 0x100005e98 <__ZN4core3ptr119drop_in_place$LT$addr2line..lazy..LazyCell$LT$core..result..Result$LT$addr2line..Lines$C$gimli..read..Error$GT$$GT$$GT$17h1da8e443a4ee612cE+0x10>
100005e90: 00 20 00 91 	add	x0, x0, #8
100005e94: 47 05 00 14 	b	0x1000073b0 <__ZN4core3ptr86drop_in_place$LT$core..result..Result$LT$addr2line..Lines$C$gimli..read..Error$GT$$GT$17h69aecbf47008dfefE>
100005e98: c0 03 5f d6 	ret

0000000100005e9c <__ZN4core3ptr121drop_in_place$LT$core..option..Option$LT$core..option..Option$LT$std..backtrace_rs..symbolize..gimli..Mapping$GT$$GT$$GT$17hdcf6ba98fc856d89E>:
100005e9c: 08 e0 41 39 	ldrb	w8, [x0, #120]
100005ea0: 1f 09 00 71 	cmp	w8, #2
100005ea4: 42 00 00 54 	b.hs	0x100005eac <__ZN4core3ptr121drop_in_place$LT$core..option..Option$LT$core..option..Option$LT$std..backtrace_rs..symbolize..gimli..Mapping$GT$$GT$$GT$17hdcf6ba98fc856d89E+0x10>
100005ea8: 8f 03 00 14 	b	0x100006ce4 <__ZN4core3ptr65drop_in_place$LT$std..backtrace_rs..symbolize..gimli..Mapping$GT$17h7ed65f09cd485f04E>
100005eac: c0 03 5f d6 	ret

0000000100005eb0 <__ZN4core3ptr123drop_in_place$LT$addr2line..ResUnit$LT$gimli..read..endian_slice..EndianSlice$LT$gimli..endianity..LittleEndian$GT$$GT$$GT$17hc2c5ac6f4fc447b9E>:
100005eb0: f4 4f be a9 	stp	x20, x19, [sp, #-32]!
100005eb4: fd 7b 01 a9 	stp	x29, x30, [sp, #16]
100005eb8: fd 43 00 91 	add	x29, sp, #16
100005ebc: f3 03 00 aa 	mov	x19, x0
100005ec0: 00 80 00 91 	add	x0, x0, #32
100005ec4: 05 03 00 94 	bl	0x100006ad8 <__ZN4core3ptr55drop_in_place$LT$gimli..read..abbrev..Abbreviations$GT$17h6f15ddc93af64265E>
100005ec8: 60 62 03 91 	add	x0, x19, #216
100005ecc: 4e 01 00 94 	bl	0x100006404 <__ZN4core3ptr181drop_in_place$LT$core..option..Option$LT$gimli..read..line..IncompleteLineProgram$LT$gimli..read..endian_slice..EndianSlice$LT$gimli..endianity..LittleEndian$GT$$C$usize$GT$$GT$$GT$17h7338cfb3840fe46cE>
100005ed0: 68 ee 40 f9 	ldr	x8, [x19, #472]
100005ed4: 68 00 00 b4 	cbz	x8, 0x100005ee0 <__ZN4core3ptr123drop_in_place$LT$addr2line..ResUnit$LT$gimli..read..endian_slice..EndianSlice$LT$gimli..endianity..LittleEndian$GT$$GT$$GT$17hc2c5ac6f4fc447b9E+0x30>
100005ed8: 60 82 07 91 	add	x0, x19, #480
100005edc: 35 05 00 94 	bl	0x1000073b0 <__ZN4core3ptr86drop_in_place$LT$core..result..Result$LT$addr2line..Lines$C$gimli..read..Error$GT$$GT$17h69aecbf47008dfefE>
100005ee0: 68 02 41 f9 	ldr	x8, [x19, #512]
100005ee4: a8 00 00 b4 	cbz	x8, 0x100005ef8 <__ZN4core3ptr123drop_in_place$LT$addr2line..ResUnit$LT$gimli..read..endian_slice..EndianSlice$LT$gimli..endianity..LittleEndian$GT$$GT$$GT$17hc2c5ac6f4fc447b9E+0x48>
100005ee8: 60 22 08 91 	add	x0, x19, #520
100005eec: fd 7b 41 a9 	ldp	x29, x30, [sp, #16]
100005ef0: f4 4f c2 a8 	ldp	x20, x19, [sp], #32
100005ef4: 69 01 00 14 	b	0x100006498 <__ZN4core3ptr184drop_in_place$LT$core..result..Result$LT$addr2line..function..Functions$LT$gimli..read..endian_slice..EndianSlice$LT$gimli..endianity..LittleEndian$GT$$GT$$C$gimli..read..Error$GT$$GT$17h166a71cf48b1d41dE>
100005ef8: fd 7b 41 a9 	ldp	x29, x30, [sp, #16]
100005efc: f4 4f c2 a8 	ldp	x20, x19, [sp], #32
100005f00: c0 03 5f d6 	ret
100005f04: f4 03 00 aa 	mov	x20, x0
100005f08: 60 62 03 91 	add	x0, x19, #216
100005f0c: 3e 01 00 94 	bl	0x100006404 <__ZN4core3ptr181drop_in_place$LT$core..option..Option$LT$gimli..read..line..IncompleteLineProgram$LT$gimli..read..endian_slice..EndianSlice$LT$gimli..endianity..LittleEndian$GT$$C$usize$GT$$GT$$GT$17h7338cfb3840fe46cE>
100005f10: 60 62 07 91 	add	x0, x19, #472
100005f14: dd ff ff 97 	bl	0x100005e88 <__ZN4core3ptr119drop_in_place$LT$addr2line..lazy..LazyCell$LT$core..result..Result$LT$addr2line..Lines$C$gimli..read..Error$GT$$GT$$GT$17h1da8e443a4ee612cE>
100005f18: 60 02 08 91 	add	x0, x19, #512
100005f1c: 9c 01 00 94 	bl	0x10000658c <__ZN4core3ptr217drop_in_place$LT$addr2line..lazy..LazyCell$LT$core..result..Result$LT$addr2line..function..Functions$LT$gimli..read..endian_slice..EndianSlice$LT$gimli..endianity..LittleEndian$GT$$GT$$C$gimli..read..Error$GT$$GT$$GT$17h83d938b976166f8dE>
100005f20: e0 03 14 aa 	mov	x0, x20
100005f24: 9f be 00 94 	bl	0x1000359a0 <_writev+0x1000359a0>

0000000100005f28 <__ZN4core3ptr124drop_in_place$LT$addr2line..ResDwarf$LT$gimli..read..endian_slice..EndianSlice$LT$gimli..endianity..LittleEndian$GT$$GT$$GT$17h48db50b97bd4a624E>:
100005f28: f8 5f bc a9 	stp	x24, x23, [sp, #-64]!
100005f2c: f6 57 01 a9 	stp	x22, x21, [sp, #16]
100005f30: f4 4f 02 a9 	stp	x20, x19, [sp, #32]
100005f34: fd 7b 03 a9 	stp	x29, x30, [sp, #48]
100005f38: fd c3 00 91 	add	x29, sp, #48
100005f3c: f3 03 00 aa 	mov	x19, x0
100005f40: 08 04 40 f9 	ldr	x8, [x0, #8]
100005f44: a8 00 00 b4 	cbz	x8, 0x100005f58 <__ZN4core3ptr124drop_in_place$LT$addr2line..ResDwarf$LT$gimli..read..endian_slice..EndianSlice$LT$gimli..endianity..LittleEndian$GT$$GT$$GT$17h48db50b97bd4a624E+0x30>
100005f48: 60 0a 40 f9 	ldr	x0, [x19, #16]
100005f4c: 01 e9 7b d3 	lsl	x1, x8, #5
100005f50: 02 01 80 52 	mov	w2, #8
100005f54: fd fd ff 97 	bl	0x100005748 <___rust_dealloc>
100005f58: 60 a2 42 a9 	ldp	x0, x8, [x19, #40]
100005f5c: 09 46 80 52 	mov	w9, #560
100005f60: 14 7d 09 9b 	mul	x20, x8, x9
100005f64: 16 00 14 8b 	add	x22, x0, x20
100005f68: d4 00 00 b4 	cbz	x20, 0x100005f80 <__ZN4core3ptr124drop_in_place$LT$addr2line..ResDwarf$LT$gimli..read..endian_slice..EndianSlice$LT$gimli..endianity..LittleEndian$GT$$GT$$GT$17h48db50b97bd4a624E+0x58>
100005f6c: 15 c0 08 91 	add	x21, x0, #560
100005f70: 94 c2 08 d1 	sub	x20, x20, #560
100005f74: cf ff ff 97 	bl	0x100005eb0 <__ZN4core3ptr123drop_in_place$LT$addr2line..ResUnit$LT$gimli..read..endian_slice..EndianSlice$LT$gimli..endianity..LittleEndian$GT$$GT$$GT$17hc2c5ac6f4fc447b9E>
100005f78: e0 03 15 aa 	mov	x0, x21
100005f7c: fb ff ff 17 	b	0x100005f68 <__ZN4core3ptr124drop_in_place$LT$addr2line..ResDwarf$LT$gimli..read..endian_slice..EndianSlice$LT$gimli..endianity..LittleEndian$GT$$GT$$GT$17h48db50b97bd4a624E+0x40>
100005f80: 68 12 40 f9 	ldr	x8, [x19, #32]
100005f84: c8 00 00 b4 	cbz	x8, 0x100005f9c <__ZN4core3ptr124drop_in_place$LT$addr2line..ResDwarf$LT$gimli..read..endian_slice..EndianSlice$LT$gimli..endianity..LittleEndian$GT$$GT$$GT$17h48db50b97bd4a624E+0x74>
100005f88: 60 16 40 f9 	ldr	x0, [x19, #40]
100005f8c: 09 46 80 52 	mov	w9, #560
100005f90: 01 7d 09 9b 	mul	x1, x8, x9
100005f94: 02 01 80 52 	mov	w2, #8
100005f98: ec fd ff 97 	bl	0x100005748 <___rust_dealloc>
100005f9c: e0 03 13 aa 	mov	x0, x19
100005fa0: 08 8c 43 f8 	ldr	x8, [x0, #56]!
100005fa4: 09 00 80 92 	mov	x9, #-1
100005fa8: 08 01 69 f8 	<unknown>
100005fac: 1f 05 00 f1 	cmp	x8, #1
100005fb0: 61 00 00 54 	b.ne	0x100005fbc <__ZN4core3ptr124drop_in_place$LT$addr2line..ResDwarf$LT$gimli..read..endian_slice..EndianSlice$LT$gimli..endianity..LittleEndian$GT$$GT$$GT$17h48db50b97bd4a624E+0x94>
100005fb4: bf 39 03 d5 	dmb	ishld
100005fb8: dd 10 00 94 	bl	0x10000a32c <__ZN5alloc4sync12Arc$LT$T$GT$9drop_slow17h366a35ba5850697aE>
100005fbc: 60 02 40 f9 	ldr	x0, [x19]
100005fc0: 40 01 00 b4 	cbz	x0, 0x100005fe8 <__ZN4core3ptr124drop_in_place$LT$addr2line..ResDwarf$LT$gimli..read..endian_slice..EndianSlice$LT$gimli..endianity..LittleEndian$GT$$GT$$GT$17h48db50b97bd4a624E+0xc0>
100005fc4: d9 ff ff 97 	bl	0x100005f28 <__ZN4core3ptr124drop_in_place$LT$addr2line..ResDwarf$LT$gimli..read..endian_slice..EndianSlice$LT$gimli..endianity..LittleEndian$GT$$GT$$GT$17h48db50b97bd4a624E>
100005fc8: 60 02 40 f9 	ldr	x0, [x19]
100005fcc: 01 08 80 52 	mov	w1, #64
100005fd0: 02 01 80 52 	mov	w2, #8
100005fd4: fd 7b 43 a9 	ldp	x29, x30, [sp, #48]
100005fd8: f4 4f 42 a9 	ldp	x20, x19, [sp, #32]
100005fdc: f6 57 41 a9 	ldp	x22, x21, [sp, #16]
100005fe0: f8 5f c4 a8 	ldp	x24, x23, [sp], #64
100005fe4: d9 fd ff 17 	b	0x100005748 <___rust_dealloc>
100005fe8: fd 7b 43 a9 	ldp	x29, x30, [sp, #48]
100005fec: f4 4f 42 a9 	ldp	x20, x19, [sp, #32]
100005ff0: f6 57 41 a9 	ldp	x22, x21, [sp, #16]
100005ff4: f8 5f c4 a8 	ldp	x24, x23, [sp], #64
100005ff8: c0 03 5f d6 	ret
100005ffc: f4 03 00 aa 	mov	x20, x0
100006000: 60 02 40 f9 	ldr	x0, [x19]
100006004: 5a 11 00 94 	bl	0x10000a56c <__ZN5alloc5alloc8box_free17h9e5c87d14f2ed297E>
100006008: 0f 00 00 14 	b	0x100006044 <__ZN4core3ptr124drop_in_place$LT$addr2line..ResDwarf$LT$gimli..read..endian_slice..EndianSlice$LT$gimli..endianity..LittleEndian$GT$$GT$$GT$17h48db50b97bd4a624E+0x11c>
10000600c: f4 03 00 aa 	mov	x20, x0
100006010: bf 02 16 eb 	cmp	x21, x22
100006014: c0 00 00 54 	b.eq	0x10000602c <__ZN4core3ptr124drop_in_place$LT$addr2line..ResDwarf$LT$gimli..read..endian_slice..EndianSlice$LT$gimli..endianity..LittleEndian$GT$$GT$$GT$17h48db50b97bd4a624E+0x104>
100006018: b7 c2 08 91 	add	x23, x21, #560
10000601c: e0 03 15 aa 	mov	x0, x21
100006020: a4 ff ff 97 	bl	0x100005eb0 <__ZN4core3ptr123drop_in_place$LT$addr2line..ResUnit$LT$gimli..read..endian_slice..EndianSlice$LT$gimli..endianity..LittleEndian$GT$$GT$$GT$17hc2c5ac6f4fc447b9E>
100006024: f5 03 17 aa 	mov	x21, x23
100006028: fa ff ff 17 	b	0x100006010 <__ZN4core3ptr124drop_in_place$LT$addr2line..ResDwarf$LT$gimli..read..endian_slice..EndianSlice$LT$gimli..endianity..LittleEndian$GT$$GT$$GT$17h48db50b97bd4a624E+0xe8>
10000602c: 60 06 42 a9 	ldp	x0, x1, [x19, #32]
100006030: 92 00 00 94 	bl	0x100006278 <__ZN4core3ptr153drop_in_place$LT$alloc..raw_vec..RawVec$LT$addr2line..ResUnit$LT$gimli..read..endian_slice..EndianSlice$LT$gimli..endianity..LittleEndian$GT$$GT$$GT$$GT$17h108ea1a965cd6d8cE>
100006034: 60 e2 00 91 	add	x0, x19, #56
100006038: 98 00 00 94 	bl	0x100006298 <__ZN4core3ptr154drop_in_place$LT$alloc..sync..Arc$LT$gimli..read..dwarf..Dwarf$LT$gimli..read..endian_slice..EndianSlice$LT$gimli..endianity..LittleEndian$GT$$GT$$GT$$GT$17h35b23b084665ac01E>
10000603c: e0 03 13 aa 	mov	x0, x19
100006040: dc 00 00 94 	bl	0x1000063b0 <__ZN4core3ptr177drop_in_place$LT$core..option..Option$LT$alloc..boxed..Box$LT$addr2line..ResDwarf$LT$gimli..read..endian_slice..EndianSlice$LT$gimli..endianity..LittleEndian$GT$$GT$$GT$$GT$$GT$17h04f5bc67018f26b9E>
100006044: e0 03 14 aa 	mov	x0, x20
100006048: 56 be 00 94 	bl	0x1000359a0 <_writev+0x1000359a0>
10000604c: af bd 00 94 	bl	0x100035708 <__ZN4core9panicking19panic_cannot_unwind17h0bac00b37026e68cE>
100006050: ae bd 00 94 	bl	0x100035708 <__ZN4core9panicking19panic_cannot_unwind17h0bac00b37026e68cE>

0000000100006054 <__ZN4core3ptr125drop_in_place$LT$addr2line..FrameIter$LT$gimli..read..endian_slice..EndianSlice$LT$gimli..endianity..LittleEndian$GT$$GT$$GT$17hb02baa0ba1d730c5E>:
100006054: 08 30 40 b9 	ldr	w8, [x0, #48]
100006058: 08 0d 00 51 	sub	w8, w8, #3
10000605c: 1f 09 00 71 	cmp	w8, #2
100006060: e3 00 00 54 	b.lo	0x10000607c <__ZN4core3ptr125drop_in_place$LT$addr2line..FrameIter$LT$gimli..read..endian_slice..EndianSlice$LT$gimli..endianity..LittleEndian$GT$$GT$$GT$17hb02baa0ba1d730c5E+0x28>
100006064: 08 00 40 f9 	ldr	x8, [x0]
100006068: a8 00 00 b4 	cbz	x8, 0x10000607c <__ZN4core3ptr125drop_in_place$LT$addr2line..FrameIter$LT$gimli..read..endian_slice..EndianSlice$LT$gimli..endianity..LittleEndian$GT$$GT$$GT$17hb02baa0ba1d730c5E+0x28>
10000606c: 00 0c 40 f9 	ldr	x0, [x0, #24]
100006070: 01 f1 7d d3 	lsl	x1, x8, #3
100006074: 02 01 80 52 	mov	w2, #8
100006078: b4 fd ff 17 	b	0x100005748 <___rust_dealloc>
10000607c: c0 03 5f d6 	ret

0000000100006080 <__ZN4core3ptr130drop_in_place$LT$gimli..read..dwarf..Dwarf$LT$gimli..read..endian_slice..EndianSlice$LT$gimli..endianity..LittleEndian$GT$$GT$$GT$17h48746552ae08d0b7E>:
100006080: 08 0c 4d f8 	ldr	x8, [x0, #208]!
100006084: e8 00 00 b4 	cbz	x8, 0x1000060a0 <__ZN4core3ptr130drop_in_place$LT$gimli..read..dwarf..Dwarf$LT$gimli..read..endian_slice..EndianSlice$LT$gimli..endianity..LittleEndian$GT$$GT$$GT$17h48746552ae08d0b7E+0x20>
100006088: 09 00 80 92 	mov	x9, #-1
10000608c: 08 01 69 f8 	<unknown>
100006090: 1f 05 00 f1 	cmp	x8, #1
100006094: 61 00 00 54 	b.ne	0x1000060a0 <__ZN4core3ptr130drop_in_place$LT$gimli..read..dwarf..Dwarf$LT$gimli..read..endian_slice..EndianSlice$LT$gimli..endianity..LittleEndian$GT$$GT$$GT$17h48746552ae08d0b7E+0x20>
100006098: bf 39 03 d5 	dmb	ishld
10000609c: a4 10 00 14 	b	0x10000a32c <__ZN5alloc4sync12Arc$LT$T$GT$9drop_slow17h366a35ba5850697aE>
1000060a0: c0 03 5f d6 	ret

00000001000060a4 <__ZN4core3ptr137drop_in_place$LT$gimli..read..dwarf..Unit$LT$gimli..read..endian_slice..EndianSlice$LT$gimli..endianity..LittleEndian$GT$$C$usize$GT$$GT$17h5185a0f7121d4814E>:
1000060a4: f4 4f be a9 	stp	x20, x19, [sp, #-32]!
1000060a8: fd 7b 01 a9 	stp	x29, x30, [sp, #16]
1000060ac: fd 43 00 91 	add	x29, sp, #16
1000060b0: f3 03 00 aa 	mov	x19, x0
1000060b4: 00 80 00 91 	add	x0, x0, #32
1000060b8: 88 02 00 94 	bl	0x100006ad8 <__ZN4core3ptr55drop_in_place$LT$gimli..read..abbrev..Abbreviations$GT$17h6f15ddc93af64265E>
1000060bc: 60 62 03 91 	add	x0, x19, #216
1000060c0: fd 7b 41 a9 	ldp	x29, x30, [sp, #16]
1000060c4: f4 4f c2 a8 	ldp	x20, x19, [sp], #32
1000060c8: cf 00 00 14 	b	0x100006404 <__ZN4core3ptr181drop_in_place$LT$core..option..Option$LT$gimli..read..line..IncompleteLineProgram$LT$gimli..read..endian_slice..EndianSlice$LT$gimli..endianity..LittleEndian$GT$$C$usize$GT$$GT$$GT$17h7338cfb3840fe46cE>
1000060cc: f4 03 00 aa 	mov	x20, x0
1000060d0: 60 62 03 91 	add	x0, x19, #216
1000060d4: cc 00 00 94 	bl	0x100006404 <__ZN4core3ptr181drop_in_place$LT$core..option..Option$LT$gimli..read..line..IncompleteLineProgram$LT$gimli..read..endian_slice..EndianSlice$LT$gimli..endianity..LittleEndian$GT$$C$usize$GT$$GT$$GT$17h7338cfb3840fe46cE>
1000060d8: e0 03 14 aa 	mov	x0, x20
1000060dc: 31 be 00 94 	bl	0x1000359a0 <_writev+0x1000359a0>

00000001000060e0 <__ZN4core3ptr144drop_in_place$LT$alloc..vec..Vec$LT$core..option..Option$LT$core..option..Option$LT$std..backtrace_rs..symbolize..gimli..Mapping$GT$$GT$$GT$$GT$17ha300abc2b5d05f03E>:
1000060e0: f8 5f bc a9 	stp	x24, x23, [sp, #-64]!
1000060e4: f6 57 01 a9 	stp	x22, x21, [sp, #16]
1000060e8: f4 4f 02 a9 	stp	x20, x19, [sp, #32]
1000060ec: fd 7b 03 a9 	stp	x29, x30, [sp, #48]
1000060f0: fd c3 00 91 	add	x29, sp, #48
1000060f4: f3 03 00 aa 	mov	x19, x0
1000060f8: 08 08 40 f9 	ldr	x8, [x0, #16]
1000060fc: c8 01 00 b4 	cbz	x8, 0x100006134 <__ZN4core3ptr144drop_in_place$LT$alloc..vec..Vec$LT$core..option..Option$LT$core..option..Option$LT$std..backtrace_rs..symbolize..gimli..Mapping$GT$$GT$$GT$$GT$17ha300abc2b5d05f03E+0x54>
100006100: 60 06 40 f9 	ldr	x0, [x19, #8]
100006104: 16 20 08 8b 	add	x22, x0, x8, lsl #8
100006108: 15 dd 78 d3 	lsl	x21, x8, #8
10000610c: 04 00 00 14 	b	0x10000611c <__ZN4core3ptr144drop_in_place$LT$alloc..vec..Vec$LT$core..option..Option$LT$core..option..Option$LT$std..backtrace_rs..symbolize..gimli..Mapping$GT$$GT$$GT$$GT$17ha300abc2b5d05f03E+0x3c>
100006110: e0 03 14 aa 	mov	x0, x20
100006114: b5 02 04 f1 	subs	x21, x21, #256
100006118: e0 00 00 54 	b.eq	0x100006134 <__ZN4core3ptr144drop_in_place$LT$alloc..vec..Vec$LT$core..option..Option$LT$core..option..Option$LT$std..backtrace_rs..symbolize..gimli..Mapping$GT$$GT$$GT$$GT$17ha300abc2b5d05f03E+0x54>
10000611c: 14 00 04 91 	add	x20, x0, #256
100006120: 08 e0 41 39 	ldrb	w8, [x0, #120]
100006124: 1f 05 00 71 	cmp	w8, #1
100006128: 48 ff ff 54 	b.hi	0x100006110 <__ZN4core3ptr144drop_in_place$LT$alloc..vec..Vec$LT$core..option..Option$LT$core..option..Option$LT$std..backtrace_rs..symbolize..gimli..Mapping$GT$$GT$$GT$$GT$17ha300abc2b5d05f03E+0x30>
10000612c: ee 02 00 94 	bl	0x100006ce4 <__ZN4core3ptr65drop_in_place$LT$std..backtrace_rs..symbolize..gimli..Mapping$GT$17h7ed65f09cd485f04E>
100006130: f8 ff ff 17 	b	0x100006110 <__ZN4core3ptr144drop_in_place$LT$alloc..vec..Vec$LT$core..option..Option$LT$core..option..Option$LT$std..backtrace_rs..symbolize..gimli..Mapping$GT$$GT$$GT$$GT$17ha300abc2b5d05f03E+0x30>
100006134: 68 02 40 f9 	ldr	x8, [x19]
100006138: 28 01 00 b4 	cbz	x8, 0x10000615c <__ZN4core3ptr144drop_in_place$LT$alloc..vec..Vec$LT$core..option..Option$LT$core..option..Option$LT$std..backtrace_rs..symbolize..gimli..Mapping$GT$$GT$$GT$$GT$17ha300abc2b5d05f03E+0x7c>
10000613c: 60 06 40 f9 	ldr	x0, [x19, #8]
100006140: 01 dd 78 d3 	lsl	x1, x8, #8
100006144: 02 01 80 52 	mov	w2, #8
100006148: fd 7b 43 a9 	ldp	x29, x30, [sp, #48]
10000614c: f4 4f 42 a9 	ldp	x20, x19, [sp, #32]
100006150: f6 57 41 a9 	ldp	x22, x21, [sp, #16]
100006154: f8 5f c4 a8 	ldp	x24, x23, [sp], #64
100006158: 7c fd ff 17 	b	0x100005748 <___rust_dealloc>
10000615c: fd 7b 43 a9 	ldp	x29, x30, [sp, #48]
100006160: f4 4f 42 a9 	ldp	x20, x19, [sp, #32]
100006164: f6 57 41 a9 	ldp	x22, x21, [sp, #16]
100006168: f8 5f c4 a8 	ldp	x24, x23, [sp], #64
10000616c: c0 03 5f d6 	ret
100006170: f5 03 00 aa 	mov	x21, x0
100006174: 9f 02 16 eb 	cmp	x20, x22
100006178: c0 00 00 54 	b.eq	0x100006190 <__ZN4core3ptr144drop_in_place$LT$alloc..vec..Vec$LT$core..option..Option$LT$core..option..Option$LT$std..backtrace_rs..symbolize..gimli..Mapping$GT$$GT$$GT$$GT$17ha300abc2b5d05f03E+0xb0>
10000617c: 97 02 04 91 	add	x23, x20, #256
100006180: e0 03 14 aa 	mov	x0, x20
100006184: 46 ff ff 97 	bl	0x100005e9c <__ZN4core3ptr121drop_in_place$LT$core..option..Option$LT$core..option..Option$LT$std..backtrace_rs..symbolize..gimli..Mapping$GT$$GT$$GT$17hdcf6ba98fc856d89E>
100006188: f4 03 17 aa 	mov	x20, x23
10000618c: fa ff ff 17 	b	0x100006174 <__ZN4core3ptr144drop_in_place$LT$alloc..vec..Vec$LT$core..option..Option$LT$core..option..Option$LT$std..backtrace_rs..symbolize..gimli..Mapping$GT$$GT$$GT$$GT$17ha300abc2b5d05f03E+0x94>
100006190: 60 06 40 a9 	ldp	x0, x1, [x19]
100006194: 32 00 00 94 	bl	0x10000625c <__ZN4core3ptr151drop_in_place$LT$alloc..raw_vec..RawVec$LT$core..option..Option$LT$core..option..Option$LT$std..backtrace_rs..symbolize..gimli..Mapping$GT$$GT$$GT$$GT$17hc49d0274a9e22191E>
100006198: e0 03 15 aa 	mov	x0, x21
10000619c: 01 be 00 94 	bl	0x1000359a0 <_writev+0x1000359a0>
1000061a0: 5a bd 00 94 	bl	0x100035708 <__ZN4core9panicking19panic_cannot_unwind17h0bac00b37026e68cE>

00000001000061a4 <__ZN4core3ptr146drop_in_place$LT$alloc..vec..Vec$LT$addr2line..ResUnit$LT$gimli..read..endian_slice..EndianSlice$LT$gimli..endianity..LittleEndian$GT$$GT$$GT$$GT$17h2fd248e93cbeeb75E>:
1000061a4: f8 5f bc a9 	stp	x24, x23, [sp, #-64]!
1000061a8: f6 57 01 a9 	stp	x22, x21, [sp, #16]
1000061ac: f4 4f 02 a9 	stp	x20, x19, [sp, #32]
1000061b0: fd 7b 03 a9 	stp	x29, x30, [sp, #48]
1000061b4: fd c3 00 91 	add	x29, sp, #48
1000061b8: f3 03 00 aa 	mov	x19, x0
1000061bc: 00 04 40 f9 	ldr	x0, [x0, #8]
1000061c0: 68 0a 40 f9 	ldr	x8, [x19, #16]
1000061c4: 09 46 80 52 	mov	w9, #560
1000061c8: 15 7d 09 9b 	mul	x21, x8, x9
1000061cc: 16 00 15 8b 	add	x22, x0, x21
1000061d0: d5 00 00 b4 	cbz	x21, 0x1000061e8 <__ZN4core3ptr146drop_in_place$LT$alloc..vec..Vec$LT$addr2line..ResUnit$LT$gimli..read..endian_slice..EndianSlice$LT$gimli..endianity..LittleEndian$GT$$GT$$GT$$GT$17h2fd248e93cbeeb75E+0x44>
1000061d4: 14 c0 08 91 	add	x20, x0, #560
1000061d8: b5 c2 08 d1 	sub	x21, x21, #560
1000061dc: 35 ff ff 97 	bl	0x100005eb0 <__ZN4core3ptr123drop_in_place$LT$addr2line..ResUnit$LT$gimli..read..endian_slice..EndianSlice$LT$gimli..endianity..LittleEndian$GT$$GT$$GT$17hc2c5ac6f4fc447b9E>
1000061e0: e0 03 14 aa 	mov	x0, x20
1000061e4: fb ff ff 17 	b	0x1000061d0 <__ZN4core3ptr146drop_in_place$LT$alloc..vec..Vec$LT$addr2line..ResUnit$LT$gimli..read..endian_slice..EndianSlice$LT$gimli..endianity..LittleEndian$GT$$GT$$GT$$GT$17h2fd248e93cbeeb75E+0x2c>
1000061e8: 68 02 40 f9 	ldr	x8, [x19]
1000061ec: 48 01 00 b4 	cbz	x8, 0x100006214 <__ZN4core3ptr146drop_in_place$LT$alloc..vec..Vec$LT$addr2line..ResUnit$LT$gimli..read..endian_slice..EndianSlice$LT$gimli..endianity..LittleEndian$GT$$GT$$GT$$GT$17h2fd248e93cbeeb75E+0x70>
1000061f0: 60 06 40 f9 	ldr	x0, [x19, #8]
1000061f4: 09 46 80 52 	mov	w9, #560
1000061f8: 01 7d 09 9b 	mul	x1, x8, x9
1000061fc: 02 01 80 52 	mov	w2, #8
100006200: fd 7b 43 a9 	ldp	x29, x30, [sp, #48]
100006204: f4 4f 42 a9 	ldp	x20, x19, [sp, #32]
100006208: f6 57 41 a9 	ldp	x22, x21, [sp, #16]
10000620c: f8 5f c4 a8 	ldp	x24, x23, [sp], #64
100006210: 4e fd ff 17 	b	0x100005748 <___rust_dealloc>
100006214: fd 7b 43 a9 	ldp	x29, x30, [sp, #48]
100006218: f4 4f 42 a9 	ldp	x20, x19, [sp, #32]
10000621c: f6 57 41 a9 	ldp	x22, x21, [sp, #16]
100006220: f8 5f c4 a8 	ldp	x24, x23, [sp], #64
100006224: c0 03 5f d6 	ret
100006228: f5 03 00 aa 	mov	x21, x0
10000622c: 9f 02 16 eb 	cmp	x20, x22
100006230: c0 00 00 54 	b.eq	0x100006248 <__ZN4core3ptr146drop_in_place$LT$alloc..vec..Vec$LT$addr2line..ResUnit$LT$gimli..read..endian_slice..EndianSlice$LT$gimli..endianity..LittleEndian$GT$$GT$$GT$$GT$17h2fd248e93cbeeb75E+0xa4>
100006234: 97 c2 08 91 	add	x23, x20, #560
100006238: e0 03 14 aa 	mov	x0, x20
10000623c: 1d ff ff 97 	bl	0x100005eb0 <__ZN4core3ptr123drop_in_place$LT$addr2line..ResUnit$LT$gimli..read..endian_slice..EndianSlice$LT$gimli..endianity..LittleEndian$GT$$GT$$GT$17hc2c5ac6f4fc447b9E>
100006240: f4 03 17 aa 	mov	x20, x23
100006244: fa ff ff 17 	b	0x10000622c <__ZN4core3ptr146drop_in_place$LT$alloc..vec..Vec$LT$addr2line..ResUnit$LT$gimli..read..endian_slice..EndianSlice$LT$gimli..endianity..LittleEndian$GT$$GT$$GT$$GT$17h2fd248e93cbeeb75E+0x88>
100006248: 60 06 40 a9 	ldp	x0, x1, [x19]
10000624c: 0b 00 00 94 	bl	0x100006278 <__ZN4core3ptr153drop_in_place$LT$alloc..raw_vec..RawVec$LT$addr2line..ResUnit$LT$gimli..read..endian_slice..EndianSlice$LT$gimli..endianity..LittleEndian$GT$$GT$$GT$$GT$17h108ea1a965cd6d8cE>
100006250: e0 03 15 aa 	mov	x0, x21
100006254: d3 bd 00 94 	bl	0x1000359a0 <_writev+0x1000359a0>
100006258: 2c bd 00 94 	bl	0x100035708 <__ZN4core9panicking19panic_cannot_unwind17h0bac00b37026e68cE>

000000010000625c <__ZN4core3ptr151drop_in_place$LT$alloc..raw_vec..RawVec$LT$core..option..Option$LT$core..option..Option$LT$std..backtrace_rs..symbolize..gimli..Mapping$GT$$GT$$GT$$GT$17hc49d0274a9e22191E>:
10000625c: c0 00 00 b4 	cbz	x0, 0x100006274 <__ZN4core3ptr151drop_in_place$LT$alloc..raw_vec..RawVec$LT$core..option..Option$LT$core..option..Option$LT$std..backtrace_rs..symbolize..gimli..Mapping$GT$$GT$$GT$$GT$17hc49d0274a9e22191E+0x18>
100006260: 08 dc 78 d3 	lsl	x8, x0, #8
100006264: e0 03 01 aa 	mov	x0, x1
100006268: e1 03 08 aa 	mov	x1, x8
10000626c: 02 01 80 52 	mov	w2, #8
100006270: 36 fd ff 17 	b	0x100005748 <___rust_dealloc>
100006274: c0 03 5f d6 	ret

0000000100006278 <__ZN4core3ptr153drop_in_place$LT$alloc..raw_vec..RawVec$LT$addr2line..ResUnit$LT$gimli..read..endian_slice..EndianSlice$LT$gimli..endianity..LittleEndian$GT$$GT$$GT$$GT$17h108ea1a965cd6d8cE>:
100006278: e0 00 00 b4 	cbz	x0, 0x100006294 <__ZN4core3ptr153drop_in_place$LT$alloc..raw_vec..RawVec$LT$addr2line..ResUnit$LT$gimli..read..endian_slice..EndianSlice$LT$gimli..endianity..LittleEndian$GT$$GT$$GT$$GT$17h108ea1a965cd6d8cE+0x1c>
10000627c: 08 46 80 52 	mov	w8, #560
100006280: 08 7c 08 9b 	mul	x8, x0, x8
100006284: e0 03 01 aa 	mov	x0, x1
100006288: e1 03 08 aa 	mov	x1, x8
10000628c: 02 01 80 52 	mov	w2, #8
100006290: 2e fd ff 17 	b	0x100005748 <___rust_dealloc>
100006294: c0 03 5f d6 	ret

0000000100006298 <__ZN4core3ptr154drop_in_place$LT$alloc..sync..Arc$LT$gimli..read..dwarf..Dwarf$LT$gimli..read..endian_slice..EndianSlice$LT$gimli..endianity..LittleEndian$GT$$GT$$GT$$GT$17h35b23b084665ac01E>:
100006298: 08 00 40 f9 	ldr	x8, [x0]
10000629c: 09 00 80 92 	mov	x9, #-1
1000062a0: 08 01 69 f8 	<unknown>
1000062a4: 1f 05 00 f1 	cmp	x8, #1
1000062a8: 61 00 00 54 	b.ne	0x1000062b4 <__ZN4core3ptr154drop_in_place$LT$alloc..sync..Arc$LT$gimli..read..dwarf..Dwarf$LT$gimli..read..endian_slice..EndianSlice$LT$gimli..endianity..LittleEndian$GT$$GT$$GT$$GT$17h35b23b084665ac01E+0x1c>
1000062ac: bf 39 03 d5 	dmb	ishld
1000062b0: 1f 10 00 14 	b	0x10000a32c <__ZN5alloc4sync12Arc$LT$T$GT$9drop_slow17h366a35ba5850697aE>
1000062b4: c0 03 5f d6 	ret

00000001000062b8 <__ZN4core3ptr159drop_in_place$LT$alloc..sync..ArcInner$LT$gimli..read..dwarf..Dwarf$LT$gimli..read..endian_slice..EndianSlice$LT$gimli..endianity..LittleEndian$GT$$GT$$GT$$GT$17h49e79ed6ecca7884E>:
1000062b8: 08 0c 4e f8 	ldr	x8, [x0, #224]!
1000062bc: e8 00 00 b4 	cbz	x8, 0x1000062d8 <__ZN4core3ptr159drop_in_place$LT$alloc..sync..ArcInner$LT$gimli..read..dwarf..Dwarf$LT$gimli..read..endian_slice..EndianSlice$LT$gimli..endianity..LittleEndian$GT$$GT$$GT$$GT$17h49e79ed6ecca7884E+0x20>
1000062c0: 09 00 80 92 	mov	x9, #-1
1000062c4: 08 01 69 f8 	<unknown>
1000062c8: 1f 05 00 f1 	cmp	x8, #1
1000062cc: 61 00 00 54 	b.ne	0x1000062d8 <__ZN4core3ptr159drop_in_place$LT$alloc..sync..ArcInner$LT$gimli..read..dwarf..Dwarf$LT$gimli..read..endian_slice..EndianSlice$LT$gimli..endianity..LittleEndian$GT$$GT$$GT$$GT$17h49e79ed6ecca7884E+0x20>
1000062d0: bf 39 03 d5 	dmb	ishld
1000062d4: 16 10 00 14 	b	0x10000a32c <__ZN5alloc4sync12Arc$LT$T$GT$9drop_slow17h366a35ba5850697aE>
1000062d8: c0 03 5f d6 	ret

00000001000062dc <__ZN4core3ptr164drop_in_place$LT$alloc..vec..Vec$LT$addr2line..function..InlinedFunction$LT$gimli..read..endian_slice..EndianSlice$LT$gimli..endianity..LittleEndian$GT$$GT$$GT$$GT$17h43f23419c0740784E>:
1000062dc: 08 00 40 f9 	ldr	x8, [x0]
1000062e0: c8 00 00 b4 	cbz	x8, 0x1000062f8 <__ZN4core3ptr164drop_in_place$LT$alloc..vec..Vec$LT$addr2line..function..InlinedFunction$LT$gimli..read..endian_slice..EndianSlice$LT$gimli..endianity..LittleEndian$GT$$GT$$GT$$GT$17h43f23419c0740784E+0x1c>
1000062e4: 00 04 40 f9 	ldr	x0, [x0, #8]
1000062e8: 08 09 08 8b 	add	x8, x8, x8, lsl #2
1000062ec: 01 f1 7d d3 	lsl	x1, x8, #3
1000062f0: 02 01 80 52 	mov	w2, #8
1000062f4: 15 fd ff 17 	b	0x100005748 <___rust_dealloc>
1000062f8: c0 03 5f d6 	ret

00000001000062fc <__ZN4core3ptr164drop_in_place$LT$alloc..vec..Vec$LT$gimli..read..line..FileEntry$LT$gimli..read..endian_slice..EndianSlice$LT$gimli..endianity..LittleEndian$GT$$C$usize$GT$$GT$$GT$17h267d048b01ad3df2E>:
1000062fc: 08 00 40 f9 	ldr	x8, [x0]
100006300: a8 00 00 b4 	cbz	x8, 0x100006314 <__ZN4core3ptr164drop_in_place$LT$alloc..vec..Vec$LT$gimli..read..line..FileEntry$LT$gimli..read..endian_slice..EndianSlice$LT$gimli..endianity..LittleEndian$GT$$C$usize$GT$$GT$$GT$17h267d048b01ad3df2E+0x18>
100006304: 00 04 40 f9 	ldr	x0, [x0, #8]
100006308: 01 e5 7a d3 	lsl	x1, x8, #6
10000630c: 02 01 80 52 	mov	w2, #8
100006310: 0e fd ff 17 	b	0x100005748 <___rust_dealloc>
100006314: c0 03 5f d6 	ret

0000000100006318 <__ZN4core3ptr168drop_in_place$LT$alloc..vec..Vec$LT$$RF$addr2line..function..InlinedFunction$LT$gimli..read..endian_slice..EndianSlice$LT$gimli..endianity..LittleEndian$GT$$GT$$GT$$GT$17h449c61e45f4d85b8E>:
100006318: c0 00 00 b4 	cbz	x0, 0x100006330 <__ZN4core3ptr168drop_in_place$LT$alloc..vec..Vec$LT$$RF$addr2line..function..InlinedFunction$LT$gimli..read..endian_slice..EndianSlice$LT$gimli..endianity..LittleEndian$GT$$GT$$GT$$GT$17h449c61e45f4d85b8E+0x18>
10000631c: 08 f0 7d d3 	lsl	x8, x0, #3
100006320: e0 03 01 aa 	mov	x0, x1
100006324: e1 03 08 aa 	mov	x1, x8
100006328: 02 01 80 52 	mov	w2, #8
10000632c: 07 fd ff 17 	b	0x100005748 <___rust_dealloc>
100006330: c0 03 5f d6 	ret

0000000100006334 <__ZN4core3ptr169drop_in_place$LT$alloc..vec..Vec$LT$gimli..read..unit..AttributeValue$LT$gimli..read..endian_slice..EndianSlice$LT$gimli..endianity..LittleEndian$GT$$C$usize$GT$$GT$$GT$17hef5deb50c9a89ff7E>:
100006334: 08 00 40 f9 	ldr	x8, [x0]
100006338: c8 00 00 b4 	cbz	x8, 0x100006350 <__ZN4core3ptr169drop_in_place$LT$alloc..vec..Vec$LT$gimli..read..unit..AttributeValue$LT$gimli..read..endian_slice..EndianSlice$LT$gimli..endianity..LittleEndian$GT$$C$usize$GT$$GT$$GT$17hef5deb50c9a89ff7E+0x1c>
10000633c: 00 04 40 f9 	ldr	x0, [x0, #8]
100006340: 08 05 08 8b 	add	x8, x8, x8, lsl #1
100006344: 01 f1 7d d3 	lsl	x1, x8, #3
100006348: 02 01 80 52 	mov	w2, #8
10000634c: ff fc ff 17 	b	0x100005748 <___rust_dealloc>
100006350: c0 03 5f d6 	ret

0000000100006354 <__ZN4core3ptr169drop_in_place$LT$std..sync..remutex..ReentrantMutexGuard$LT$core..cell..RefCell$LT$std..io..buffered..linewriter..LineWriter$LT$std..io..stdio..StdoutRaw$GT$$GT$$GT$$GT$17he9d13e6698d65840E>:
100006354: fd 7b bf a9 	stp	x29, x30, [sp, #-16]!
100006358: fd 03 00 91 	mov	x29, sp
10000635c: 08 38 40 b9 	ldr	w8, [x0, #56]
100006360: 08 05 00 71 	subs	w8, w8, #1
100006364: 08 38 00 b9 	str	w8, [x0, #56]
100006368: 60 00 00 54 	b.eq	0x100006374 <__ZN4core3ptr169drop_in_place$LT$std..sync..remutex..ReentrantMutexGuard$LT$core..cell..RefCell$LT$std..io..buffered..linewriter..LineWriter$LT$std..io..stdio..StdoutRaw$GT$$GT$$GT$$GT$17he9d13e6698d65840E+0x20>
10000636c: fd 7b c1 a8 	ldp	x29, x30, [sp], #16
100006370: c0 03 5f d6 	ret
100006374: 1f 04 00 f9 	str	xzr, [x0, #8]
100006378: 08 fc df c8 	ldar	x8, [x0]
10000637c: 88 00 00 b4 	cbz	x8, 0x10000638c <__ZN4core3ptr169drop_in_place$LT$std..sync..remutex..ReentrantMutexGuard$LT$core..cell..RefCell$LT$std..io..buffered..linewriter..LineWriter$LT$std..io..stdio..StdoutRaw$GT$$GT$$GT$$GT$17he9d13e6698d65840E+0x38>
100006380: e0 03 08 aa 	mov	x0, x8
100006384: fd 7b c1 a8 	ldp	x29, x30, [sp], #16
100006388: fe bd 00 14 	b	0x100035b80 <_writev+0x100035b80>
10000638c: 69 ba 00 94 	bl	0x100034d30 <__ZN3std10sys_common8lazy_box16LazyBox$LT$T$GT$10initialize17h853c648caaab6f64E>
100006390: e8 03 00 aa 	mov	x8, x0
100006394: fb ff ff 17 	b	0x100006380 <__ZN4core3ptr169drop_in_place$LT$std..sync..remutex..ReentrantMutexGuard$LT$core..cell..RefCell$LT$std..io..buffered..linewriter..LineWriter$LT$std..io..stdio..StdoutRaw$GT$$GT$$GT$$GT$17he9d13e6698d65840E+0x2c>

0000000100006398 <__ZN4core3ptr176drop_in_place$LT$alloc..boxed..Box$LT$$u5b$addr2line..function..InlinedFunction$LT$gimli..read..endian_slice..EndianSlice$LT$gimli..endianity..LittleEndian$GT$$GT$$u5d$$GT$$GT$17h8319e291163f4034E>:
100006398: a1 00 00 b4 	cbz	x1, 0x1000063ac <__ZN4core3ptr176drop_in_place$LT$alloc..boxed..Box$LT$$u5b$addr2line..function..InlinedFunction$LT$gimli..read..endian_slice..EndianSlice$LT$gimli..endianity..LittleEndian$GT$$GT$$u5d$$GT$$GT$17h8319e291163f4034E+0x14>
10000639c: 28 08 01 8b 	add	x8, x1, x1, lsl #2
1000063a0: 01 f1 7d d3 	lsl	x1, x8, #3
1000063a4: 02 01 80 52 	mov	w2, #8
1000063a8: e8 fc ff 17 	b	0x100005748 <___rust_dealloc>
1000063ac: c0 03 5f d6 	ret

00000001000063b0 <__ZN4core3ptr177drop_in_place$LT$core..option..Option$LT$alloc..boxed..Box$LT$addr2line..ResDwarf$LT$gimli..read..endian_slice..EndianSlice$LT$gimli..endianity..LittleEndian$GT$$GT$$GT$$GT$$GT$17h04f5bc67018f26b9E>:
1000063b0: f4 4f be a9 	stp	x20, x19, [sp, #-32]!
1000063b4: fd 7b 01 a9 	stp	x29, x30, [sp, #16]
1000063b8: fd 43 00 91 	add	x29, sp, #16
1000063bc: f3 03 00 aa 	mov	x19, x0
1000063c0: 00 00 40 f9 	ldr	x0, [x0]
1000063c4: 00 01 00 b4 	cbz	x0, 0x1000063e4 <__ZN4core3ptr177drop_in_place$LT$core..option..Option$LT$alloc..boxed..Box$LT$addr2line..ResDwarf$LT$gimli..read..endian_slice..EndianSlice$LT$gimli..endianity..LittleEndian$GT$$GT$$GT$$GT$$GT$17h04f5bc67018f26b9E+0x34>
1000063c8: d8 fe ff 97 	bl	0x100005f28 <__ZN4core3ptr124drop_in_place$LT$addr2line..ResDwarf$LT$gimli..read..endian_slice..EndianSlice$LT$gimli..endianity..LittleEndian$GT$$GT$$GT$17h48db50b97bd4a624E>
1000063cc: 60 02 40 f9 	ldr	x0, [x19]
1000063d0: 01 08 80 52 	mov	w1, #64
1000063d4: 02 01 80 52 	mov	w2, #8
1000063d8: fd 7b 41 a9 	ldp	x29, x30, [sp, #16]
1000063dc: f4 4f c2 a8 	ldp	x20, x19, [sp], #32
1000063e0: da fc ff 17 	b	0x100005748 <___rust_dealloc>
1000063e4: fd 7b 41 a9 	ldp	x29, x30, [sp, #16]
1000063e8: f4 4f c2 a8 	ldp	x20, x19, [sp], #32
1000063ec: c0 03 5f d6 	ret
1000063f0: f4 03 00 aa 	mov	x20, x0
1000063f4: 60 02 40 f9 	ldr	x0, [x19]
1000063f8: 5d 10 00 94 	bl	0x10000a56c <__ZN5alloc5alloc8box_free17h9e5c87d14f2ed297E>
1000063fc: e0 03 14 aa 	mov	x0, x20
100006400: 68 bd 00 94 	bl	0x1000359a0 <_writev+0x1000359a0>

0000000100006404 <__ZN4core3ptr181drop_in_place$LT$core..option..Option$LT$gimli..read..line..IncompleteLineProgram$LT$gimli..read..endian_slice..EndianSlice$LT$gimli..endianity..LittleEndian$GT$$C$usize$GT$$GT$$GT$17h7338cfb3840fe46cE>:
100006404: f4 4f be a9 	stp	x20, x19, [sp, #-32]!
100006408: fd 7b 01 a9 	stp	x29, x30, [sp, #16]
10000640c: fd 43 00 91 	add	x29, sp, #16
100006410: 08 14 40 f9 	ldr	x8, [x0, #40]
100006414: 1f bd 00 f1 	cmp	x8, #47
100006418: a0 03 00 54 	b.eq	0x10000648c <__ZN4core3ptr181drop_in_place$LT$core..option..Option$LT$gimli..read..line..IncompleteLineProgram$LT$gimli..read..endian_slice..EndianSlice$LT$gimli..endianity..LittleEndian$GT$$C$usize$GT$$GT$$GT$17h7338cfb3840fe46cE+0x88>
10000641c: f3 03 00 aa 	mov	x19, x0
100006420: 08 44 40 f9 	ldr	x8, [x0, #136]
100006424: a8 00 00 b4 	cbz	x8, 0x100006438 <__ZN4core3ptr181drop_in_place$LT$core..option..Option$LT$gimli..read..line..IncompleteLineProgram$LT$gimli..read..endian_slice..EndianSlice$LT$gimli..endianity..LittleEndian$GT$$C$usize$GT$$GT$$GT$17h7338cfb3840fe46cE+0x34>
100006428: 60 4a 40 f9 	ldr	x0, [x19, #144]
10000642c: 01 f5 7e d3 	lsl	x1, x8, #2
100006430: 42 00 80 52 	mov	w2, #2
100006434: c5 fc ff 97 	bl	0x100005748 <___rust_dealloc>
100006438: 68 52 40 f9 	ldr	x8, [x19, #160]
10000643c: c8 00 00 b4 	cbz	x8, 0x100006454 <__ZN4core3ptr181drop_in_place$LT$core..option..Option$LT$gimli..read..line..IncompleteLineProgram$LT$gimli..read..endian_slice..EndianSlice$LT$gimli..endianity..LittleEndian$GT$$C$usize$GT$$GT$$GT$17h7338cfb3840fe46cE+0x50>
100006440: 60 56 40 f9 	ldr	x0, [x19, #168]
100006444: 08 05 08 8b 	add	x8, x8, x8, lsl #1
100006448: 01 f1 7d d3 	lsl	x1, x8, #3
10000644c: 02 01 80 52 	mov	w2, #8
100006450: be fc ff 97 	bl	0x100005748 <___rust_dealloc>
100006454: 68 5e 40 f9 	ldr	x8, [x19, #184]
100006458: a8 00 00 b4 	cbz	x8, 0x10000646c <__ZN4core3ptr181drop_in_place$LT$core..option..Option$LT$gimli..read..line..IncompleteLineProgram$LT$gimli..read..endian_slice..EndianSlice$LT$gimli..endianity..LittleEndian$GT$$C$usize$GT$$GT$$GT$17h7338cfb3840fe46cE+0x68>
10000645c: 60 62 40 f9 	ldr	x0, [x19, #192]
100006460: 01 f5 7e d3 	lsl	x1, x8, #2
100006464: 42 00 80 52 	mov	w2, #2
100006468: b8 fc ff 97 	bl	0x100005748 <___rust_dealloc>
10000646c: 68 6a 40 f9 	ldr	x8, [x19, #208]
100006470: e8 00 00 b4 	cbz	x8, 0x10000648c <__ZN4core3ptr181drop_in_place$LT$core..option..Option$LT$gimli..read..line..IncompleteLineProgram$LT$gimli..read..endian_slice..EndianSlice$LT$gimli..endianity..LittleEndian$GT$$C$usize$GT$$GT$$GT$17h7338cfb3840fe46cE+0x88>
100006474: 60 6e 40 f9 	ldr	x0, [x19, #216]
100006478: 01 e5 7a d3 	lsl	x1, x8, #6
10000647c: 02 01 80 52 	mov	w2, #8
100006480: fd 7b 41 a9 	ldp	x29, x30, [sp, #16]
100006484: f4 4f c2 a8 	ldp	x20, x19, [sp], #32
100006488: b0 fc ff 17 	b	0x100005748 <___rust_dealloc>
10000648c: fd 7b 41 a9 	ldp	x29, x30, [sp, #16]
100006490: f4 4f c2 a8 	ldp	x20, x19, [sp], #32
100006494: c0 03 5f d6 	ret

0000000100006498 <__ZN4core3ptr184drop_in_place$LT$core..result..Result$LT$addr2line..function..Functions$LT$gimli..read..endian_slice..EndianSlice$LT$gimli..endianity..LittleEndian$GT$$GT$$C$gimli..read..Error$GT$$GT$17h166a71cf48b1d41dE>:
100006498: f6 57 bd a9 	stp	x22, x21, [sp, #-48]!
10000649c: f4 4f 01 a9 	stp	x20, x19, [sp, #16]
1000064a0: fd 7b 02 a9 	stp	x29, x30, [sp, #32]
1000064a4: fd 83 00 91 	add	x29, sp, #32
1000064a8: 08 00 40 f9 	ldr	x8, [x0]
1000064ac: a8 05 00 b4 	cbz	x8, 0x100006560 <__ZN4core3ptr184drop_in_place$LT$core..result..Result$LT$addr2line..function..Functions$LT$gimli..read..endian_slice..EndianSlice$LT$gimli..endianity..LittleEndian$GT$$GT$$C$gimli..read..Error$GT$$GT$17h166a71cf48b1d41dE+0xc8>
1000064b0: f3 03 00 aa 	mov	x19, x0
1000064b4: 09 04 40 f9 	ldr	x9, [x0, #8]
1000064b8: 09 04 00 b4 	cbz	x9, 0x100006538 <__ZN4core3ptr184drop_in_place$LT$core..result..Result$LT$addr2line..function..Functions$LT$gimli..read..endian_slice..EndianSlice$LT$gimli..endianity..LittleEndian$GT$$GT$$C$gimli..read..Error$GT$$GT$17h166a71cf48b1d41dE+0xa0>
1000064bc: 14 e1 00 91 	add	x20, x8, #56
1000064c0: 28 0d 09 8b 	add	x8, x9, x9, lsl #3
1000064c4: 15 f1 7d d3 	lsl	x21, x8, #3
1000064c8: 04 00 00 14 	b	0x1000064d8 <__ZN4core3ptr184drop_in_place$LT$core..result..Result$LT$addr2line..function..Functions$LT$gimli..read..endian_slice..EndianSlice$LT$gimli..endianity..LittleEndian$GT$$GT$$C$gimli..read..Error$GT$$GT$17h166a71cf48b1d41dE+0x40>
1000064cc: 94 22 01 91 	add	x20, x20, #72
1000064d0: b5 22 01 f1 	subs	x21, x21, #72
1000064d4: 40 02 00 54 	b.eq	0x10000651c <__ZN4core3ptr184drop_in_place$LT$core..result..Result$LT$addr2line..function..Functions$LT$gimli..read..endian_slice..EndianSlice$LT$gimli..endianity..LittleEndian$GT$$GT$$C$gimli..read..Error$GT$$GT$17h166a71cf48b1d41dE+0x84>
1000064d8: 88 02 5d f8 	ldur	x8, [x20, #-48]
1000064dc: 88 ff ff b4 	cbz	x8, 0x1000064cc <__ZN4core3ptr184drop_in_place$LT$core..result..Result$LT$addr2line..function..Functions$LT$gimli..read..endian_slice..EndianSlice$LT$gimli..endianity..LittleEndian$GT$$GT$$C$gimli..read..Error$GT$$GT$17h166a71cf48b1d41dE+0x34>
1000064e0: 80 82 5e f8 	ldur	x0, [x20, #-24]
1000064e4: 40 ff ff b4 	cbz	x0, 0x1000064cc <__ZN4core3ptr184drop_in_place$LT$core..result..Result$LT$addr2line..function..Functions$LT$gimli..read..endian_slice..EndianSlice$LT$gimli..endianity..LittleEndian$GT$$GT$$C$gimli..read..Error$GT$$GT$17h166a71cf48b1d41dE+0x34>
1000064e8: 88 02 5f f8 	ldur	x8, [x20, #-16]
1000064ec: a8 00 00 b4 	cbz	x8, 0x100006500 <__ZN4core3ptr184drop_in_place$LT$core..result..Result$LT$addr2line..function..Functions$LT$gimli..read..endian_slice..EndianSlice$LT$gimli..endianity..LittleEndian$GT$$GT$$C$gimli..read..Error$GT$$GT$17h166a71cf48b1d41dE+0x68>
1000064f0: 08 09 08 8b 	add	x8, x8, x8, lsl #2
1000064f4: 01 f1 7d d3 	lsl	x1, x8, #3
1000064f8: 02 01 80 52 	mov	w2, #8
1000064fc: 93 fc ff 97 	bl	0x100005748 <___rust_dealloc>
100006500: 88 02 40 f9 	ldr	x8, [x20]
100006504: 48 fe ff b4 	cbz	x8, 0x1000064cc <__ZN4core3ptr184drop_in_place$LT$core..result..Result$LT$addr2line..function..Functions$LT$gimli..read..endian_slice..EndianSlice$LT$gimli..endianity..LittleEndian$GT$$GT$$C$gimli..read..Error$GT$$GT$17h166a71cf48b1d41dE+0x34>
100006508: 80 82 5f f8 	ldur	x0, [x20, #-8]
10000650c: 01 e9 7b d3 	lsl	x1, x8, #5
100006510: 02 01 80 52 	mov	w2, #8
100006514: 8d fc ff 97 	bl	0x100005748 <___rust_dealloc>
100006518: ed ff ff 17 	b	0x1000064cc <__ZN4core3ptr184drop_in_place$LT$core..result..Result$LT$addr2line..function..Functions$LT$gimli..read..endian_slice..EndianSlice$LT$gimli..endianity..LittleEndian$GT$$GT$$C$gimli..read..Error$GT$$GT$17h166a71cf48b1d41dE+0x34>
10000651c: 68 06 40 f9 	ldr	x8, [x19, #8]
100006520: c8 00 00 b4 	cbz	x8, 0x100006538 <__ZN4core3ptr184drop_in_place$LT$core..result..Result$LT$addr2line..function..Functions$LT$gimli..read..endian_slice..EndianSlice$LT$gimli..endianity..LittleEndian$GT$$GT$$C$gimli..read..Error$GT$$GT$17h166a71cf48b1d41dE+0xa0>
100006524: 60 02 40 f9 	ldr	x0, [x19]
100006528: 08 0d 08 8b 	add	x8, x8, x8, lsl #3
10000652c: 01 f1 7d d3 	lsl	x1, x8, #3
100006530: 02 01 80 52 	mov	w2, #8
100006534: 85 fc ff 97 	bl	0x100005748 <___rust_dealloc>
100006538: 68 0e 40 f9 	ldr	x8, [x19, #24]
10000653c: 28 01 00 b4 	cbz	x8, 0x100006560 <__ZN4core3ptr184drop_in_place$LT$core..result..Result$LT$addr2line..function..Functions$LT$gimli..read..endian_slice..EndianSlice$LT$gimli..endianity..LittleEndian$GT$$GT$$C$gimli..read..Error$GT$$GT$17h166a71cf48b1d41dE+0xc8>
100006540: 60 0a 40 f9 	ldr	x0, [x19, #16]
100006544: 08 05 08 8b 	add	x8, x8, x8, lsl #1
100006548: 01 f1 7d d3 	lsl	x1, x8, #3
10000654c: 02 01 80 52 	mov	w2, #8
100006550: fd 7b 42 a9 	ldp	x29, x30, [sp, #32]
100006554: f4 4f 41 a9 	ldp	x20, x19, [sp, #16]
100006558: f6 57 c3 a8 	ldp	x22, x21, [sp], #48
10000655c: 7b fc ff 17 	b	0x100005748 <___rust_dealloc>
100006560: fd 7b 42 a9 	ldp	x29, x30, [sp, #32]
100006564: f4 4f 41 a9 	ldp	x20, x19, [sp, #16]
100006568: f6 57 c3 a8 	ldp	x22, x21, [sp], #48
10000656c: c0 03 5f d6 	ret

0000000100006570 <__ZN4core3ptr205drop_in_place$LT$$LT$alloc..boxed..Box$LT$dyn$u20$core..error..Error$u2b$core..marker..Send$u2b$core..marker..Sync$GT$$u20$as$u20$core..convert..From$LT$alloc..string..String$GT$$GT$..from..StringError$GT$17hc189c4586dd5d4e3E>:
100006570: 01 00 40 f9 	ldr	x1, [x0]
100006574: a1 00 00 b4 	cbz	x1, 0x100006588 <__ZN4core3ptr205drop_in_place$LT$$LT$alloc..boxed..Box$LT$dyn$u20$core..error..Error$u2b$core..marker..Send$u2b$core..marker..Sync$GT$$u20$as$u20$core..convert..From$LT$alloc..string..String$GT$$GT$..from..StringError$GT$17hc189c4586dd5d4e3E+0x18>
100006578: 00 04 40 f9 	ldr	x0, [x0, #8]
10000657c: e8 03 21 aa 	mvn	x8, x1
100006580: 02 fd 7f d3 	lsr	x2, x8, #63
100006584: 71 fc ff 17 	b	0x100005748 <___rust_dealloc>
100006588: c0 03 5f d6 	ret

000000010000658c <__ZN4core3ptr217drop_in_place$LT$addr2line..lazy..LazyCell$LT$core..result..Result$LT$addr2line..function..Functions$LT$gimli..read..endian_slice..EndianSlice$LT$gimli..endianity..LittleEndian$GT$$GT$$C$gimli..read..Error$GT$$GT$$GT$17h83d938b976166f8dE>:
10000658c: 08 00 40 f9 	ldr	x8, [x0]
100006590: 68 00 00 b4 	cbz	x8, 0x10000659c <__ZN4core3ptr217drop_in_place$LT$addr2line..lazy..LazyCell$LT$core..result..Result$LT$addr2line..function..Functions$LT$gimli..read..endian_slice..EndianSlice$LT$gimli..endianity..LittleEndian$GT$$GT$$C$gimli..read..Error$GT$$GT$$GT$17h83d938b976166f8dE+0x10>
100006594: 00 20 00 91 	add	x0, x0, #8
100006598: c0 ff ff 17 	b	0x100006498 <__ZN4core3ptr184drop_in_place$LT$core..result..Result$LT$addr2line..function..Functions$LT$gimli..read..endian_slice..EndianSlice$LT$gimli..endianity..LittleEndian$GT$$GT$$C$gimli..read..Error$GT$$GT$17h166a71cf48b1d41dE>
10000659c: c0 03 5f d6 	ret

00000001000065a0 <__ZN4core3ptr250drop_in_place$LT$$LP$gimli..read..UnitOffset$C$addr2line..lazy..LazyCell$LT$core..result..Result$LT$addr2line..function..Function$LT$gimli..read..endian_slice..EndianSlice$LT$gimli..endianity..LittleEndian$GT$$GT$$C$gimli..read..Error$GT$$GT$$RP$$GT$17h9ee1195ad4c920ffE>:
1000065a0: f4 4f be a9 	stp	x20, x19, [sp, #-32]!
1000065a4: fd 7b 01 a9 	stp	x29, x30, [sp, #16]
1000065a8: fd 43 00 91 	add	x29, sp, #16
1000065ac: 08 04 40 f9 	ldr	x8, [x0, #8]
1000065b0: 48 02 00 b4 	cbz	x8, 0x1000065f8 <__ZN4core3ptr250drop_in_place$LT$$LP$gimli..read..UnitOffset$C$addr2line..lazy..LazyCell$LT$core..result..Result$LT$addr2line..function..Function$LT$gimli..read..endian_slice..EndianSlice$LT$gimli..endianity..LittleEndian$GT$$GT$$C$gimli..read..Error$GT$$GT$$RP$$GT$17h9ee1195ad4c920ffE+0x58>
1000065b4: f3 03 00 aa 	mov	x19, x0
1000065b8: 00 10 40 f9 	ldr	x0, [x0, #32]
1000065bc: e0 01 00 b4 	cbz	x0, 0x1000065f8 <__ZN4core3ptr250drop_in_place$LT$$LP$gimli..read..UnitOffset$C$addr2line..lazy..LazyCell$LT$core..result..Result$LT$addr2line..function..Function$LT$gimli..read..endian_slice..EndianSlice$LT$gimli..endianity..LittleEndian$GT$$GT$$C$gimli..read..Error$GT$$GT$$RP$$GT$17h9ee1195ad4c920ffE+0x58>
1000065c0: 68 16 40 f9 	ldr	x8, [x19, #40]
1000065c4: a8 00 00 b4 	cbz	x8, 0x1000065d8 <__ZN4core3ptr250drop_in_place$LT$$LP$gimli..read..UnitOffset$C$addr2line..lazy..LazyCell$LT$core..result..Result$LT$addr2line..function..Function$LT$gimli..read..endian_slice..EndianSlice$LT$gimli..endianity..LittleEndian$GT$$GT$$C$gimli..read..Error$GT$$GT$$RP$$GT$17h9ee1195ad4c920ffE+0x38>
1000065c8: 08 09 08 8b 	add	x8, x8, x8, lsl #2
1000065cc: 01 f1 7d d3 	lsl	x1, x8, #3
1000065d0: 02 01 80 52 	mov	w2, #8
1000065d4: 5d fc ff 97 	bl	0x100005748 <___rust_dealloc>
1000065d8: 68 1e 40 f9 	ldr	x8, [x19, #56]
1000065dc: e8 00 00 b4 	cbz	x8, 0x1000065f8 <__ZN4core3ptr250drop_in_place$LT$$LP$gimli..read..UnitOffset$C$addr2line..lazy..LazyCell$LT$core..result..Result$LT$addr2line..function..Function$LT$gimli..read..endian_slice..EndianSlice$LT$gimli..endianity..LittleEndian$GT$$GT$$C$gimli..read..Error$GT$$GT$$RP$$GT$17h9ee1195ad4c920ffE+0x58>
1000065e0: 60 1a 40 f9 	ldr	x0, [x19, #48]
1000065e4: 01 e9 7b d3 	lsl	x1, x8, #5
1000065e8: 02 01 80 52 	mov	w2, #8
1000065ec: fd 7b 41 a9 	ldp	x29, x30, [sp, #16]
1000065f0: f4 4f c2 a8 	ldp	x20, x19, [sp], #32
1000065f4: 55 fc ff 17 	b	0x100005748 <___rust_dealloc>
1000065f8: fd 7b 41 a9 	ldp	x29, x30, [sp, #16]
1000065fc: f4 4f c2 a8 	ldp	x20, x19, [sp], #32
100006600: c0 03 5f d6 	ret

0000000100006604 <__ZN4core3ptr273drop_in_place$LT$alloc..vec..Vec$LT$$LP$gimli..read..UnitOffset$C$addr2line..lazy..LazyCell$LT$core..result..Result$LT$addr2line..function..Function$LT$gimli..read..endian_slice..EndianSlice$LT$gimli..endianity..LittleEndian$GT$$GT$$C$gimli..read..Error$GT$$GT$$RP$$GT$$GT$17h63464d1110df8adcE>:
100006604: f6 57 bd a9 	stp	x22, x21, [sp, #-48]!
100006608: f4 4f 01 a9 	stp	x20, x19, [sp, #16]
10000660c: fd 7b 02 a9 	stp	x29, x30, [sp, #32]
100006610: fd 83 00 91 	add	x29, sp, #32
100006614: f3 03 00 aa 	mov	x19, x0
100006618: 08 08 40 f9 	ldr	x8, [x0, #16]
10000661c: 48 03 00 b4 	cbz	x8, 0x100006684 <__ZN4core3ptr273drop_in_place$LT$alloc..vec..Vec$LT$$LP$gimli..read..UnitOffset$C$addr2line..lazy..LazyCell$LT$core..result..Result$LT$addr2line..function..Function$LT$gimli..read..endian_slice..EndianSlice$LT$gimli..endianity..LittleEndian$GT$$GT$$C$gimli..read..Error$GT$$GT$$RP$$GT$$GT$17h63464d1110df8adcE+0x80>
100006620: 69 06 40 f9 	ldr	x9, [x19, #8]
100006624: 34 e1 00 91 	add	x20, x9, #56
100006628: 08 0d 08 8b 	add	x8, x8, x8, lsl #3
10000662c: 15 f1 7d d3 	lsl	x21, x8, #3
100006630: 04 00 00 14 	b	0x100006640 <__ZN4core3ptr273drop_in_place$LT$alloc..vec..Vec$LT$$LP$gimli..read..UnitOffset$C$addr2line..lazy..LazyCell$LT$core..result..Result$LT$addr2line..function..Function$LT$gimli..read..endian_slice..EndianSlice$LT$gimli..endianity..LittleEndian$GT$$GT$$C$gimli..read..Error$GT$$GT$$RP$$GT$$GT$17h63464d1110df8adcE+0x3c>
100006634: 94 22 01 91 	add	x20, x20, #72
100006638: b5 22 01 f1 	subs	x21, x21, #72
10000663c: 40 02 00 54 	b.eq	0x100006684 <__ZN4core3ptr273drop_in_place$LT$alloc..vec..Vec$LT$$LP$gimli..read..UnitOffset$C$addr2line..lazy..LazyCell$LT$core..result..Result$LT$addr2line..function..Function$LT$gimli..read..endian_slice..EndianSlice$LT$gimli..endianity..LittleEndian$GT$$GT$$C$gimli..read..Error$GT$$GT$$RP$$GT$$GT$17h63464d1110df8adcE+0x80>
100006640: 88 02 5d f8 	ldur	x8, [x20, #-48]
100006644: 88 ff ff b4 	cbz	x8, 0x100006634 <__ZN4core3ptr273drop_in_place$LT$alloc..vec..Vec$LT$$LP$gimli..read..UnitOffset$C$addr2line..lazy..LazyCell$LT$core..result..Result$LT$addr2line..function..Function$LT$gimli..read..endian_slice..EndianSlice$LT$gimli..endianity..LittleEndian$GT$$GT$$C$gimli..read..Error$GT$$GT$$RP$$GT$$GT$17h63464d1110df8adcE+0x30>
100006648: 80 82 5e f8 	ldur	x0, [x20, #-24]
10000664c: 40 ff ff b4 	cbz	x0, 0x100006634 <__ZN4core3ptr273drop_in_place$LT$alloc..vec..Vec$LT$$LP$gimli..read..UnitOffset$C$addr2line..lazy..LazyCell$LT$core..result..Result$LT$addr2line..function..Function$LT$gimli..read..endian_slice..EndianSlice$LT$gimli..endianity..LittleEndian$GT$$GT$$C$gimli..read..Error$GT$$GT$$RP$$GT$$GT$17h63464d1110df8adcE+0x30>
100006650: 88 02 5f f8 	ldur	x8, [x20, #-16]
100006654: a8 00 00 b4 	cbz	x8, 0x100006668 <__ZN4core3ptr273drop_in_place$LT$alloc..vec..Vec$LT$$LP$gimli..read..UnitOffset$C$addr2line..lazy..LazyCell$LT$core..result..Result$LT$addr2line..function..Function$LT$gimli..read..endian_slice..EndianSlice$LT$gimli..endianity..LittleEndian$GT$$GT$$C$gimli..read..Error$GT$$GT$$RP$$GT$$GT$17h63464d1110df8adcE+0x64>
100006658: 08 09 08 8b 	add	x8, x8, x8, lsl #2
10000665c: 01 f1 7d d3 	lsl	x1, x8, #3
100006660: 02 01 80 52 	mov	w2, #8
100006664: 39 fc ff 97 	bl	0x100005748 <___rust_dealloc>
100006668: 88 02 40 f9 	ldr	x8, [x20]
10000666c: 48 fe ff b4 	cbz	x8, 0x100006634 <__ZN4core3ptr273drop_in_place$LT$alloc..vec..Vec$LT$$LP$gimli..read..UnitOffset$C$addr2line..lazy..LazyCell$LT$core..result..Result$LT$addr2line..function..Function$LT$gimli..read..endian_slice..EndianSlice$LT$gimli..endianity..LittleEndian$GT$$GT$$C$gimli..read..Error$GT$$GT$$RP$$GT$$GT$17h63464d1110df8adcE+0x30>
100006670: 80 82 5f f8 	ldur	x0, [x20, #-8]
100006674: 01 e9 7b d3 	lsl	x1, x8, #5
100006678: 02 01 80 52 	mov	w2, #8
10000667c: 33 fc ff 97 	bl	0x100005748 <___rust_dealloc>
100006680: ed ff ff 17 	b	0x100006634 <__ZN4core3ptr273drop_in_place$LT$alloc..vec..Vec$LT$$LP$gimli..read..UnitOffset$C$addr2line..lazy..LazyCell$LT$core..result..Result$LT$addr2line..function..Function$LT$gimli..read..endian_slice..EndianSlice$LT$gimli..endianity..LittleEndian$GT$$GT$$C$gimli..read..Error$GT$$GT$$RP$$GT$$GT$17h63464d1110df8adcE+0x30>
100006684: 68 02 40 f9 	ldr	x8, [x19]
100006688: 28 01 00 b4 	cbz	x8, 0x1000066ac <__ZN4core3ptr273drop_in_place$LT$alloc..vec..Vec$LT$$LP$gimli..read..UnitOffset$C$addr2line..lazy..LazyCell$LT$core..result..Result$LT$addr2line..function..Function$LT$gimli..read..endian_slice..EndianSlice$LT$gimli..endianity..LittleEndian$GT$$GT$$C$gimli..read..Error$GT$$GT$$RP$$GT$$GT$17h63464d1110df8adcE+0xa8>
10000668c: 60 06 40 f9 	ldr	x0, [x19, #8]
100006690: 08 0d 08 8b 	add	x8, x8, x8, lsl #3
100006694: 01 f1 7d d3 	lsl	x1, x8, #3
100006698: 02 01 80 52 	mov	w2, #8
10000669c: fd 7b 42 a9 	ldp	x29, x30, [sp, #32]
1000066a0: f4 4f 41 a9 	ldp	x20, x19, [sp, #16]
1000066a4: f6 57 c3 a8 	ldp	x22, x21, [sp], #48
1000066a8: 28 fc ff 17 	b	0x100005748 <___rust_dealloc>
1000066ac: fd 7b 42 a9 	ldp	x29, x30, [sp, #32]
1000066b0: f4 4f 41 a9 	ldp	x20, x19, [sp, #16]
1000066b4: f6 57 c3 a8 	ldp	x22, x21, [sp], #48
1000066b8: c0 03 5f d6 	ret

00000001000066bc <__ZN4core3ptr275drop_in_place$LT$gimli..read..line..LineRows$LT$gimli..read..endian_slice..EndianSlice$LT$gimli..endianity..LittleEndian$GT$$C$gimli..read..line..IncompleteLineProgram$LT$gimli..read..endian_slice..EndianSlice$LT$gimli..endianity..LittleEndian$GT$$C$usize$GT$$C$usize$GT$$GT$17h49a80b918baf07fcE>:
1000066bc: f4 4f be a9 	stp	x20, x19, [sp, #-32]!
1000066c0: fd 7b 01 a9 	stp	x29, x30, [sp, #16]
1000066c4: fd 43 00 91 	add	x29, sp, #16
1000066c8: f3 03 00 aa 	mov	x19, x0
1000066cc: 08 6c 40 f9 	ldr	x8, [x0, #216]
1000066d0: a8 00 00 b4 	cbz	x8, 0x1000066e4 <__ZN4core3ptr275drop_in_place$LT$gimli..read..line..LineRows$LT$gimli..read..endian_slice..EndianSlice$LT$gimli..endianity..LittleEndian$GT$$C$gimli..read..line..IncompleteLineProgram$LT$gimli..read..endian_slice..EndianSlice$LT$gimli..endianity..LittleEndian$GT$$C$usize$GT$$C$usize$GT$$GT$17h49a80b918baf07fcE+0x28>
1000066d4: 60 72 40 f9 	ldr	x0, [x19, #224]
1000066d8: 01 f5 7e d3 	lsl	x1, x8, #2
1000066dc: 42 00 80 52 	mov	w2, #2
1000066e0: 1a fc ff 97 	bl	0x100005748 <___rust_dealloc>
1000066e4: 68 7a 40 f9 	ldr	x8, [x19, #240]
1000066e8: c8 00 00 b4 	cbz	x8, 0x100006700 <__ZN4core3ptr275drop_in_place$LT$gimli..read..line..LineRows$LT$gimli..read..endian_slice..EndianSlice$LT$gimli..endianity..LittleEndian$GT$$C$gimli..read..line..IncompleteLineProgram$LT$gimli..read..endian_slice..EndianSlice$LT$gimli..endianity..LittleEndian$GT$$C$usize$GT$$C$usize$GT$$GT$17h49a80b918baf07fcE+0x44>
1000066ec: 60 7e 40 f9 	ldr	x0, [x19, #248]
1000066f0: 08 05 08 8b 	add	x8, x8, x8, lsl #1
1000066f4: 01 f1 7d d3 	lsl	x1, x8, #3
1000066f8: 02 01 80 52 	mov	w2, #8
1000066fc: 13 fc ff 97 	bl	0x100005748 <___rust_dealloc>
100006700: 68 86 40 f9 	ldr	x8, [x19, #264]
100006704: a8 00 00 b4 	cbz	x8, 0x100006718 <__ZN4core3ptr275drop_in_place$LT$gimli..read..line..LineRows$LT$gimli..read..endian_slice..EndianSlice$LT$gimli..endianity..LittleEndian$GT$$C$gimli..read..line..IncompleteLineProgram$LT$gimli..read..endian_slice..EndianSlice$LT$gimli..endianity..LittleEndian$GT$$C$usize$GT$$C$usize$GT$$GT$17h49a80b918baf07fcE+0x5c>
100006708: 60 8a 40 f9 	ldr	x0, [x19, #272]
10000670c: 01 f5 7e d3 	lsl	x1, x8, #2
100006710: 42 00 80 52 	mov	w2, #2
100006714: 0d fc ff 97 	bl	0x100005748 <___rust_dealloc>
100006718: 68 92 40 f9 	ldr	x8, [x19, #288]
10000671c: e8 00 00 b4 	cbz	x8, 0x100006738 <__ZN4core3ptr275drop_in_place$LT$gimli..read..line..LineRows$LT$gimli..read..endian_slice..EndianSlice$LT$gimli..endianity..LittleEndian$GT$$C$gimli..read..line..IncompleteLineProgram$LT$gimli..read..endian_slice..EndianSlice$LT$gimli..endianity..LittleEndian$GT$$C$usize$GT$$C$usize$GT$$GT$17h49a80b918baf07fcE+0x7c>
100006720: 60 96 40 f9 	ldr	x0, [x19, #296]
100006724: 01 e5 7a d3 	lsl	x1, x8, #6
100006728: 02 01 80 52 	mov	w2, #8
10000672c: fd 7b 41 a9 	ldp	x29, x30, [sp, #16]
100006730: f4 4f c2 a8 	ldp	x20, x19, [sp], #32
100006734: 05 fc ff 17 	b	0x100005748 <___rust_dealloc>
100006738: fd 7b 41 a9 	ldp	x29, x30, [sp, #16]
10000673c: f4 4f c2 a8 	ldp	x20, x19, [sp], #32
100006740: c0 03 5f d6 	ret

0000000100006744 <__ZN4core3ptr285drop_in_place$LT$alloc..boxed..Box$LT$$u5b$$LP$gimli..read..UnitOffset$C$addr2line..lazy..LazyCell$LT$core..result..Result$LT$addr2line..function..Function$LT$gimli..read..endian_slice..EndianSlice$LT$gimli..endianity..LittleEndian$GT$$GT$$C$gimli..read..Error$GT$$GT$$RP$$u5d$$GT$$GT$17h085c6613587dbb7dE>:
100006744: f6 57 bd a9 	stp	x22, x21, [sp, #-48]!
100006748: f4 4f 01 a9 	stp	x20, x19, [sp, #16]
10000674c: fd 7b 02 a9 	stp	x29, x30, [sp, #32]
100006750: fd 83 00 91 	add	x29, sp, #32
100006754: 08 04 40 f9 	ldr	x8, [x0, #8]
100006758: a8 04 00 b4 	cbz	x8, 0x1000067ec <__ZN4core3ptr285drop_in_place$LT$alloc..boxed..Box$LT$$u5b$$LP$gimli..read..UnitOffset$C$addr2line..lazy..LazyCell$LT$core..result..Result$LT$addr2line..function..Function$LT$gimli..read..endian_slice..EndianSlice$LT$gimli..endianity..LittleEndian$GT$$GT$$C$gimli..read..Error$GT$$GT$$RP$$u5d$$GT$$GT$17h085c6613587dbb7dE+0xa8>
10000675c: f3 03 00 aa 	mov	x19, x0
100006760: 09 00 40 f9 	ldr	x9, [x0]
100006764: 34 e1 00 91 	add	x20, x9, #56
100006768: 08 0d 08 8b 	add	x8, x8, x8, lsl #3
10000676c: 15 f1 7d d3 	lsl	x21, x8, #3
100006770: 04 00 00 14 	b	0x100006780 <__ZN4core3ptr285drop_in_place$LT$alloc..boxed..Box$LT$$u5b$$LP$gimli..read..UnitOffset$C$addr2line..lazy..LazyCell$LT$core..result..Result$LT$addr2line..function..Function$LT$gimli..read..endian_slice..EndianSlice$LT$gimli..endianity..LittleEndian$GT$$GT$$C$gimli..read..Error$GT$$GT$$RP$$u5d$$GT$$GT$17h085c6613587dbb7dE+0x3c>
100006774: 94 22 01 91 	add	x20, x20, #72
100006778: b5 22 01 f1 	subs	x21, x21, #72
10000677c: 40 02 00 54 	b.eq	0x1000067c4 <__ZN4core3ptr285drop_in_place$LT$alloc..boxed..Box$LT$$u5b$$LP$gimli..read..UnitOffset$C$addr2line..lazy..LazyCell$LT$core..result..Result$LT$addr2line..function..Function$LT$gimli..read..endian_slice..EndianSlice$LT$gimli..endianity..LittleEndian$GT$$GT$$C$gimli..read..Error$GT$$GT$$RP$$u5d$$GT$$GT$17h085c6613587dbb7dE+0x80>
100006780: 88 02 5d f8 	ldur	x8, [x20, #-48]
100006784: 88 ff ff b4 	cbz	x8, 0x100006774 <__ZN4core3ptr285drop_in_place$LT$alloc..boxed..Box$LT$$u5b$$LP$gimli..read..UnitOffset$C$addr2line..lazy..LazyCell$LT$core..result..Result$LT$addr2line..function..Function$LT$gimli..read..endian_slice..EndianSlice$LT$gimli..endianity..LittleEndian$GT$$GT$$C$gimli..read..Error$GT$$GT$$RP$$u5d$$GT$$GT$17h085c6613587dbb7dE+0x30>
100006788: 80 82 5e f8 	ldur	x0, [x20, #-24]
10000678c: 40 ff ff b4 	cbz	x0, 0x100006774 <__ZN4core3ptr285drop_in_place$LT$alloc..boxed..Box$LT$$u5b$$LP$gimli..read..UnitOffset$C$addr2line..lazy..LazyCell$LT$core..result..Result$LT$addr2line..function..Function$LT$gimli..read..endian_slice..EndianSlice$LT$gimli..endianity..LittleEndian$GT$$GT$$C$gimli..read..Error$GT$$GT$$RP$$u5d$$GT$$GT$17h085c6613587dbb7dE+0x30>
100006790: 88 02 5f f8 	ldur	x8, [x20, #-16]
100006794: a8 00 00 b4 	cbz	x8, 0x1000067a8 <__ZN4core3ptr285drop_in_place$LT$alloc..boxed..Box$LT$$u5b$$LP$gimli..read..UnitOffset$C$addr2line..lazy..LazyCell$LT$core..result..Result$LT$addr2line..function..Function$LT$gimli..read..endian_slice..EndianSlice$LT$gimli..endianity..LittleEndian$GT$$GT$$C$gimli..read..Error$GT$$GT$$RP$$u5d$$GT$$GT$17h085c6613587dbb7dE+0x64>
100006798: 08 09 08 8b 	add	x8, x8, x8, lsl #2
10000679c: 01 f1 7d d3 	lsl	x1, x8, #3
1000067a0: 02 01 80 52 	mov	w2, #8
1000067a4: e9 fb ff 97 	bl	0x100005748 <___rust_dealloc>
1000067a8: 88 02 40 f9 	ldr	x8, [x20]
1000067ac: 48 fe ff b4 	cbz	x8, 0x100006774 <__ZN4core3ptr285drop_in_place$LT$alloc..boxed..Box$LT$$u5b$$LP$gimli..read..UnitOffset$C$addr2line..lazy..LazyCell$LT$core..result..Result$LT$addr2line..function..Function$LT$gimli..read..endian_slice..EndianSlice$LT$gimli..endianity..LittleEndian$GT$$GT$$C$gimli..read..Error$GT$$GT$$RP$$u5d$$GT$$GT$17h085c6613587dbb7dE+0x30>
1000067b0: 80 82 5f f8 	ldur	x0, [x20, #-8]
1000067b4: 01 e9 7b d3 	lsl	x1, x8, #5
1000067b8: 02 01 80 52 	mov	w2, #8
1000067bc: e3 fb ff 97 	bl	0x100005748 <___rust_dealloc>
1000067c0: ed ff ff 17 	b	0x100006774 <__ZN4core3ptr285drop_in_place$LT$alloc..boxed..Box$LT$$u5b$$LP$gimli..read..UnitOffset$C$addr2line..lazy..LazyCell$LT$core..result..Result$LT$addr2line..function..Function$LT$gimli..read..endian_slice..EndianSlice$LT$gimli..endianity..LittleEndian$GT$$GT$$C$gimli..read..Error$GT$$GT$$RP$$u5d$$GT$$GT$17h085c6613587dbb7dE+0x30>
1000067c4: 68 06 40 f9 	ldr	x8, [x19, #8]
1000067c8: 28 01 00 b4 	cbz	x8, 0x1000067ec <__ZN4core3ptr285drop_in_place$LT$alloc..boxed..Box$LT$$u5b$$LP$gimli..read..UnitOffset$C$addr2line..lazy..LazyCell$LT$core..result..Result$LT$addr2line..function..Function$LT$gimli..read..endian_slice..EndianSlice$LT$gimli..endianity..LittleEndian$GT$$GT$$C$gimli..read..Error$GT$$GT$$RP$$u5d$$GT$$GT$17h085c6613587dbb7dE+0xa8>
1000067cc: 60 02 40 f9 	ldr	x0, [x19]
1000067d0: 08 0d 08 8b 	add	x8, x8, x8, lsl #3
1000067d4: 01 f1 7d d3 	lsl	x1, x8, #3
1000067d8: 02 01 80 52 	mov	w2, #8
1000067dc: fd 7b 42 a9 	ldp	x29, x30, [sp, #32]
1000067e0: f4 4f 41 a9 	ldp	x20, x19, [sp, #16]
1000067e4: f6 57 c3 a8 	ldp	x22, x21, [sp], #48
1000067e8: d8 fb ff 17 	b	0x100005748 <___rust_dealloc>
1000067ec: fd 7b 42 a9 	ldp	x29, x30, [sp, #32]
1000067f0: f4 4f 41 a9 	ldp	x20, x19, [sp, #16]
1000067f4: f6 57 c3 a8 	ldp	x22, x21, [sp], #48
1000067f8: c0 03 5f d6 	ret

00000001000067fc <__ZN4core3ptr34drop_in_place$LT$std..fs..File$GT$17h7cbf05b546e29786E>:
1000067fc: 8a bc 00 14 	b	0x100035a24 <_writev+0x100035a24>

0000000100006800 <__ZN4core3ptr37drop_in_place$LT$std..fs..ReadDir$GT$17h6f1789e51683803fE>:
100006800: 08 00 40 f9 	ldr	x8, [x0]
100006804: 09 00 80 92 	mov	x9, #-1
100006808: 08 01 69 f8 	<unknown>
10000680c: 1f 05 00 f1 	cmp	x8, #1
100006810: 81 00 00 54 	b.ne	0x100006820 <__ZN4core3ptr37drop_in_place$LT$std..fs..ReadDir$GT$17h6f1789e51683803fE+0x20>
100006814: bf 39 03 d5 	dmb	ishld
100006818: 00 00 40 f9 	ldr	x0, [x0]
10000681c: e2 0e 00 14 	b	0x10000a3a4 <__ZN5alloc4sync12Arc$LT$T$GT$9drop_slow17h914be0877e141af6E>
100006820: c0 03 5f d6 	ret

0000000100006824 <__ZN4core3ptr38drop_in_place$LT$std..fs..DirEntry$GT$17h197e2216d6d8bb88E>:
100006824: 08 0c 42 f9 	ldr	x8, [x0, #1048]
100006828: 09 00 80 92 	mov	x9, #-1
10000682c: 08 01 69 f8 	<unknown>
100006830: 1f 05 00 f1 	cmp	x8, #1
100006834: 81 00 00 54 	b.ne	0x100006844 <__ZN4core3ptr38drop_in_place$LT$std..fs..DirEntry$GT$17h197e2216d6d8bb88E+0x20>
100006838: bf 39 03 d5 	dmb	ishld
10000683c: 00 0c 42 f9 	ldr	x0, [x0, #1048]
100006840: d9 0e 00 14 	b	0x10000a3a4 <__ZN5alloc4sync12Arc$LT$T$GT$9drop_slow17h914be0877e141af6E>
100006844: c0 03 5f d6 	ret

0000000100006848 <__ZN4core3ptr40drop_in_place$LT$std..thread..Thread$GT$17h9e5f97452d97a2d8E>:
100006848: 08 00 40 f9 	ldr	x8, [x0]
10000684c: 09 00 80 92 	mov	x9, #-1
100006850: 08 01 69 f8 	<unknown>
100006854: 1f 05 00 f1 	cmp	x8, #1
100006858: 81 00 00 54 	b.ne	0x100006868 <__ZN4core3ptr40drop_in_place$LT$std..thread..Thread$GT$17h9e5f97452d97a2d8E+0x20>
10000685c: bf 39 03 d5 	dmb	ishld
100006860: 00 00 40 f9 	ldr	x0, [x0]
100006864: f2 0e 00 14 	b	0x10000a42c <__ZN5alloc4sync12Arc$LT$T$GT$9drop_slow17ha933b7e537087b1aE>
100006868: c0 03 5f d6 	ret

000000010000686c <__ZN4core3ptr42drop_in_place$LT$std..io..error..Error$GT$17h378b492ea0feaf02E>:
10000686c: f4 4f be a9 	stp	x20, x19, [sp, #-32]!
100006870: fd 7b 01 a9 	stp	x29, x30, [sp, #16]
100006874: fd 43 00 91 	add	x29, sp, #16
100006878: 14 00 40 f9 	ldr	x20, [x0]
10000687c: 88 06 40 92 	and	x8, x20, #0x3
100006880: 1f 05 00 f1 	cmp	x8, #1
100006884: 41 02 00 54 	b.ne	0x1000068cc <__ZN4core3ptr42drop_in_place$LT$std..io..error..Error$GT$17h378b492ea0feaf02E+0x60>
100006888: f3 03 14 aa 	mov	x19, x20
10000688c: 60 fe 5f f8 	ldr	x0, [x19, #-1]!
100006890: 68 06 40 f9 	ldr	x8, [x19, #8]
100006894: 08 01 40 f9 	ldr	x8, [x8]
100006898: 00 01 3f d6 	blr	x8
10000689c: 88 72 40 f8 	ldur	x8, [x20, #7]
1000068a0: 01 05 40 f9 	ldr	x1, [x8, #8]
1000068a4: 81 00 00 b4 	cbz	x1, 0x1000068b4 <__ZN4core3ptr42drop_in_place$LT$std..io..error..Error$GT$17h378b492ea0feaf02E+0x48>
1000068a8: 02 09 40 f9 	ldr	x2, [x8, #16]
1000068ac: 60 02 40 f9 	ldr	x0, [x19]
1000068b0: a6 fb ff 97 	bl	0x100005748 <___rust_dealloc>
1000068b4: e0 03 13 aa 	mov	x0, x19
1000068b8: 01 03 80 52 	mov	w1, #24
1000068bc: 02 01 80 52 	mov	w2, #8
1000068c0: fd 7b 41 a9 	ldp	x29, x30, [sp, #16]
1000068c4: f4 4f c2 a8 	ldp	x20, x19, [sp], #32
1000068c8: a0 fb ff 17 	b	0x100005748 <___rust_dealloc>
1000068cc: fd 7b 41 a9 	ldp	x29, x30, [sp, #16]
1000068d0: f4 4f c2 a8 	ldp	x20, x19, [sp], #32
1000068d4: c0 03 5f d6 	ret
1000068d8: e8 03 14 aa 	mov	x8, x20
1000068dc: f4 03 00 aa 	mov	x20, x0
1000068e0: 00 f1 5f f8 	ldur	x0, [x8, #-1]
1000068e4: 08 71 40 f8 	ldur	x8, [x8, #7]
1000068e8: 01 89 40 a9 	ldp	x1, x2, [x8, #8]
1000068ec: 1d 0f 00 94 	bl	0x10000a560 <__ZN5alloc5alloc8box_free17h37d2b627fc90e8c5E>
1000068f0: e0 03 13 aa 	mov	x0, x19
1000068f4: 18 0f 00 94 	bl	0x10000a554 <__ZN5alloc5alloc8box_free17h3125d351d32f12acE>
1000068f8: e0 03 14 aa 	mov	x0, x20
1000068fc: 29 bc 00 94 	bl	0x1000359a0 <_writev+0x1000359a0>

0000000100006900 <__ZN4core3ptr432drop_in_place$LT$core..slice..sort..merge_sort..BufGuard$LT$addr2line..UnitRange$C$alloc..slice..stable_sort$LT$addr2line..UnitRange$C$alloc..slice..$LT$impl$u20$$u5b$addr2line..UnitRange$u5d$$GT$..sort_by_key$LT$u64$C$addr2line..ResDwarf$LT$gimli..read..endian_slice..EndianSlice$LT$gimli..endianity..LittleEndian$GT$$GT$..parse..$u7b$$u7b$closure$u7d$$u7d$$GT$..$u7b$$u7b$closure$u7d$$u7d$$GT$..$u7b$$u7b$closure$u7d$$u7d$$GT$$GT$17h70ba2a77b8b268b2E>:
100006900: 21 e8 7b d3 	lsl	x1, x1, #5
100006904: 02 01 80 52 	mov	w2, #8
100006908: 90 fb ff 17 	b	0x100005748 <___rust_dealloc>

000000010000690c <__ZN4core3ptr44drop_in_place$LT$addr2line..LineSequence$GT$17h9d1e2bcef5e2c044E>:
10000690c: a1 00 00 b4 	cbz	x1, 0x100006920 <__ZN4core3ptr44drop_in_place$LT$addr2line..LineSequence$GT$17h9d1e2bcef5e2c044E+0x14>
100006910: 28 04 01 8b 	add	x8, x1, x1, lsl #1
100006914: 01 f1 7d d3 	lsl	x1, x8, #3
100006918: 02 01 80 52 	mov	w2, #8
10000691c: 8b fb ff 17 	b	0x100005748 <___rust_dealloc>
100006920: c0 03 5f d6 	ret

0000000100006924 <__ZN4core3ptr44drop_in_place$LT$object..read..ObjectMap$GT$17he93aa848d829b2a0E>:
100006924: f4 4f be a9 	stp	x20, x19, [sp, #-32]!
100006928: fd 7b 01 a9 	stp	x29, x30, [sp, #16]
10000692c: fd 43 00 91 	add	x29, sp, #16
100006930: f3 03 00 aa 	mov	x19, x0
100006934: 08 00 40 f9 	ldr	x8, [x0]
100006938: c8 00 00 b4 	cbz	x8, 0x100006950 <__ZN4core3ptr44drop_in_place$LT$object..read..ObjectMap$GT$17he93aa848d829b2a0E+0x2c>
10000693c: 60 06 40 f9 	ldr	x0, [x19, #8]
100006940: 08 09 08 8b 	add	x8, x8, x8, lsl #2
100006944: 01 f1 7d d3 	lsl	x1, x8, #3
100006948: 02 01 80 52 	mov	w2, #8
10000694c: 7f fb ff 97 	bl	0x100005748 <___rust_dealloc>
100006950: 68 0e 40 f9 	ldr	x8, [x19, #24]
100006954: e8 00 00 b4 	cbz	x8, 0x100006970 <__ZN4core3ptr44drop_in_place$LT$object..read..ObjectMap$GT$17he93aa848d829b2a0E+0x4c>
100006958: 60 12 40 f9 	ldr	x0, [x19, #32]
10000695c: 01 ed 7c d3 	lsl	x1, x8, #4
100006960: 02 01 80 52 	mov	w2, #8
100006964: fd 7b 41 a9 	ldp	x29, x30, [sp, #16]
100006968: f4 4f c2 a8 	ldp	x20, x19, [sp], #32
10000696c: 77 fb ff 17 	b	0x100005748 <___rust_dealloc>
100006970: fd 7b 41 a9 	ldp	x29, x30, [sp, #16]
100006974: f4 4f c2 a8 	ldp	x20, x19, [sp], #32
100006978: c0 03 5f d6 	ret

000000010000697c <__ZN4core3ptr44drop_in_place$LT$std..thread..PanicGuard$GT$17hcccc6180218be819E>:
10000697c: ff 43 02 d1 	sub	sp, sp, #144
100006980: fd 7b 08 a9 	stp	x29, x30, [sp, #128]
100006984: fd 03 02 91 	add	x29, sp, #128
100006988: 48 f8 1e 10 	adr	x8, #253704
10000698c: 1f 20 03 d5 	nop
100006990: 29 00 80 52 	mov	w9, #1
100006994: ea c4 17 10 	adr	x10, #194716
100006998: 1f 20 03 d5 	nop
10000699c: a8 a7 3d a9 	stp	x8, x9, [x29, #-40]
1000069a0: bf 83 1c f8 	stur	xzr, [x29, #-56]
1000069a4: aa ff 3e a9 	stp	x10, xzr, [x29, #-24]
1000069a8: a8 bf 13 10 	adr	x8, #161780
1000069ac: 1f 20 03 d5 	nop
1000069b0: aa e3 00 d1 	sub	x10, x29, #56
1000069b4: ea a3 03 a9 	stp	x10, x8, [sp, #56]
1000069b8: 08 f2 1e 10 	adr	x8, #253504
1000069bc: 1f 20 03 d5 	nop
1000069c0: 4a 00 80 52 	mov	w10, #2
1000069c4: e8 ab 01 a9 	stp	x8, x10, [sp, #24]
1000069c8: ff 07 00 f9 	str	xzr, [sp, #8]
1000069cc: e8 e3 00 91 	add	x8, sp, #56
1000069d0: e8 a7 02 a9 	stp	x8, x9, [sp, #40]
1000069d4: a0 23 00 d1 	sub	x0, x29, #8
1000069d8: e1 23 00 91 	add	x1, sp, #8
1000069dc: 01 50 00 94 	bl	0x10001a9e0 <__ZN3std2io5Write9write_fmt17h1c4129dfc94f7c33E>
1000069e0: 23 02 00 94 	bl	0x10000726c <__ZN4core3ptr81drop_in_place$LT$core..result..Result$LT$$LP$$RP$$C$std..io..error..Error$GT$$GT$17h6e5bf18683570d70E>
1000069e4: 71 64 00 94 	bl	0x10001fba8 <__ZN3std3sys4unix14abort_internal17ha6adf3ee20ae17c6E>

00000001000069e8 <__ZN4core3ptr46drop_in_place$LT$alloc..vec..Vec$LT$u8$GT$$GT$17h66005cdbd4264197E>:
1000069e8: 01 00 40 f9 	ldr	x1, [x0]
1000069ec: a1 00 00 b4 	cbz	x1, 0x100006a00 <__ZN4core3ptr46drop_in_place$LT$alloc..vec..Vec$LT$u8$GT$$GT$17h66005cdbd4264197E+0x18>
1000069f0: 00 04 40 f9 	ldr	x0, [x0, #8]
1000069f4: e8 03 21 aa 	mvn	x8, x1
1000069f8: 02 fd 7f d3 	lsr	x2, x8, #63
1000069fc: 53 fb ff 17 	b	0x100005748 <___rust_dealloc>
100006a00: c0 03 5f d6 	ret

0000000100006a04 <__ZN4core3ptr46drop_in_place$LT$std..io..stdio..StdinLock$GT$17h62a043ef262e5f5aE>:
100006a04: f4 4f be a9 	stp	x20, x19, [sp, #-32]!
100006a08: fd 7b 01 a9 	stp	x29, x30, [sp, #16]
100006a0c: fd 43 00 91 	add	x29, sp, #16
100006a10: f3 03 00 aa 	mov	x19, x0
100006a14: 3f 1c 00 72 	tst	w1, #0xff
100006a18: a1 00 00 54 	b.ne	0x100006a2c <__ZN4core3ptr46drop_in_place$LT$std..io..stdio..StdinLock$GT$17h62a043ef262e5f5aE+0x28>
100006a1c: 1f 20 03 d5 	nop
100006a20: c8 ba 20 58 	ldr	x8, 0x100048178 <__ZN3std9panicking11panic_count18GLOBAL_PANIC_COUNT17hcf0e941985007807E>
100006a24: 1f f9 40 f2 	tst	x8, #0x7fffffffffffffff
100006a28: 21 01 00 54 	b.ne	0x100006a4c <__ZN4core3ptr46drop_in_place$LT$std..io..stdio..StdinLock$GT$17h62a043ef262e5f5aE+0x48>
100006a2c: 60 fe df c8 	ldar	x0, [x19]
100006a30: 80 00 00 b4 	cbz	x0, 0x100006a40 <__ZN4core3ptr46drop_in_place$LT$std..io..stdio..StdinLock$GT$17h62a043ef262e5f5aE+0x3c>
100006a34: fd 7b 41 a9 	ldp	x29, x30, [sp, #16]
100006a38: f4 4f c2 a8 	ldp	x20, x19, [sp], #32
100006a3c: 51 bc 00 14 	b	0x100035b80 <_writev+0x100035b80>
100006a40: e0 03 13 aa 	mov	x0, x19
100006a44: bb b8 00 94 	bl	0x100034d30 <__ZN3std10sys_common8lazy_box16LazyBox$LT$T$GT$10initialize17h853c648caaab6f64E>
100006a48: fb ff ff 17 	b	0x100006a34 <__ZN4core3ptr46drop_in_place$LT$std..io..stdio..StdinLock$GT$17h62a043ef262e5f5aE+0x30>
100006a4c: d0 b8 00 94 	bl	0x100034d8c <__ZN3std9panicking11panic_count17is_zero_slow_path17hc86c09adc054cf0aE>
100006a50: e0 fe 07 37 	tbnz	w0, #0, 0x100006a2c <__ZN4core3ptr46drop_in_place$LT$std..io..stdio..StdinLock$GT$17h62a043ef262e5f5aE+0x28>
100006a54: 28 00 80 52 	mov	w8, #1
100006a58: 68 22 00 39 	strb	w8, [x19, #8]
100006a5c: f4 ff ff 17 	b	0x100006a2c <__ZN4core3ptr46drop_in_place$LT$std..io..stdio..StdinLock$GT$17h62a043ef262e5f5aE+0x28>

0000000100006a60 <__ZN4core3ptr47drop_in_place$LT$alloc..ffi..c_str..CString$GT$17ha388a1755b62cbefE>:
100006a60: 08 00 40 f9 	ldr	x8, [x0]
100006a64: 1f 01 00 39 	strb	wzr, [x8]
100006a68: 01 04 40 f9 	ldr	x1, [x0, #8]
100006a6c: 81 00 00 b4 	cbz	x1, 0x100006a7c <__ZN4core3ptr47drop_in_place$LT$alloc..ffi..c_str..CString$GT$17ha388a1755b62cbefE+0x1c>
100006a70: 00 00 40 f9 	ldr	x0, [x0]
100006a74: 22 00 80 52 	mov	w2, #1
100006a78: 34 fb ff 17 	b	0x100005748 <___rust_dealloc>
100006a7c: c0 03 5f d6 	ret

0000000100006a80 <__ZN4core3ptr491drop_in_place$LT$core..slice..sort..merge_sort..BufGuard$LT$addr2line..function..FunctionAddress$C$alloc..slice..stable_sort$LT$addr2line..function..FunctionAddress$C$alloc..slice..$LT$impl$u20$$u5b$addr2line..function..FunctionAddress$u5d$$GT$..sort_by_key$LT$u64$C$addr2line..function..Functions$LT$gimli..read..endian_slice..EndianSlice$LT$gimli..endianity..LittleEndian$GT$$GT$..parse..$u7b$$u7b$closure$u7d$$u7d$$GT$..$u7b$$u7b$closure$u7d$$u7d$$GT$..$u7b$$u7b$closure$u7d$$u7d$$GT$$GT$17h35c95432b262025eE>:
100006a80: 28 04 01 8b 	add	x8, x1, x1, lsl #1
100006a84: 01 f1 7d d3 	lsl	x1, x8, #3
100006a88: 02 01 80 52 	mov	w2, #8
100006a8c: 2f fb ff 17 	b	0x100005748 <___rust_dealloc>

0000000100006a90 <__ZN4core3ptr50drop_in_place$LT$alloc..borrow..Cow$LT$str$GT$$GT$17hd362811469593e47E>:
100006a90: 08 00 40 f9 	ldr	x8, [x0]
100006a94: e8 00 00 b4 	cbz	x8, 0x100006ab0 <__ZN4core3ptr50drop_in_place$LT$alloc..borrow..Cow$LT$str$GT$$GT$17hd362811469593e47E+0x20>
100006a98: 01 04 40 f9 	ldr	x1, [x0, #8]
100006a9c: a1 00 00 b4 	cbz	x1, 0x100006ab0 <__ZN4core3ptr50drop_in_place$LT$alloc..borrow..Cow$LT$str$GT$$GT$17hd362811469593e47E+0x20>
100006aa0: 00 08 40 f9 	ldr	x0, [x0, #16]
100006aa4: e8 03 21 aa 	mvn	x8, x1
100006aa8: 02 fd 7f d3 	lsr	x2, x8, #63
100006aac: 27 fb ff 17 	b	0x100005748 <___rust_dealloc>
100006ab0: c0 03 5f d6 	ret

0000000100006ab4 <__ZN4core3ptr52drop_in_place$LT$gimli..read..abbrev..Attributes$GT$17h6b49f7f2562b768fE>:
100006ab4: 08 00 40 f9 	ldr	x8, [x0]
100006ab8: e8 00 00 b4 	cbz	x8, 0x100006ad4 <__ZN4core3ptr52drop_in_place$LT$gimli..read..abbrev..Attributes$GT$17h6b49f7f2562b768fE+0x20>
100006abc: 08 04 40 f9 	ldr	x8, [x0, #8]
100006ac0: a8 00 00 b4 	cbz	x8, 0x100006ad4 <__ZN4core3ptr52drop_in_place$LT$gimli..read..abbrev..Attributes$GT$17h6b49f7f2562b768fE+0x20>
100006ac4: 00 08 40 f9 	ldr	x0, [x0, #16]
100006ac8: 01 ed 7c d3 	lsl	x1, x8, #4
100006acc: 02 01 80 52 	mov	w2, #8
100006ad0: 1e fb ff 17 	b	0x100005748 <___rust_dealloc>
100006ad4: c0 03 5f d6 	ret

0000000100006ad8 <__ZN4core3ptr55drop_in_place$LT$gimli..read..abbrev..Abbreviations$GT$17h6f15ddc93af64265E>:
100006ad8: ff 43 02 d1 	sub	sp, sp, #144
100006adc: f6 57 06 a9 	stp	x22, x21, [sp, #96]
100006ae0: f4 4f 07 a9 	stp	x20, x19, [sp, #112]
100006ae4: fd 7b 08 a9 	stp	x29, x30, [sp, #128]
100006ae8: fd 03 02 91 	add	x29, sp, #128
100006aec: f3 03 00 aa 	mov	x19, x0
100006af0: 08 14 40 f9 	ldr	x8, [x0, #40]
100006af4: 48 02 00 b4 	cbz	x8, 0x100006b3c <__ZN4core3ptr55drop_in_place$LT$gimli..read..abbrev..Abbreviations$GT$17h6f15ddc93af64265E+0x64>
100006af8: 69 12 40 f9 	ldr	x9, [x19, #32]
100006afc: 34 41 00 91 	add	x20, x9, #16
100006b00: 09 0e 80 52 	mov	w9, #112
100006b04: 15 7d 09 9b 	mul	x21, x8, x9
100006b08: 04 00 00 14 	b	0x100006b18 <__ZN4core3ptr55drop_in_place$LT$gimli..read..abbrev..Abbreviations$GT$17h6f15ddc93af64265E+0x40>
100006b0c: 94 c2 01 91 	add	x20, x20, #112
100006b10: b5 c2 01 f1 	subs	x21, x21, #112
100006b14: 40 01 00 54 	b.eq	0x100006b3c <__ZN4core3ptr55drop_in_place$LT$gimli..read..abbrev..Abbreviations$GT$17h6f15ddc93af64265E+0x64>
100006b18: 88 02 5f f8 	ldur	x8, [x20, #-16]
100006b1c: 88 ff ff b4 	cbz	x8, 0x100006b0c <__ZN4core3ptr55drop_in_place$LT$gimli..read..abbrev..Abbreviations$GT$17h6f15ddc93af64265E+0x34>
100006b20: 88 82 5f f8 	ldur	x8, [x20, #-8]
100006b24: 48 ff ff b4 	cbz	x8, 0x100006b0c <__ZN4core3ptr55drop_in_place$LT$gimli..read..abbrev..Abbreviations$GT$17h6f15ddc93af64265E+0x34>
100006b28: 80 02 40 f9 	ldr	x0, [x20]
100006b2c: 01 ed 7c d3 	lsl	x1, x8, #4
100006b30: 02 01 80 52 	mov	w2, #8
100006b34: 05 fb ff 97 	bl	0x100005748 <___rust_dealloc>
100006b38: f5 ff ff 17 	b	0x100006b0c <__ZN4core3ptr55drop_in_place$LT$gimli..read..abbrev..Abbreviations$GT$17h6f15ddc93af64265E+0x34>
100006b3c: 68 0e 40 f9 	ldr	x8, [x19, #24]
100006b40: c8 00 00 b4 	cbz	x8, 0x100006b58 <__ZN4core3ptr55drop_in_place$LT$gimli..read..abbrev..Abbreviations$GT$17h6f15ddc93af64265E+0x80>
100006b44: 60 12 40 f9 	ldr	x0, [x19, #32]
100006b48: 09 0e 80 52 	mov	w9, #112
100006b4c: 01 7d 09 9b 	mul	x1, x8, x9
100006b50: 02 01 80 52 	mov	w2, #8
100006b54: fd fa ff 97 	bl	0x100005748 <___rust_dealloc>
100006b58: 6a 06 40 f9 	ldr	x10, [x19, #8]
100006b5c: 0a 01 00 b4 	cbz	x10, 0x100006b7c <__ZN4core3ptr55drop_in_place$LT$gimli..read..abbrev..Abbreviations$GT$17h6f15ddc93af64265E+0xa4>
100006b60: 08 00 80 d2 	mov	x8, #0
100006b64: 69 0a 40 f9 	ldr	x9, [x19, #16]
100006b68: 6b 02 40 f9 	ldr	x11, [x19]
100006b6c: ff 2f 00 a9 	stp	xzr, x11, [sp]
100006b70: ea 0b 00 f9 	str	x10, [sp, #16]
100006b74: eb ab 02 a9 	stp	x11, x10, [sp, #40]
100006b78: 04 00 00 14 	b	0x100006b88 <__ZN4core3ptr55drop_in_place$LT$gimli..read..abbrev..Abbreviations$GT$17h6f15ddc93af64265E+0xb0>
100006b7c: 09 00 80 d2 	mov	x9, #0
100006b80: 48 00 80 52 	mov	w8, #2
100006b84: e8 03 00 f9 	str	x8, [sp]
100006b88: e8 13 00 f9 	str	x8, [sp, #32]
100006b8c: e9 23 00 f9 	str	x9, [sp, #64]
100006b90: a0 e3 00 d1 	sub	x0, x29, #56
100006b94: e1 03 00 91 	mov	x1, sp
100006b98: 5a 0d 00 94 	bl	0x10000a100 <__ZN5alloc11collections5btree3map25IntoIter$LT$K$C$V$C$A$GT$10dying_next17hf4721a95892db42fE>
100006b9c: a8 03 5d f8 	ldur	x8, [x29, #-48]
100006ba0: 68 02 00 b4 	cbz	x8, 0x100006bec <__ZN4core3ptr55drop_in_place$LT$gimli..read..abbrev..Abbreviations$GT$17h6f15ddc93af64265E+0x114>
100006ba4: 13 0e 80 52 	mov	w19, #112
100006ba8: 06 00 00 14 	b	0x100006bc0 <__ZN4core3ptr55drop_in_place$LT$gimli..read..abbrev..Abbreviations$GT$17h6f15ddc93af64265E+0xe8>
100006bac: a0 e3 00 d1 	sub	x0, x29, #56
100006bb0: e1 03 00 91 	mov	x1, sp
100006bb4: 53 0d 00 94 	bl	0x10000a100 <__ZN5alloc11collections5btree3map25IntoIter$LT$K$C$V$C$A$GT$10dying_next17hf4721a95892db42fE>
100006bb8: a8 03 5d f8 	ldur	x8, [x29, #-48]
100006bbc: 88 01 00 b4 	cbz	x8, 0x100006bec <__ZN4core3ptr55drop_in_place$LT$gimli..read..abbrev..Abbreviations$GT$17h6f15ddc93af64265E+0x114>
100006bc0: a9 83 5d f8 	ldur	x9, [x29, #-40]
100006bc4: 28 21 13 9b 	madd	x8, x9, x19, x8
100006bc8: 09 01 40 f9 	ldr	x9, [x8]
100006bcc: 09 ff ff b4 	cbz	x9, 0x100006bac <__ZN4core3ptr55drop_in_place$LT$gimli..read..abbrev..Abbreviations$GT$17h6f15ddc93af64265E+0xd4>
100006bd0: 09 05 40 f9 	ldr	x9, [x8, #8]
100006bd4: c9 fe ff b4 	cbz	x9, 0x100006bac <__ZN4core3ptr55drop_in_place$LT$gimli..read..abbrev..Abbreviations$GT$17h6f15ddc93af64265E+0xd4>
100006bd8: 00 09 40 f9 	ldr	x0, [x8, #16]
100006bdc: 21 ed 7c d3 	lsl	x1, x9, #4
100006be0: 02 01 80 52 	mov	w2, #8
100006be4: d9 fa ff 97 	bl	0x100005748 <___rust_dealloc>
100006be8: f1 ff ff 17 	b	0x100006bac <__ZN4core3ptr55drop_in_place$LT$gimli..read..abbrev..Abbreviations$GT$17h6f15ddc93af64265E+0xd4>
100006bec: fd 7b 48 a9 	ldp	x29, x30, [sp, #128]
100006bf0: f4 4f 47 a9 	ldp	x20, x19, [sp, #112]
100006bf4: f6 57 46 a9 	ldp	x22, x21, [sp, #96]
100006bf8: ff 43 02 91 	add	sp, sp, #144
100006bfc: c0 03 5f d6 	ret

0000000100006c00 <__ZN4core3ptr563drop_in_place$LT$core..iter..adapters..map..map_fold$LT$isize$C$std..ffi..os_str..OsString$C$$LP$$RP$$C$std..sys..unix..args..imp..args..$u7b$$u7b$closure$u7d$$u7d$$C$core..iter..traits..iterator..Iterator..for_each..call$LT$std..ffi..os_str..OsString$C$alloc..vec..Vec$LT$std..ffi..os_str..OsString$GT$..extend_trusted$LT$core..iter..adapters..map..Map$LT$core..ops..range..Range$LT$isize$GT$$C$std..sys..unix..args..imp..args..$u7b$$u7b$closure$u7d$$u7d$$GT$$GT$..$u7b$$u7b$closure$u7d$$u7d$$GT$..$u7b$$u7b$closure$u7d$$u7d$$GT$..$u7b$$u7b$closure$u7d$$u7d$$GT$17h2785ccd49639fad2E>:
100006c00: 20 00 00 f9 	str	x0, [x1]
100006c04: c0 03 5f d6 	ret

0000000100006c08 <__ZN4core3ptr60drop_in_place$LT$alloc..vec..Vec$LT$$RF$$u5b$u8$u5d$$GT$$GT$17ha3d0a1e1f28eff26E>:
100006c08: 08 00 40 f9 	ldr	x8, [x0]
100006c0c: a8 00 00 b4 	cbz	x8, 0x100006c20 <__ZN4core3ptr60drop_in_place$LT$alloc..vec..Vec$LT$$RF$$u5b$u8$u5d$$GT$$GT$17ha3d0a1e1f28eff26E+0x18>
100006c10: 00 04 40 f9 	ldr	x0, [x0, #8]
100006c14: 01 ed 7c d3 	lsl	x1, x8, #4
100006c18: 02 01 80 52 	mov	w2, #8
100006c1c: cb fa ff 17 	b	0x100005748 <___rust_dealloc>
100006c20: c0 03 5f d6 	ret

0000000100006c24 <__ZN4core3ptr62drop_in_place$LT$std..sys_common..once..queue..WaiterQueue$GT$17h56a29a14a80530afE>:
100006c24: 99 64 00 14 	b	0x10001fe88 <__ZN83_$LT$std..sys_common..once..queue..WaiterQueue$u20$as$u20$core..ops..drop..Drop$GT$4drop17hef0df77389c27e55E>

0000000100006c28 <__ZN4core3ptr64drop_in_place$LT$alloc..vec..Vec$LT$addr2line..UnitRange$GT$$GT$17h37ce5fd0101f2ba7E>:
100006c28: 08 00 40 f9 	ldr	x8, [x0]
100006c2c: a8 00 00 b4 	cbz	x8, 0x100006c40 <__ZN4core3ptr64drop_in_place$LT$alloc..vec..Vec$LT$addr2line..UnitRange$GT$$GT$17h37ce5fd0101f2ba7E+0x18>
100006c30: 00 04 40 f9 	ldr	x0, [x0, #8]
100006c34: 01 e9 7b d3 	lsl	x1, x8, #5
100006c38: 02 01 80 52 	mov	w2, #8
100006c3c: c3 fa ff 17 	b	0x100005748 <___rust_dealloc>
100006c40: c0 03 5f d6 	ret

0000000100006c44 <__ZN4core3ptr64drop_in_place$LT$std..backtrace_rs..print..BacktraceFrameFmt$GT$17hcb82c9255dd7b238E>:
100006c44: 08 08 40 f9 	ldr	x8, [x0, #16]
100006c48: 08 05 00 91 	add	x8, x8, #1
100006c4c: 08 08 00 f9 	str	x8, [x0, #16]
100006c50: c0 03 5f d6 	ret

0000000100006c54 <__ZN4core3ptr65drop_in_place$LT$alloc..vec..Vec$LT$alloc..string..String$GT$$GT$17h065917a73fbf5afaE>:
100006c54: f6 57 bd a9 	stp	x22, x21, [sp, #-48]!
100006c58: f4 4f 01 a9 	stp	x20, x19, [sp, #16]
100006c5c: fd 7b 02 a9 	stp	x29, x30, [sp, #32]
100006c60: fd 83 00 91 	add	x29, sp, #32
100006c64: f3 03 00 aa 	mov	x19, x0
100006c68: 08 08 40 f9 	ldr	x8, [x0, #16]
100006c6c: 08 02 00 b4 	cbz	x8, 0x100006cac <__ZN4core3ptr65drop_in_place$LT$alloc..vec..Vec$LT$alloc..string..String$GT$$GT$17h065917a73fbf5afaE+0x58>
100006c70: 69 06 40 f9 	ldr	x9, [x19, #8]
100006c74: 34 21 00 91 	add	x20, x9, #8
100006c78: 08 05 08 8b 	add	x8, x8, x8, lsl #1
100006c7c: 15 f1 7d d3 	lsl	x21, x8, #3
100006c80: 04 00 00 14 	b	0x100006c90 <__ZN4core3ptr65drop_in_place$LT$alloc..vec..Vec$LT$alloc..string..String$GT$$GT$17h065917a73fbf5afaE+0x3c>
100006c84: 94 62 00 91 	add	x20, x20, #24
100006c88: b5 62 00 f1 	subs	x21, x21, #24
100006c8c: 00 01 00 54 	b.eq	0x100006cac <__ZN4core3ptr65drop_in_place$LT$alloc..vec..Vec$LT$alloc..string..String$GT$$GT$17h065917a73fbf5afaE+0x58>
100006c90: 81 82 5f f8 	ldur	x1, [x20, #-8]
100006c94: 81 ff ff b4 	cbz	x1, 0x100006c84 <__ZN4core3ptr65drop_in_place$LT$alloc..vec..Vec$LT$alloc..string..String$GT$$GT$17h065917a73fbf5afaE+0x30>
100006c98: 80 02 40 f9 	ldr	x0, [x20]
100006c9c: e8 03 21 aa 	mvn	x8, x1
100006ca0: 02 fd 7f d3 	lsr	x2, x8, #63
100006ca4: a9 fa ff 97 	bl	0x100005748 <___rust_dealloc>
100006ca8: f7 ff ff 17 	b	0x100006c84 <__ZN4core3ptr65drop_in_place$LT$alloc..vec..Vec$LT$alloc..string..String$GT$$GT$17h065917a73fbf5afaE+0x30>
100006cac: 68 02 40 f9 	ldr	x8, [x19]
100006cb0: 28 01 00 b4 	cbz	x8, 0x100006cd4 <__ZN4core3ptr65drop_in_place$LT$alloc..vec..Vec$LT$alloc..string..String$GT$$GT$17h065917a73fbf5afaE+0x80>
100006cb4: 60 06 40 f9 	ldr	x0, [x19, #8]
100006cb8: 08 05 08 8b 	add	x8, x8, x8, lsl #1
100006cbc: 01 f1 7d d3 	lsl	x1, x8, #3
100006cc0: 02 01 80 52 	mov	w2, #8
100006cc4: fd 7b 42 a9 	ldp	x29, x30, [sp, #32]
100006cc8: f4 4f 41 a9 	ldp	x20, x19, [sp, #16]
100006ccc: f6 57 c3 a8 	ldp	x22, x21, [sp], #48
100006cd0: 9e fa ff 17 	b	0x100005748 <___rust_dealloc>
100006cd4: fd 7b 42 a9 	ldp	x29, x30, [sp, #32]
100006cd8: f4 4f 41 a9 	ldp	x20, x19, [sp, #16]
100006cdc: f6 57 c3 a8 	ldp	x22, x21, [sp], #48
100006ce0: c0 03 5f d6 	ret

0000000100006ce4 <__ZN4core3ptr65drop_in_place$LT$std..backtrace_rs..symbolize..gimli..Mapping$GT$17h7ed65f09cd485f04E>:
100006ce4: f6 57 bd a9 	stp	x22, x21, [sp, #-48]!
100006ce8: f4 4f 01 a9 	stp	x20, x19, [sp, #16]
100006cec: fd 7b 02 a9 	stp	x29, x30, [sp, #32]
100006cf0: fd 83 00 91 	add	x29, sp, #32
100006cf4: f3 03 00 aa 	mov	x19, x0
100006cf8: 00 00 02 91 	add	x0, x0, #128
100006cfc: 8b fc ff 97 	bl	0x100005f28 <__ZN4core3ptr124drop_in_place$LT$addr2line..ResDwarf$LT$gimli..read..endian_slice..EndianSlice$LT$gimli..endianity..LittleEndian$GT$$GT$$GT$17h48db50b97bd4a624E>
100006d00: e0 03 13 aa 	mov	x0, x19
100006d04: b6 00 00 94 	bl	0x100006fdc <__ZN4core3ptr71drop_in_place$LT$std..backtrace_rs..symbolize..gimli..macho..Object$GT$17hf0680dc0a1448b07E>
100006d08: 60 06 4c a9 	ldp	x0, x1, [x19, #192]
100006d0c: 7f bb 00 94 	bl	0x100035b08 <_writev+0x100035b08>
100006d10: 68 72 40 f9 	ldr	x8, [x19, #224]
100006d14: 08 02 00 b4 	cbz	x8, 0x100006d54 <__ZN4core3ptr65drop_in_place$LT$std..backtrace_rs..symbolize..gimli..Mapping$GT$17h7ed65f09cd485f04E+0x70>
100006d18: 69 6e 40 f9 	ldr	x9, [x19, #216]
100006d1c: 34 21 00 91 	add	x20, x9, #8
100006d20: 08 05 08 8b 	add	x8, x8, x8, lsl #1
100006d24: 15 f1 7d d3 	lsl	x21, x8, #3
100006d28: 04 00 00 14 	b	0x100006d38 <__ZN4core3ptr65drop_in_place$LT$std..backtrace_rs..symbolize..gimli..Mapping$GT$17h7ed65f09cd485f04E+0x54>
100006d2c: 94 62 00 91 	add	x20, x20, #24
100006d30: b5 62 00 f1 	subs	x21, x21, #24
100006d34: 00 01 00 54 	b.eq	0x100006d54 <__ZN4core3ptr65drop_in_place$LT$std..backtrace_rs..symbolize..gimli..Mapping$GT$17h7ed65f09cd485f04E+0x70>
100006d38: 81 82 5f f8 	ldur	x1, [x20, #-8]
100006d3c: 81 ff ff b4 	cbz	x1, 0x100006d2c <__ZN4core3ptr65drop_in_place$LT$std..backtrace_rs..symbolize..gimli..Mapping$GT$17h7ed65f09cd485f04E+0x48>
100006d40: 80 02 40 f9 	ldr	x0, [x20]
100006d44: e8 03 21 aa 	mvn	x8, x1
100006d48: 02 fd 7f d3 	lsr	x2, x8, #63
100006d4c: 7f fa ff 97 	bl	0x100005748 <___rust_dealloc>
100006d50: f7 ff ff 17 	b	0x100006d2c <__ZN4core3ptr65drop_in_place$LT$std..backtrace_rs..symbolize..gimli..Mapping$GT$17h7ed65f09cd485f04E+0x48>
100006d54: 68 6a 40 f9 	ldr	x8, [x19, #208]
100006d58: c8 00 00 b4 	cbz	x8, 0x100006d70 <__ZN4core3ptr65drop_in_place$LT$std..backtrace_rs..symbolize..gimli..Mapping$GT$17h7ed65f09cd485f04E+0x8c>
100006d5c: 60 6e 40 f9 	ldr	x0, [x19, #216]
100006d60: 08 05 08 8b 	add	x8, x8, x8, lsl #1
100006d64: 01 f1 7d d3 	lsl	x1, x8, #3
100006d68: 02 01 80 52 	mov	w2, #8
100006d6c: 77 fa ff 97 	bl	0x100005748 <___rust_dealloc>
100006d70: 68 76 40 f9 	ldr	x8, [x19, #232]
100006d74: c8 00 00 b4 	cbz	x8, 0x100006d8c <__ZN4core3ptr65drop_in_place$LT$std..backtrace_rs..symbolize..gimli..Mapping$GT$17h7ed65f09cd485f04E+0xa8>
100006d78: 60 06 4f a9 	ldp	x0, x1, [x19, #240]
100006d7c: fd 7b 42 a9 	ldp	x29, x30, [sp, #32]
100006d80: f4 4f 41 a9 	ldp	x20, x19, [sp, #16]
100006d84: f6 57 c3 a8 	ldp	x22, x21, [sp], #48
100006d88: 60 bb 00 14 	b	0x100035b08 <_writev+0x100035b08>
100006d8c: fd 7b 42 a9 	ldp	x29, x30, [sp, #32]
100006d90: f4 4f 41 a9 	ldp	x20, x19, [sp, #16]
100006d94: f6 57 c3 a8 	ldp	x22, x21, [sp], #48
100006d98: c0 03 5f d6 	ret
100006d9c: f4 03 00 aa 	mov	x20, x0
100006da0: 04 00 00 14 	b	0x100006db0 <__ZN4core3ptr65drop_in_place$LT$std..backtrace_rs..symbolize..gimli..Mapping$GT$17h7ed65f09cd485f04E+0xcc>
100006da4: f4 03 00 aa 	mov	x20, x0
100006da8: e0 03 13 aa 	mov	x0, x19
100006dac: 8c 00 00 94 	bl	0x100006fdc <__ZN4core3ptr71drop_in_place$LT$std..backtrace_rs..symbolize..gimli..macho..Object$GT$17hf0680dc0a1448b07E>
100006db0: 60 06 4c a9 	ldp	x0, x1, [x19, #192]
100006db4: 34 00 00 94 	bl	0x100006e84 <__ZN4core3ptr68drop_in_place$LT$std..backtrace_rs..symbolize..gimli..mmap..Mmap$GT$17hf92aa735c44652e2E>
100006db8: 60 42 03 91 	add	x0, x19, #208
100006dbc: 57 00 00 94 	bl	0x100006f18 <__ZN4core3ptr70drop_in_place$LT$std..backtrace_rs..symbolize..gimli..stash..Stash$GT$17h5f6d0ce90d96dbafE>
100006dc0: e0 03 14 aa 	mov	x0, x20
100006dc4: f7 ba 00 94 	bl	0x1000359a0 <_writev+0x1000359a0>
100006dc8: 50 ba 00 94 	bl	0x100035708 <__ZN4core9panicking19panic_cannot_unwind17h0bac00b37026e68cE>
100006dcc: 4f ba 00 94 	bl	0x100035708 <__ZN4core9panicking19panic_cannot_unwind17h0bac00b37026e68cE>

0000000100006dd0 <__ZN4core3ptr67drop_in_place$LT$alloc..vec..Vec$LT$addr2line..LineSequence$GT$$GT$17h7d95cfacc3dfa231E>:
100006dd0: f6 57 bd a9 	stp	x22, x21, [sp, #-48]!
100006dd4: f4 4f 01 a9 	stp	x20, x19, [sp, #16]
100006dd8: fd 7b 02 a9 	stp	x29, x30, [sp, #32]
100006ddc: fd 83 00 91 	add	x29, sp, #32
100006de0: f3 03 00 aa 	mov	x19, x0
100006de4: 08 08 40 f9 	ldr	x8, [x0, #16]
100006de8: 08 02 00 b4 	cbz	x8, 0x100006e28 <__ZN4core3ptr67drop_in_place$LT$alloc..vec..Vec$LT$addr2line..LineSequence$GT$$GT$17h7d95cfacc3dfa231E+0x58>
100006dec: 69 06 40 f9 	ldr	x9, [x19, #8]
100006df0: 34 21 00 91 	add	x20, x9, #8
100006df4: 15 e9 7b d3 	lsl	x21, x8, #5
100006df8: 04 00 00 14 	b	0x100006e08 <__ZN4core3ptr67drop_in_place$LT$alloc..vec..Vec$LT$addr2line..LineSequence$GT$$GT$17h7d95cfacc3dfa231E+0x38>
100006dfc: 94 82 00 91 	add	x20, x20, #32
100006e00: b5 82 00 f1 	subs	x21, x21, #32
100006e04: 20 01 00 54 	b.eq	0x100006e28 <__ZN4core3ptr67drop_in_place$LT$alloc..vec..Vec$LT$addr2line..LineSequence$GT$$GT$17h7d95cfacc3dfa231E+0x58>
100006e08: 88 02 40 f9 	ldr	x8, [x20]
100006e0c: 88 ff ff b4 	cbz	x8, 0x100006dfc <__ZN4core3ptr67drop_in_place$LT$alloc..vec..Vec$LT$addr2line..LineSequence$GT$$GT$17h7d95cfacc3dfa231E+0x2c>
100006e10: 80 82 5f f8 	ldur	x0, [x20, #-8]
100006e14: 08 05 08 8b 	add	x8, x8, x8, lsl #1
100006e18: 01 f1 7d d3 	lsl	x1, x8, #3
100006e1c: 02 01 80 52 	mov	w2, #8
100006e20: 4a fa ff 97 	bl	0x100005748 <___rust_dealloc>
100006e24: f6 ff ff 17 	b	0x100006dfc <__ZN4core3ptr67drop_in_place$LT$alloc..vec..Vec$LT$addr2line..LineSequence$GT$$GT$17h7d95cfacc3dfa231E+0x2c>
100006e28: 68 02 40 f9 	ldr	x8, [x19]
100006e2c: 08 01 00 b4 	cbz	x8, 0x100006e4c <__ZN4core3ptr67drop_in_place$LT$alloc..vec..Vec$LT$addr2line..LineSequence$GT$$GT$17h7d95cfacc3dfa231E+0x7c>
100006e30: 60 06 40 f9 	ldr	x0, [x19, #8]
100006e34: 01 e9 7b d3 	lsl	x1, x8, #5
100006e38: 02 01 80 52 	mov	w2, #8
100006e3c: fd 7b 42 a9 	ldp	x29, x30, [sp, #32]
100006e40: f4 4f 41 a9 	ldp	x20, x19, [sp, #16]
100006e44: f6 57 c3 a8 	ldp	x22, x21, [sp], #48
100006e48: 40 fa ff 17 	b	0x100005748 <___rust_dealloc>
100006e4c: fd 7b 42 a9 	ldp	x29, x30, [sp, #32]
100006e50: f4 4f 41 a9 	ldp	x20, x19, [sp, #16]
100006e54: f6 57 c3 a8 	ldp	x22, x21, [sp], #48
100006e58: c0 03 5f d6 	ret

0000000100006e5c <__ZN4core3ptr68drop_in_place$LT$core..option..Option$LT$std..thread..Thread$GT$$GT$17h870652f82c257347E>:
100006e5c: 08 00 40 f9 	ldr	x8, [x0]
100006e60: 08 01 00 b4 	cbz	x8, 0x100006e80 <__ZN4core3ptr68drop_in_place$LT$core..option..Option$LT$std..thread..Thread$GT$$GT$17h870652f82c257347E+0x24>
100006e64: 09 00 80 92 	mov	x9, #-1
100006e68: 08 01 69 f8 	<unknown>
100006e6c: 1f 05 00 f1 	cmp	x8, #1
100006e70: 81 00 00 54 	b.ne	0x100006e80 <__ZN4core3ptr68drop_in_place$LT$core..option..Option$LT$std..thread..Thread$GT$$GT$17h870652f82c257347E+0x24>
100006e74: bf 39 03 d5 	dmb	ishld
100006e78: 00 00 40 f9 	ldr	x0, [x0]
100006e7c: 6c 0d 00 14 	b	0x10000a42c <__ZN5alloc4sync12Arc$LT$T$GT$9drop_slow17ha933b7e537087b1aE>
100006e80: c0 03 5f d6 	ret

0000000100006e84 <__ZN4core3ptr68drop_in_place$LT$std..backtrace_rs..symbolize..gimli..mmap..Mmap$GT$17hf92aa735c44652e2E>:
100006e84: 21 bb 00 14 	b	0x100035b08 <_writev+0x100035b08>

0000000100006e88 <__ZN4core3ptr70drop_in_place$LT$alloc..vec..Vec$LT$std..ffi..os_str..OsString$GT$$GT$17h6e3c8bbd989cb30eE>:
100006e88: f6 57 bd a9 	stp	x22, x21, [sp, #-48]!
100006e8c: f4 4f 01 a9 	stp	x20, x19, [sp, #16]
100006e90: fd 7b 02 a9 	stp	x29, x30, [sp, #32]
100006e94: fd 83 00 91 	add	x29, sp, #32
100006e98: f3 03 00 aa 	mov	x19, x0
100006e9c: 08 08 40 f9 	ldr	x8, [x0, #16]
100006ea0: 08 02 00 b4 	cbz	x8, 0x100006ee0 <__ZN4core3ptr70drop_in_place$LT$alloc..vec..Vec$LT$std..ffi..os_str..OsString$GT$$GT$17h6e3c8bbd989cb30eE+0x58>
100006ea4: 69 06 40 f9 	ldr	x9, [x19, #8]
100006ea8: 34 21 00 91 	add	x20, x9, #8
100006eac: 08 05 08 8b 	add	x8, x8, x8, lsl #1
100006eb0: 15 f1 7d d3 	lsl	x21, x8, #3
100006eb4: 04 00 00 14 	b	0x100006ec4 <__ZN4core3ptr70drop_in_place$LT$alloc..vec..Vec$LT$std..ffi..os_str..OsString$GT$$GT$17h6e3c8bbd989cb30eE+0x3c>
100006eb8: 94 62 00 91 	add	x20, x20, #24
100006ebc: b5 62 00 f1 	subs	x21, x21, #24
100006ec0: 00 01 00 54 	b.eq	0x100006ee0 <__ZN4core3ptr70drop_in_place$LT$alloc..vec..Vec$LT$std..ffi..os_str..OsString$GT$$GT$17h6e3c8bbd989cb30eE+0x58>
100006ec4: 81 82 5f f8 	ldur	x1, [x20, #-8]
100006ec8: 81 ff ff b4 	cbz	x1, 0x100006eb8 <__ZN4core3ptr70drop_in_place$LT$alloc..vec..Vec$LT$std..ffi..os_str..OsString$GT$$GT$17h6e3c8bbd989cb30eE+0x30>
100006ecc: 80 02 40 f9 	ldr	x0, [x20]
100006ed0: e8 03 21 aa 	mvn	x8, x1
100006ed4: 02 fd 7f d3 	lsr	x2, x8, #63
100006ed8: 1c fa ff 97 	bl	0x100005748 <___rust_dealloc>
100006edc: f7 ff ff 17 	b	0x100006eb8 <__ZN4core3ptr70drop_in_place$LT$alloc..vec..Vec$LT$std..ffi..os_str..OsString$GT$$GT$17h6e3c8bbd989cb30eE+0x30>
100006ee0: 68 02 40 f9 	ldr	x8, [x19]
100006ee4: 28 01 00 b4 	cbz	x8, 0x100006f08 <__ZN4core3ptr70drop_in_place$LT$alloc..vec..Vec$LT$std..ffi..os_str..OsString$GT$$GT$17h6e3c8bbd989cb30eE+0x80>
100006ee8: 60 06 40 f9 	ldr	x0, [x19, #8]
100006eec: 08 05 08 8b 	add	x8, x8, x8, lsl #1
100006ef0: 01 f1 7d d3 	lsl	x1, x8, #3
100006ef4: 02 01 80 52 	mov	w2, #8
100006ef8: fd 7b 42 a9 	ldp	x29, x30, [sp, #32]
100006efc: f4 4f 41 a9 	ldp	x20, x19, [sp, #16]
100006f00: f6 57 c3 a8 	ldp	x22, x21, [sp], #48
100006f04: 11 fa ff 17 	b	0x100005748 <___rust_dealloc>
100006f08: fd 7b 42 a9 	ldp	x29, x30, [sp, #32]
100006f0c: f4 4f 41 a9 	ldp	x20, x19, [sp, #16]
100006f10: f6 57 c3 a8 	ldp	x22, x21, [sp], #48
100006f14: c0 03 5f d6 	ret

0000000100006f18 <__ZN4core3ptr70drop_in_place$LT$std..backtrace_rs..symbolize..gimli..stash..Stash$GT$17h5f6d0ce90d96dbafE>:
100006f18: f6 57 bd a9 	stp	x22, x21, [sp, #-48]!
100006f1c: f4 4f 01 a9 	stp	x20, x19, [sp, #16]
100006f20: fd 7b 02 a9 	stp	x29, x30, [sp, #32]
100006f24: fd 83 00 91 	add	x29, sp, #32
100006f28: f3 03 00 aa 	mov	x19, x0
100006f2c: 08 08 40 f9 	ldr	x8, [x0, #16]
100006f30: 08 02 00 b4 	cbz	x8, 0x100006f70 <__ZN4core3ptr70drop_in_place$LT$std..backtrace_rs..symbolize..gimli..stash..Stash$GT$17h5f6d0ce90d96dbafE+0x58>
100006f34: 69 06 40 f9 	ldr	x9, [x19, #8]
100006f38: 34 21 00 91 	add	x20, x9, #8
100006f3c: 08 05 08 8b 	add	x8, x8, x8, lsl #1
100006f40: 15 f1 7d d3 	lsl	x21, x8, #3
100006f44: 04 00 00 14 	b	0x100006f54 <__ZN4core3ptr70drop_in_place$LT$std..backtrace_rs..symbolize..gimli..stash..Stash$GT$17h5f6d0ce90d96dbafE+0x3c>
100006f48: 94 62 00 91 	add	x20, x20, #24
100006f4c: b5 62 00 f1 	subs	x21, x21, #24
100006f50: 00 01 00 54 	b.eq	0x100006f70 <__ZN4core3ptr70drop_in_place$LT$std..backtrace_rs..symbolize..gimli..stash..Stash$GT$17h5f6d0ce90d96dbafE+0x58>
100006f54: 81 82 5f f8 	ldur	x1, [x20, #-8]
100006f58: 81 ff ff b4 	cbz	x1, 0x100006f48 <__ZN4core3ptr70drop_in_place$LT$std..backtrace_rs..symbolize..gimli..stash..Stash$GT$17h5f6d0ce90d96dbafE+0x30>
100006f5c: 80 02 40 f9 	ldr	x0, [x20]
100006f60: e8 03 21 aa 	mvn	x8, x1
100006f64: 02 fd 7f d3 	lsr	x2, x8, #63
100006f68: f8 f9 ff 97 	bl	0x100005748 <___rust_dealloc>
100006f6c: f7 ff ff 17 	b	0x100006f48 <__ZN4core3ptr70drop_in_place$LT$std..backtrace_rs..symbolize..gimli..stash..Stash$GT$17h5f6d0ce90d96dbafE+0x30>
100006f70: 68 02 40 f9 	ldr	x8, [x19]
100006f74: c8 00 00 b4 	cbz	x8, 0x100006f8c <__ZN4core3ptr70drop_in_place$LT$std..backtrace_rs..symbolize..gimli..stash..Stash$GT$17h5f6d0ce90d96dbafE+0x74>
100006f78: 60 06 40 f9 	ldr	x0, [x19, #8]
100006f7c: 08 05 08 8b 	add	x8, x8, x8, lsl #1
100006f80: 01 f1 7d d3 	lsl	x1, x8, #3
100006f84: 02 01 80 52 	mov	w2, #8
100006f88: f0 f9 ff 97 	bl	0x100005748 <___rust_dealloc>
100006f8c: 68 0e 40 f9 	ldr	x8, [x19, #24]
100006f90: c8 00 00 b4 	cbz	x8, 0x100006fa8 <__ZN4core3ptr70drop_in_place$LT$std..backtrace_rs..symbolize..gimli..stash..Stash$GT$17h5f6d0ce90d96dbafE+0x90>
100006f94: 60 06 42 a9 	ldp	x0, x1, [x19, #32]
100006f98: fd 7b 42 a9 	ldp	x29, x30, [sp, #32]
100006f9c: f4 4f 41 a9 	ldp	x20, x19, [sp, #16]
100006fa0: f6 57 c3 a8 	ldp	x22, x21, [sp], #48
100006fa4: d9 ba 00 14 	b	0x100035b08 <_writev+0x100035b08>
100006fa8: fd 7b 42 a9 	ldp	x29, x30, [sp, #32]
100006fac: f4 4f 41 a9 	ldp	x20, x19, [sp, #16]
100006fb0: f6 57 c3 a8 	ldp	x22, x21, [sp], #48
100006fb4: c0 03 5f d6 	ret

0000000100006fb8 <__ZN4core3ptr70drop_in_place$LT$std..panicking..begin_panic_handler..PanicPayload$GT$17h35f3d6f344def32dE>:
100006fb8: e8 03 00 aa 	mov	x8, x0
100006fbc: 00 04 40 f9 	ldr	x0, [x0, #8]
100006fc0: c0 00 00 b4 	cbz	x0, 0x100006fd8 <__ZN4core3ptr70drop_in_place$LT$std..panicking..begin_panic_handler..PanicPayload$GT$17h35f3d6f344def32dE+0x20>
100006fc4: 01 01 40 f9 	ldr	x1, [x8]
100006fc8: 81 00 00 b4 	cbz	x1, 0x100006fd8 <__ZN4core3ptr70drop_in_place$LT$std..panicking..begin_panic_handler..PanicPayload$GT$17h35f3d6f344def32dE+0x20>
100006fcc: e8 03 21 aa 	mvn	x8, x1
100006fd0: 02 fd 7f d3 	lsr	x2, x8, #63
100006fd4: dd f9 ff 17 	b	0x100005748 <___rust_dealloc>
100006fd8: c0 03 5f d6 	ret

0000000100006fdc <__ZN4core3ptr71drop_in_place$LT$std..backtrace_rs..symbolize..gimli..macho..Object$GT$17hf0680dc0a1448b07E>:
100006fdc: f8 5f bc a9 	stp	x24, x23, [sp, #-64]!
100006fe0: f6 57 01 a9 	stp	x22, x21, [sp, #16]
100006fe4: f4 4f 02 a9 	stp	x20, x19, [sp, #32]
100006fe8: fd 7b 03 a9 	stp	x29, x30, [sp, #48]
100006fec: fd c3 00 91 	add	x29, sp, #48
100006ff0: f3 03 00 aa 	mov	x19, x0
100006ff4: 08 30 40 f9 	ldr	x8, [x0, #96]
100006ff8: c8 00 00 b4 	cbz	x8, 0x100007010 <__ZN4core3ptr71drop_in_place$LT$std..backtrace_rs..symbolize..gimli..macho..Object$GT$17hf0680dc0a1448b07E+0x34>
100006ffc: 60 36 40 f9 	ldr	x0, [x19, #104]
100007000: 08 05 08 8b 	add	x8, x8, x8, lsl #1
100007004: 01 f1 7d d3 	lsl	x1, x8, #3
100007008: 02 01 80 52 	mov	w2, #8
10000700c: cf f9 ff 97 	bl	0x100005748 <___rust_dealloc>
100007010: 60 0e 40 f9 	ldr	x0, [x19, #24]
100007014: a0 01 00 b4 	cbz	x0, 0x100007048 <__ZN4core3ptr71drop_in_place$LT$std..backtrace_rs..symbolize..gimli..macho..Object$GT$17hf0680dc0a1448b07E+0x6c>
100007018: 68 0a 40 f9 	ldr	x8, [x19, #16]
10000701c: a8 00 00 b4 	cbz	x8, 0x100007030 <__ZN4core3ptr71drop_in_place$LT$std..backtrace_rs..symbolize..gimli..macho..Object$GT$17hf0680dc0a1448b07E+0x54>
100007020: 08 09 08 8b 	add	x8, x8, x8, lsl #2
100007024: 01 f1 7d d3 	lsl	x1, x8, #3
100007028: 02 01 80 52 	mov	w2, #8
10000702c: c7 f9 ff 97 	bl	0x100005748 <___rust_dealloc>
100007030: 68 16 40 f9 	ldr	x8, [x19, #40]
100007034: a8 00 00 b4 	cbz	x8, 0x100007048 <__ZN4core3ptr71drop_in_place$LT$std..backtrace_rs..symbolize..gimli..macho..Object$GT$17hf0680dc0a1448b07E+0x6c>
100007038: 60 1a 40 f9 	ldr	x0, [x19, #48]
10000703c: 01 ed 7c d3 	lsl	x1, x8, #4
100007040: 02 01 80 52 	mov	w2, #8
100007044: c1 f9 ff 97 	bl	0x100005748 <___rust_dealloc>
100007048: 68 2e 40 f9 	ldr	x8, [x19, #88]
10000704c: 08 03 00 b4 	cbz	x8, 0x1000070ac <__ZN4core3ptr71drop_in_place$LT$std..backtrace_rs..symbolize..gimli..macho..Object$GT$17hf0680dc0a1448b07E+0xd0>
100007050: 60 2a 40 f9 	ldr	x0, [x19, #80]
100007054: 16 20 08 8b 	add	x22, x0, x8, lsl #8
100007058: 15 dd 78 d3 	lsl	x21, x8, #8
10000705c: 04 00 00 14 	b	0x10000706c <__ZN4core3ptr71drop_in_place$LT$std..backtrace_rs..symbolize..gimli..macho..Object$GT$17hf0680dc0a1448b07E+0x90>
100007060: e0 03 14 aa 	mov	x0, x20
100007064: b5 02 04 f1 	subs	x21, x21, #256
100007068: e0 00 00 54 	b.eq	0x100007084 <__ZN4core3ptr71drop_in_place$LT$std..backtrace_rs..symbolize..gimli..macho..Object$GT$17hf0680dc0a1448b07E+0xa8>
10000706c: 14 00 04 91 	add	x20, x0, #256
100007070: 08 e0 41 39 	ldrb	w8, [x0, #120]
100007074: 1f 05 00 71 	cmp	w8, #1
100007078: 48 ff ff 54 	b.hi	0x100007060 <__ZN4core3ptr71drop_in_place$LT$std..backtrace_rs..symbolize..gimli..macho..Object$GT$17hf0680dc0a1448b07E+0x84>
10000707c: 1a ff ff 97 	bl	0x100006ce4 <__ZN4core3ptr65drop_in_place$LT$std..backtrace_rs..symbolize..gimli..Mapping$GT$17h7ed65f09cd485f04E>
100007080: f8 ff ff 17 	b	0x100007060 <__ZN4core3ptr71drop_in_place$LT$std..backtrace_rs..symbolize..gimli..macho..Object$GT$17hf0680dc0a1448b07E+0x84>
100007084: 68 2e 40 f9 	ldr	x8, [x19, #88]
100007088: 28 01 00 b4 	cbz	x8, 0x1000070ac <__ZN4core3ptr71drop_in_place$LT$std..backtrace_rs..symbolize..gimli..macho..Object$GT$17hf0680dc0a1448b07E+0xd0>
10000708c: 60 2a 40 f9 	ldr	x0, [x19, #80]
100007090: 01 dd 78 d3 	lsl	x1, x8, #8
100007094: 02 01 80 52 	mov	w2, #8
100007098: fd 7b 43 a9 	ldp	x29, x30, [sp, #48]
10000709c: f4 4f 42 a9 	ldp	x20, x19, [sp, #32]
1000070a0: f6 57 41 a9 	ldp	x22, x21, [sp, #16]
1000070a4: f8 5f c4 a8 	ldp	x24, x23, [sp], #64
1000070a8: a8 f9 ff 17 	b	0x100005748 <___rust_dealloc>
1000070ac: fd 7b 43 a9 	ldp	x29, x30, [sp, #48]
1000070b0: f4 4f 42 a9 	ldp	x20, x19, [sp, #32]
1000070b4: f6 57 41 a9 	ldp	x22, x21, [sp, #16]
1000070b8: f8 5f c4 a8 	ldp	x24, x23, [sp], #64
1000070bc: c0 03 5f d6 	ret
1000070c0: f5 03 00 aa 	mov	x21, x0
1000070c4: 9f 02 16 eb 	cmp	x20, x22
1000070c8: c0 00 00 54 	b.eq	0x1000070e0 <__ZN4core3ptr71drop_in_place$LT$std..backtrace_rs..symbolize..gimli..macho..Object$GT$17hf0680dc0a1448b07E+0x104>
1000070cc: 97 02 04 91 	add	x23, x20, #256
1000070d0: e0 03 14 aa 	mov	x0, x20
1000070d4: 72 fb ff 97 	bl	0x100005e9c <__ZN4core3ptr121drop_in_place$LT$core..option..Option$LT$core..option..Option$LT$std..backtrace_rs..symbolize..gimli..Mapping$GT$$GT$$GT$17hdcf6ba98fc856d89E>
1000070d8: f4 03 17 aa 	mov	x20, x23
1000070dc: fa ff ff 17 	b	0x1000070c4 <__ZN4core3ptr71drop_in_place$LT$std..backtrace_rs..symbolize..gimli..macho..Object$GT$17hf0680dc0a1448b07E+0xe8>
1000070e0: 60 06 45 a9 	ldp	x0, x1, [x19, #80]
1000070e4: 25 0d 00 94 	bl	0x10000a578 <__ZN5alloc5alloc8box_free17hbd7e1da61ad7582fE>
1000070e8: e0 03 15 aa 	mov	x0, x21
1000070ec: 2d ba 00 94 	bl	0x1000359a0 <_writev+0x1000359a0>
1000070f0: 86 b9 00 94 	bl	0x100035708 <__ZN4core9panicking19panic_cannot_unwind17h0bac00b37026e68cE>

00000001000070f4 <__ZN4core3ptr71drop_in_place$LT$std..sync..rwlock..RwLockReadGuard$LT$$LP$$RP$$GT$$GT$17hb1ff498add6bc1e2E>:
1000070f4: fd 7b bf a9 	stp	x29, x30, [sp, #-16]!
1000070f8: fd 03 00 91 	mov	x29, sp
1000070fc: 08 04 40 f9 	ldr	x8, [x0, #8]
100007100: 00 fd df c8 	ldar	x0, [x8]
100007104: c0 00 00 b4 	cbz	x0, 0x10000711c <__ZN4core3ptr71drop_in_place$LT$std..sync..rwlock..RwLockReadGuard$LT$$LP$$RP$$GT$$GT$17hb1ff498add6bc1e2E+0x28>
100007108: 08 20 03 91 	add	x8, x0, #200
10000710c: 09 00 80 92 	mov	x9, #-1
100007110: 08 01 29 f8 	<unknown>
100007114: fd 7b c1 a8 	ldp	x29, x30, [sp], #16
100007118: ac ba 00 14 	b	0x100035bc8 <_writev+0x100035bc8>
10000711c: e0 03 08 aa 	mov	x0, x8
100007120: bf b6 00 94 	bl	0x100034c1c <__ZN3std10sys_common8lazy_box16LazyBox$LT$T$GT$10initialize17h1d82de8564add2f7E>
100007124: f9 ff ff 17 	b	0x100007108 <__ZN4core3ptr71drop_in_place$LT$std..sync..rwlock..RwLockReadGuard$LT$$LP$$RP$$GT$$GT$17hb1ff498add6bc1e2E+0x14>

0000000100007128 <__ZN4core3ptr72drop_in_place$LT$alloc..collections..btree..mem..replace..PanicGuard$GT$17he6e84be7ed04fb69E>:
100007128: 0e 96 00 14 	b	0x10002c960 <__ZN93_$LT$alloc..collections..btree..mem..replace..PanicGuard$u20$as$u20$core..ops..drop..Drop$GT$4drop17h51631cde4f3f1c1dE>

000000010000712c <__ZN4core3ptr72drop_in_place$LT$core..option..Option$LT$object..read..ObjectMap$GT$$GT$17hf02792f53b894db6E>:
10000712c: f4 4f be a9 	stp	x20, x19, [sp, #-32]!
100007130: fd 7b 01 a9 	stp	x29, x30, [sp, #16]
100007134: fd 43 00 91 	add	x29, sp, #16
100007138: f3 03 00 aa 	mov	x19, x0
10000713c: 00 04 40 f9 	ldr	x0, [x0, #8]
100007140: e0 01 00 b4 	cbz	x0, 0x10000717c <__ZN4core3ptr72drop_in_place$LT$core..option..Option$LT$object..read..ObjectMap$GT$$GT$17hf02792f53b894db6E+0x50>
100007144: 68 02 40 f9 	ldr	x8, [x19]
100007148: a8 00 00 b4 	cbz	x8, 0x10000715c <__ZN4core3ptr72drop_in_place$LT$core..option..Option$LT$object..read..ObjectMap$GT$$GT$17hf02792f53b894db6E+0x30>
10000714c: 08 09 08 8b 	add	x8, x8, x8, lsl #2
100007150: 01 f1 7d d3 	lsl	x1, x8, #3
100007154: 02 01 80 52 	mov	w2, #8
100007158: 7c f9 ff 97 	bl	0x100005748 <___rust_dealloc>
10000715c: 68 0e 40 f9 	ldr	x8, [x19, #24]
100007160: e8 00 00 b4 	cbz	x8, 0x10000717c <__ZN4core3ptr72drop_in_place$LT$core..option..Option$LT$object..read..ObjectMap$GT$$GT$17hf02792f53b894db6E+0x50>
100007164: 60 12 40 f9 	ldr	x0, [x19, #32]
100007168: 01 ed 7c d3 	lsl	x1, x8, #4
10000716c: 02 01 80 52 	mov	w2, #8
100007170: fd 7b 41 a9 	ldp	x29, x30, [sp, #16]
100007174: f4 4f c2 a8 	ldp	x20, x19, [sp], #32
100007178: 74 f9 ff 17 	b	0x100005748 <___rust_dealloc>
10000717c: fd 7b 41 a9 	ldp	x29, x30, [sp, #16]
100007180: f4 4f c2 a8 	ldp	x20, x19, [sp], #32
100007184: c0 03 5f d6 	ret

0000000100007188 <__ZN4core3ptr73drop_in_place$LT$std..sys..unix..locks..pthread_mutex..AllocatedMutex$GT$17h91e2b32f87837701E>:
100007188: 72 ba 00 14 	b	0x100035b50 <_writev+0x100035b50>

000000010000718c <__ZN4core3ptr75drop_in_place$LT$core..option..Option$LT$alloc..ffi..c_str..CString$GT$$GT$17h52e2630a00b0a0faE>:
10000718c: 08 00 40 f9 	ldr	x8, [x0]
100007190: e8 00 00 b4 	cbz	x8, 0x1000071ac <__ZN4core3ptr75drop_in_place$LT$core..option..Option$LT$alloc..ffi..c_str..CString$GT$$GT$17h52e2630a00b0a0faE+0x20>
100007194: 1f 01 00 39 	strb	wzr, [x8]
100007198: 01 04 40 f9 	ldr	x1, [x0, #8]
10000719c: 81 00 00 b4 	cbz	x1, 0x1000071ac <__ZN4core3ptr75drop_in_place$LT$core..option..Option$LT$alloc..ffi..c_str..CString$GT$$GT$17h52e2630a00b0a0faE+0x20>
1000071a0: 00 00 40 f9 	ldr	x0, [x0]
1000071a4: 22 00 80 52 	mov	w2, #1
1000071a8: 68 f9 ff 17 	b	0x100005748 <___rust_dealloc>
1000071ac: c0 03 5f d6 	ret

00000001000071b0 <__ZN4core3ptr75drop_in_place$LT$std..sys..unix..locks..pthread_mutex..PthreadMutexAttr$GT$17ha04635e8769929deE>:
1000071b0: 77 ba 00 14 	b	0x100035b8c <_writev+0x100035b8c>

00000001000071b4 <__ZN4core3ptr75drop_in_place$LT$std..sys..unix..locks..pthread_rwlock..AllocatedRwLock$GT$17hbef18b5870da4e32E>:
1000071b4: 7f ba 00 14 	b	0x100035bb0 <_writev+0x100035bb0>

00000001000071b8 <__ZN4core3ptr77drop_in_place$LT$alloc..boxed..Box$LT$$u5b$alloc..string..String$u5d$$GT$$GT$17h0035ac5b607f6627E>:
1000071b8: f6 57 bd a9 	stp	x22, x21, [sp, #-48]!
1000071bc: f4 4f 01 a9 	stp	x20, x19, [sp, #16]
1000071c0: fd 7b 02 a9 	stp	x29, x30, [sp, #32]
1000071c4: fd 83 00 91 	add	x29, sp, #32
1000071c8: 08 04 40 f9 	ldr	x8, [x0, #8]
1000071cc: 68 03 00 b4 	cbz	x8, 0x100007238 <__ZN4core3ptr77drop_in_place$LT$alloc..boxed..Box$LT$$u5b$alloc..string..String$u5d$$GT$$GT$17h0035ac5b607f6627E+0x80>
1000071d0: f3 03 00 aa 	mov	x19, x0
1000071d4: 09 00 40 f9 	ldr	x9, [x0]
1000071d8: 34 21 00 91 	add	x20, x9, #8
1000071dc: 08 05 08 8b 	add	x8, x8, x8, lsl #1
1000071e0: 15 f1 7d d3 	lsl	x21, x8, #3
1000071e4: 04 00 00 14 	b	0x1000071f4 <__ZN4core3ptr77drop_in_place$LT$alloc..boxed..Box$LT$$u5b$alloc..string..String$u5d$$GT$$GT$17h0035ac5b607f6627E+0x3c>
1000071e8: 94 62 00 91 	add	x20, x20, #24
1000071ec: b5 62 00 f1 	subs	x21, x21, #24
1000071f0: 00 01 00 54 	b.eq	0x100007210 <__ZN4core3ptr77drop_in_place$LT$alloc..boxed..Box$LT$$u5b$alloc..string..String$u5d$$GT$$GT$17h0035ac5b607f6627E+0x58>
1000071f4: 81 82 5f f8 	ldur	x1, [x20, #-8]
1000071f8: 81 ff ff b4 	cbz	x1, 0x1000071e8 <__ZN4core3ptr77drop_in_place$LT$alloc..boxed..Box$LT$$u5b$alloc..string..String$u5d$$GT$$GT$17h0035ac5b607f6627E+0x30>
1000071fc: 80 02 40 f9 	ldr	x0, [x20]
100007200: e8 03 21 aa 	mvn	x8, x1
100007204: 02 fd 7f d3 	lsr	x2, x8, #63
100007208: 50 f9 ff 97 	bl	0x100005748 <___rust_dealloc>
10000720c: f7 ff ff 17 	b	0x1000071e8 <__ZN4core3ptr77drop_in_place$LT$alloc..boxed..Box$LT$$u5b$alloc..string..String$u5d$$GT$$GT$17h0035ac5b607f6627E+0x30>
100007210: 68 06 40 f9 	ldr	x8, [x19, #8]
100007214: 28 01 00 b4 	cbz	x8, 0x100007238 <__ZN4core3ptr77drop_in_place$LT$alloc..boxed..Box$LT$$u5b$alloc..string..String$u5d$$GT$$GT$17h0035ac5b607f6627E+0x80>
100007218: 60 02 40 f9 	ldr	x0, [x19]
10000721c: 08 05 08 8b 	add	x8, x8, x8, lsl #1
100007220: 01 f1 7d d3 	lsl	x1, x8, #3
100007224: 02 01 80 52 	mov	w2, #8
100007228: fd 7b 42 a9 	ldp	x29, x30, [sp, #32]
10000722c: f4 4f 41 a9 	ldp	x20, x19, [sp, #16]
100007230: f6 57 c3 a8 	ldp	x22, x21, [sp], #48
100007234: 45 f9 ff 17 	b	0x100005748 <___rust_dealloc>
100007238: fd 7b 42 a9 	ldp	x29, x30, [sp, #32]
10000723c: f4 4f 41 a9 	ldp	x20, x19, [sp, #16]
100007240: f6 57 c3 a8 	ldp	x22, x21, [sp], #48
100007244: c0 03 5f d6 	ret

0000000100007248 <__ZN4core3ptr78drop_in_place$LT$alloc..vec..Vec$LT$gimli..read..line..FileEntryFormat$GT$$GT$17h240da5584a553484E>:
100007248: 08 00 40 f9 	ldr	x8, [x0]
10000724c: a8 00 00 b4 	cbz	x8, 0x100007260 <__ZN4core3ptr78drop_in_place$LT$alloc..vec..Vec$LT$gimli..read..line..FileEntryFormat$GT$$GT$17h240da5584a553484E+0x18>
100007250: 00 04 40 f9 	ldr	x0, [x0, #8]
100007254: 01 f5 7e d3 	lsl	x1, x8, #2
100007258: 42 00 80 52 	mov	w2, #2
10000725c: 3b f9 ff 17 	b	0x100005748 <___rust_dealloc>
100007260: c0 03 5f d6 	ret

0000000100007264 <__ZN4core3ptr81drop_in_place$LT$$LP$usize$C$std..backtrace_rs..symbolize..gimli..Mapping$RP$$GT$17hc7f75ce4611fe819E>:
100007264: 00 20 00 91 	add	x0, x0, #8
100007268: 9f fe ff 17 	b	0x100006ce4 <__ZN4core3ptr65drop_in_place$LT$std..backtrace_rs..symbolize..gimli..Mapping$GT$17h7ed65f09cd485f04E>

000000010000726c <__ZN4core3ptr81drop_in_place$LT$core..result..Result$LT$$LP$$RP$$C$std..io..error..Error$GT$$GT$17h6e5bf18683570d70E>:
10000726c: f6 57 bd a9 	stp	x22, x21, [sp, #-48]!
100007270: f4 4f 01 a9 	stp	x20, x19, [sp, #16]
100007274: fd 7b 02 a9 	stp	x29, x30, [sp, #32]
100007278: fd 83 00 91 	add	x29, sp, #32
10000727c: e0 02 00 b4 	cbz	x0, 0x1000072d8 <__ZN4core3ptr81drop_in_place$LT$core..result..Result$LT$$LP$$RP$$C$std..io..error..Error$GT$$GT$17h6e5bf18683570d70E+0x6c>
100007280: f4 03 00 aa 	mov	x20, x0
100007284: 08 04 40 92 	and	x8, x0, #0x3
100007288: 1f 05 00 f1 	cmp	x8, #1
10000728c: 61 02 00 54 	b.ne	0x1000072d8 <__ZN4core3ptr81drop_in_place$LT$core..result..Result$LT$$LP$$RP$$C$std..io..error..Error$GT$$GT$17h6e5bf18683570d70E+0x6c>
100007290: f3 03 14 aa 	mov	x19, x20
100007294: 60 fe 5f f8 	ldr	x0, [x19, #-1]!
100007298: 68 06 40 f9 	ldr	x8, [x19, #8]
10000729c: 08 01 40 f9 	ldr	x8, [x8]
1000072a0: 00 01 3f d6 	blr	x8
1000072a4: 88 72 40 f8 	ldur	x8, [x20, #7]
1000072a8: 01 05 40 f9 	ldr	x1, [x8, #8]
1000072ac: 81 00 00 b4 	cbz	x1, 0x1000072bc <__ZN4core3ptr81drop_in_place$LT$core..result..Result$LT$$LP$$RP$$C$std..io..error..Error$GT$$GT$17h6e5bf18683570d70E+0x50>
1000072b0: 02 09 40 f9 	ldr	x2, [x8, #16]
1000072b4: 60 02 40 f9 	ldr	x0, [x19]
1000072b8: 24 f9 ff 97 	bl	0x100005748 <___rust_dealloc>
1000072bc: e0 03 13 aa 	mov	x0, x19
1000072c0: 01 03 80 52 	mov	w1, #24
1000072c4: 02 01 80 52 	mov	w2, #8
1000072c8: fd 7b 42 a9 	ldp	x29, x30, [sp, #32]
1000072cc: f4 4f 41 a9 	ldp	x20, x19, [sp, #16]
1000072d0: f6 57 c3 a8 	ldp	x22, x21, [sp], #48
1000072d4: 1d f9 ff 17 	b	0x100005748 <___rust_dealloc>
1000072d8: fd 7b 42 a9 	ldp	x29, x30, [sp, #32]
1000072dc: f4 4f 41 a9 	ldp	x20, x19, [sp, #16]
1000072e0: f6 57 c3 a8 	ldp	x22, x21, [sp], #48
1000072e4: c0 03 5f d6 	ret
1000072e8: f5 03 00 aa 	mov	x21, x0
1000072ec: 80 f2 5f f8 	ldur	x0, [x20, #-1]
1000072f0: 88 72 40 f8 	ldur	x8, [x20, #7]
1000072f4: 01 89 40 a9 	ldp	x1, x2, [x8, #8]
1000072f8: 9a 0c 00 94 	bl	0x10000a560 <__ZN5alloc5alloc8box_free17h37d2b627fc90e8c5E>
1000072fc: e0 03 13 aa 	mov	x0, x19
100007300: 95 0c 00 94 	bl	0x10000a554 <__ZN5alloc5alloc8box_free17h3125d351d32f12acE>
100007304: e0 03 15 aa 	mov	x0, x21
100007308: a6 b9 00 94 	bl	0x1000359a0 <_writev+0x1000359a0>

000000010000730c <__ZN4core3ptr82drop_in_place$LT$alloc..sync..ArcInner$LT$std..sys..unix..fs..InnerReadDir$GT$$GT$17h57444e1a1794782bE>:
10000730c: f4 4f be a9 	stp	x20, x19, [sp, #-32]!
100007310: fd 7b 01 a9 	stp	x29, x30, [sp, #16]
100007314: fd 43 00 91 	add	x29, sp, #16
100007318: f3 03 00 aa 	mov	x19, x0
10000731c: 00 40 00 91 	add	x0, x0, #16
100007320: 6a 5e 00 94 	bl	0x10001ecc8 <__ZN65_$LT$std..sys..unix..fs..Dir$u20$as$u20$core..ops..drop..Drop$GT$4drop17hb8741b9df74a6188E>
100007324: 61 0e 40 f9 	ldr	x1, [x19, #24]
100007328: e1 00 00 b4 	cbz	x1, 0x100007344 <__ZN4core3ptr82drop_in_place$LT$alloc..sync..ArcInner$LT$std..sys..unix..fs..InnerReadDir$GT$$GT$17h57444e1a1794782bE+0x38>
10000732c: 60 12 40 f9 	ldr	x0, [x19, #32]
100007330: e8 03 21 aa 	mvn	x8, x1
100007334: 02 fd 7f d3 	lsr	x2, x8, #63
100007338: fd 7b 41 a9 	ldp	x29, x30, [sp, #16]
10000733c: f4 4f c2 a8 	ldp	x20, x19, [sp], #32
100007340: 02 f9 ff 17 	b	0x100005748 <___rust_dealloc>
100007344: fd 7b 41 a9 	ldp	x29, x30, [sp, #16]
100007348: f4 4f c2 a8 	ldp	x20, x19, [sp], #32
10000734c: c0 03 5f d6 	ret
100007350: f4 03 00 aa 	mov	x20, x0
100007354: 60 62 00 91 	add	x0, x19, #24
100007358: 86 fc ff 97 	bl	0x100006570 <__ZN4core3ptr205drop_in_place$LT$$LT$alloc..boxed..Box$LT$dyn$u20$core..error..Error$u2b$core..marker..Send$u2b$core..marker..Sync$GT$$u20$as$u20$core..convert..From$LT$alloc..string..String$GT$$GT$..from..StringError$GT$17hc189c4586dd5d4e3E>
10000735c: e0 03 14 aa 	mov	x0, x20
100007360: 90 b9 00 94 	bl	0x1000359a0 <_writev+0x1000359a0>

0000000100007364 <__ZN4core3ptr83drop_in_place$LT$std..sys_common..thread_info..set..$u7b$$u7b$closure$u7d$$u7d$$GT$17ha86b15b9ea2551bcE>:
100007364: 08 00 40 f9 	ldr	x8, [x0]
100007368: 09 00 80 92 	mov	x9, #-1
10000736c: 08 01 69 f8 	<unknown>
100007370: 1f 05 00 f1 	cmp	x8, #1
100007374: 81 00 00 54 	b.ne	0x100007384 <__ZN4core3ptr83drop_in_place$LT$std..sys_common..thread_info..set..$u7b$$u7b$closure$u7d$$u7d$$GT$17ha86b15b9ea2551bcE+0x20>
100007378: bf 39 03 d5 	dmb	ishld
10000737c: 00 00 40 f9 	ldr	x0, [x0]
100007380: 2b 0c 00 14 	b	0x10000a42c <__ZN5alloc4sync12Arc$LT$T$GT$9drop_slow17ha933b7e537087b1aE>
100007384: c0 03 5f d6 	ret

0000000100007388 <__ZN4core3ptr84drop_in_place$LT$std..io..stdio..set_output_capture..$u7b$$u7b$closure$u7d$$u7d$$GT$17ha401487342877d68E>:
100007388: 08 00 40 f9 	ldr	x8, [x0]
10000738c: 08 01 00 b4 	cbz	x8, 0x1000073ac <__ZN4core3ptr84drop_in_place$LT$std..io..stdio..set_output_capture..$u7b$$u7b$closure$u7d$$u7d$$GT$17ha401487342877d68E+0x24>
100007390: 09 00 80 92 	mov	x9, #-1
100007394: 08 01 69 f8 	<unknown>
100007398: 1f 05 00 f1 	cmp	x8, #1
10000739c: 81 00 00 54 	b.ne	0x1000073ac <__ZN4core3ptr84drop_in_place$LT$std..io..stdio..set_output_capture..$u7b$$u7b$closure$u7d$$u7d$$GT$17ha401487342877d68E+0x24>
1000073a0: bf 39 03 d5 	dmb	ishld
1000073a4: 00 00 40 f9 	ldr	x0, [x0]
1000073a8: 40 0c 00 14 	b	0x10000a4a8 <__ZN5alloc4sync12Arc$LT$T$GT$9drop_slow17hfbdaaab5f62c66e2E>
1000073ac: c0 03 5f d6 	ret

00000001000073b0 <__ZN4core3ptr86drop_in_place$LT$core..result..Result$LT$addr2line..Lines$C$gimli..read..Error$GT$$GT$17h69aecbf47008dfefE>:
1000073b0: f6 57 bd a9 	stp	x22, x21, [sp, #-48]!
1000073b4: f4 4f 01 a9 	stp	x20, x19, [sp, #16]
1000073b8: fd 7b 02 a9 	stp	x29, x30, [sp, #32]
1000073bc: fd 83 00 91 	add	x29, sp, #32
1000073c0: 08 00 40 f9 	ldr	x8, [x0]
1000073c4: 68 06 00 b4 	cbz	x8, 0x100007490 <__ZN4core3ptr86drop_in_place$LT$core..result..Result$LT$addr2line..Lines$C$gimli..read..Error$GT$$GT$17h69aecbf47008dfefE+0xe0>
1000073c8: f3 03 00 aa 	mov	x19, x0
1000073cc: 09 04 40 f9 	ldr	x9, [x0, #8]
1000073d0: c9 02 00 b4 	cbz	x9, 0x100007428 <__ZN4core3ptr86drop_in_place$LT$core..result..Result$LT$addr2line..Lines$C$gimli..read..Error$GT$$GT$17h69aecbf47008dfefE+0x78>
1000073d4: 14 21 00 91 	add	x20, x8, #8
1000073d8: 28 05 09 8b 	add	x8, x9, x9, lsl #1
1000073dc: 15 f1 7d d3 	lsl	x21, x8, #3
1000073e0: 04 00 00 14 	b	0x1000073f0 <__ZN4core3ptr86drop_in_place$LT$core..result..Result$LT$addr2line..Lines$C$gimli..read..Error$GT$$GT$17h69aecbf47008dfefE+0x40>
1000073e4: 94 62 00 91 	add	x20, x20, #24
1000073e8: b5 62 00 f1 	subs	x21, x21, #24
1000073ec: 00 01 00 54 	b.eq	0x10000740c <__ZN4core3ptr86drop_in_place$LT$core..result..Result$LT$addr2line..Lines$C$gimli..read..Error$GT$$GT$17h69aecbf47008dfefE+0x5c>
1000073f0: 81 82 5f f8 	ldur	x1, [x20, #-8]
1000073f4: 81 ff ff b4 	cbz	x1, 0x1000073e4 <__ZN4core3ptr86drop_in_place$LT$core..result..Result$LT$addr2line..Lines$C$gimli..read..Error$GT$$GT$17h69aecbf47008dfefE+0x34>
1000073f8: 80 02 40 f9 	ldr	x0, [x20]
1000073fc: e8 03 21 aa 	mvn	x8, x1
100007400: 02 fd 7f d3 	lsr	x2, x8, #63
100007404: d1 f8 ff 97 	bl	0x100005748 <___rust_dealloc>
100007408: f7 ff ff 17 	b	0x1000073e4 <__ZN4core3ptr86drop_in_place$LT$core..result..Result$LT$addr2line..Lines$C$gimli..read..Error$GT$$GT$17h69aecbf47008dfefE+0x34>
10000740c: 68 06 40 f9 	ldr	x8, [x19, #8]
100007410: c8 00 00 b4 	cbz	x8, 0x100007428 <__ZN4core3ptr86drop_in_place$LT$core..result..Result$LT$addr2line..Lines$C$gimli..read..Error$GT$$GT$17h69aecbf47008dfefE+0x78>
100007414: 60 02 40 f9 	ldr	x0, [x19]
100007418: 08 05 08 8b 	add	x8, x8, x8, lsl #1
10000741c: 01 f1 7d d3 	lsl	x1, x8, #3
100007420: 02 01 80 52 	mov	w2, #8
100007424: c9 f8 ff 97 	bl	0x100005748 <___rust_dealloc>
100007428: 68 0e 40 f9 	ldr	x8, [x19, #24]
10000742c: 28 03 00 b4 	cbz	x8, 0x100007490 <__ZN4core3ptr86drop_in_place$LT$core..result..Result$LT$addr2line..Lines$C$gimli..read..Error$GT$$GT$17h69aecbf47008dfefE+0xe0>
100007430: 69 0a 40 f9 	ldr	x9, [x19, #16]
100007434: 34 21 00 91 	add	x20, x9, #8
100007438: 15 e9 7b d3 	lsl	x21, x8, #5
10000743c: 04 00 00 14 	b	0x10000744c <__ZN4core3ptr86drop_in_place$LT$core..result..Result$LT$addr2line..Lines$C$gimli..read..Error$GT$$GT$17h69aecbf47008dfefE+0x9c>
100007440: 94 82 00 91 	add	x20, x20, #32
100007444: b5 82 00 f1 	subs	x21, x21, #32
100007448: 20 01 00 54 	b.eq	0x10000746c <__ZN4core3ptr86drop_in_place$LT$core..result..Result$LT$addr2line..Lines$C$gimli..read..Error$GT$$GT$17h69aecbf47008dfefE+0xbc>
10000744c: 88 02 40 f9 	ldr	x8, [x20]
100007450: 88 ff ff b4 	cbz	x8, 0x100007440 <__ZN4core3ptr86drop_in_place$LT$core..result..Result$LT$addr2line..Lines$C$gimli..read..Error$GT$$GT$17h69aecbf47008dfefE+0x90>
100007454: 80 82 5f f8 	ldur	x0, [x20, #-8]
100007458: 08 05 08 8b 	add	x8, x8, x8, lsl #1
10000745c: 01 f1 7d d3 	lsl	x1, x8, #3
100007460: 02 01 80 52 	mov	w2, #8
100007464: b9 f8 ff 97 	bl	0x100005748 <___rust_dealloc>
100007468: f6 ff ff 17 	b	0x100007440 <__ZN4core3ptr86drop_in_place$LT$core..result..Result$LT$addr2line..Lines$C$gimli..read..Error$GT$$GT$17h69aecbf47008dfefE+0x90>
10000746c: 68 0e 40 f9 	ldr	x8, [x19, #24]
100007470: 08 01 00 b4 	cbz	x8, 0x100007490 <__ZN4core3ptr86drop_in_place$LT$core..result..Result$LT$addr2line..Lines$C$gimli..read..Error$GT$$GT$17h69aecbf47008dfefE+0xe0>
100007474: 60 0a 40 f9 	ldr	x0, [x19, #16]
100007478: 01 e9 7b d3 	lsl	x1, x8, #5
10000747c: 02 01 80 52 	mov	w2, #8
100007480: fd 7b 42 a9 	ldp	x29, x30, [sp, #32]
100007484: f4 4f 41 a9 	ldp	x20, x19, [sp, #16]
100007488: f6 57 c3 a8 	ldp	x22, x21, [sp], #48
10000748c: af f8 ff 17 	b	0x100005748 <___rust_dealloc>
100007490: fd 7b 42 a9 	ldp	x29, x30, [sp, #32]
100007494: f4 4f 41 a9 	ldp	x20, x19, [sp, #16]
100007498: f6 57 c3 a8 	ldp	x22, x21, [sp], #48
10000749c: c0 03 5f d6 	ret

00000001000074a0 <__ZN4core3ptr86drop_in_place$LT$core..slice..sort..CopyOnDrop$LT$object..read..ObjectMapEntry$GT$$GT$17h366168e20bc3a4edE>:
1000074a0: 00 04 40 ad 	ldp	q0, q1, [x0]
1000074a4: 08 10 40 f9 	ldr	x8, [x0, #32]
1000074a8: 28 10 00 f9 	str	x8, [x1, #32]
1000074ac: 20 04 00 ad 	stp	q0, q1, [x1]
1000074b0: c0 03 5f d6 	ret

00000001000074b4 <__ZN4core3ptr88drop_in_place$LT$alloc..vec..Vec$LT$std..backtrace_rs..symbolize..gimli..Library$GT$$GT$17hbdd1762c4adff6f5E>:
1000074b4: f6 57 bd a9 	stp	x22, x21, [sp, #-48]!
1000074b8: f4 4f 01 a9 	stp	x20, x19, [sp, #16]
1000074bc: fd 7b 02 a9 	stp	x29, x30, [sp, #32]
1000074c0: fd 83 00 91 	add	x29, sp, #32
1000074c4: f3 03 00 aa 	mov	x19, x0
1000074c8: 08 08 40 f9 	ldr	x8, [x0, #16]
1000074cc: c8 02 00 b4 	cbz	x8, 0x100007524 <__ZN4core3ptr88drop_in_place$LT$alloc..vec..Vec$LT$std..backtrace_rs..symbolize..gimli..Library$GT$$GT$17hbdd1762c4adff6f5E+0x70>
1000074d0: 69 06 40 f9 	ldr	x9, [x19, #8]
1000074d4: 34 a1 00 91 	add	x20, x9, #40
1000074d8: 09 07 80 52 	mov	w9, #56
1000074dc: 15 7d 09 9b 	mul	x21, x8, x9
1000074e0: 04 00 00 14 	b	0x1000074f0 <__ZN4core3ptr88drop_in_place$LT$alloc..vec..Vec$LT$std..backtrace_rs..symbolize..gimli..Library$GT$$GT$17hbdd1762c4adff6f5E+0x3c>
1000074e4: 94 e2 00 91 	add	x20, x20, #56
1000074e8: b5 e2 00 f1 	subs	x21, x21, #56
1000074ec: c0 01 00 54 	b.eq	0x100007524 <__ZN4core3ptr88drop_in_place$LT$alloc..vec..Vec$LT$std..backtrace_rs..symbolize..gimli..Library$GT$$GT$17hbdd1762c4adff6f5E+0x70>
1000074f0: 81 02 5e f8 	ldur	x1, [x20, #-32]
1000074f4: a1 00 00 b4 	cbz	x1, 0x100007508 <__ZN4core3ptr88drop_in_place$LT$alloc..vec..Vec$LT$std..backtrace_rs..symbolize..gimli..Library$GT$$GT$17hbdd1762c4adff6f5E+0x54>
1000074f8: 80 82 5e f8 	ldur	x0, [x20, #-24]
1000074fc: e8 03 21 aa 	mvn	x8, x1
100007500: 02 fd 7f d3 	lsr	x2, x8, #63
100007504: 91 f8 ff 97 	bl	0x100005748 <___rust_dealloc>
100007508: 88 82 5f f8 	ldur	x8, [x20, #-8]
10000750c: c8 fe ff b4 	cbz	x8, 0x1000074e4 <__ZN4core3ptr88drop_in_place$LT$alloc..vec..Vec$LT$std..backtrace_rs..symbolize..gimli..Library$GT$$GT$17hbdd1762c4adff6f5E+0x30>
100007510: 80 02 40 f9 	ldr	x0, [x20]
100007514: 01 ed 7c d3 	lsl	x1, x8, #4
100007518: 02 01 80 52 	mov	w2, #8
10000751c: 8b f8 ff 97 	bl	0x100005748 <___rust_dealloc>
100007520: f1 ff ff 17 	b	0x1000074e4 <__ZN4core3ptr88drop_in_place$LT$alloc..vec..Vec$LT$std..backtrace_rs..symbolize..gimli..Library$GT$$GT$17hbdd1762c4adff6f5E+0x30>
100007524: 68 02 40 f9 	ldr	x8, [x19]
100007528: 28 01 00 b4 	cbz	x8, 0x10000754c <__ZN4core3ptr88drop_in_place$LT$alloc..vec..Vec$LT$std..backtrace_rs..symbolize..gimli..Library$GT$$GT$17hbdd1762c4adff6f5E+0x98>
10000752c: 60 06 40 f9 	ldr	x0, [x19, #8]
100007530: 09 07 80 52 	mov	w9, #56
100007534: 01 7d 09 9b 	mul	x1, x8, x9
100007538: 02 01 80 52 	mov	w2, #8
10000753c: fd 7b 42 a9 	ldp	x29, x30, [sp, #32]
100007540: f4 4f 41 a9 	ldp	x20, x19, [sp, #16]
100007544: f6 57 c3 a8 	ldp	x22, x21, [sp], #48
100007548: 80 f8 ff 17 	b	0x100005748 <___rust_dealloc>
10000754c: fd 7b 42 a9 	ldp	x29, x30, [sp, #32]
100007550: f4 4f 41 a9 	ldp	x20, x19, [sp, #16]
100007554: f6 57 c3 a8 	ldp	x22, x21, [sp], #48
100007558: c0 03 5f d6 	ret

000000010000755c <__ZN4core3ptr88drop_in_place$LT$core..slice..sort..CopyOnDrop$LT$$LP$$RF$$u5b$u8$u5d$$C$u64$RP$$GT$$GT$17h3a2ad2d9358e09a7E>:
10000755c: 00 00 c0 3d 	ldr	q0, [x0]
100007560: 08 08 40 f9 	ldr	x8, [x0, #16]
100007564: 28 08 00 f9 	str	x8, [x1, #16]
100007568: 20 00 80 3d 	str	q0, [x1]
10000756c: c0 03 5f d6 	ret

0000000100007570 <__ZN4core3ptr88drop_in_place$LT$std..io..Write..write_fmt..Adapter$LT$alloc..vec..Vec$LT$u8$GT$$GT$$GT$17hf1080e35a2d85914E>:
100007570: f4 4f be a9 	stp	x20, x19, [sp, #-32]!
100007574: fd 7b 01 a9 	stp	x29, x30, [sp, #16]
100007578: fd 43 00 91 	add	x29, sp, #16
10000757c: 14 00 40 f9 	ldr	x20, [x0]
100007580: 88 06 40 92 	and	x8, x20, #0x3
100007584: 9f 02 00 f1 	cmp	x20, #0
100007588: 00 19 41 fa 	ccmp	x8, #1, #0, ne
10000758c: 80 00 00 54 	b.eq	0x10000759c <__ZN4core3ptr88drop_in_place$LT$std..io..Write..write_fmt..Adapter$LT$alloc..vec..Vec$LT$u8$GT$$GT$$GT$17hf1080e35a2d85914E+0x2c>
100007590: fd 7b 41 a9 	ldp	x29, x30, [sp, #16]
100007594: f4 4f c2 a8 	ldp	x20, x19, [sp], #32
100007598: c0 03 5f d6 	ret
10000759c: f3 03 14 aa 	mov	x19, x20
1000075a0: 60 fe 5f f8 	ldr	x0, [x19, #-1]!
1000075a4: 68 06 40 f9 	ldr	x8, [x19, #8]
1000075a8: 08 01 40 f9 	ldr	x8, [x8]
1000075ac: 00 01 3f d6 	blr	x8
1000075b0: 88 72 40 f8 	ldur	x8, [x20, #7]
1000075b4: 01 05 40 f9 	ldr	x1, [x8, #8]
1000075b8: 81 00 00 b4 	cbz	x1, 0x1000075c8 <__ZN4core3ptr88drop_in_place$LT$std..io..Write..write_fmt..Adapter$LT$alloc..vec..Vec$LT$u8$GT$$GT$$GT$17hf1080e35a2d85914E+0x58>
1000075bc: 02 09 40 f9 	ldr	x2, [x8, #16]
1000075c0: 60 02 40 f9 	ldr	x0, [x19]
1000075c4: 61 f8 ff 97 	bl	0x100005748 <___rust_dealloc>
1000075c8: e0 03 13 aa 	mov	x0, x19
1000075cc: 01 03 80 52 	mov	w1, #24
1000075d0: 02 01 80 52 	mov	w2, #8
1000075d4: fd 7b 41 a9 	ldp	x29, x30, [sp, #16]
1000075d8: f4 4f c2 a8 	ldp	x20, x19, [sp], #32
1000075dc: 5b f8 ff 17 	b	0x100005748 <___rust_dealloc>
1000075e0: e8 03 14 aa 	mov	x8, x20
1000075e4: f4 03 00 aa 	mov	x20, x0
1000075e8: 00 f1 5f f8 	ldur	x0, [x8, #-1]
1000075ec: 08 71 40 f8 	ldur	x8, [x8, #7]
1000075f0: 01 89 40 a9 	ldp	x1, x2, [x8, #8]
1000075f4: db 0b 00 94 	bl	0x10000a560 <__ZN5alloc5alloc8box_free17h37d2b627fc90e8c5E>
1000075f8: e0 03 13 aa 	mov	x0, x19
1000075fc: d6 0b 00 94 	bl	0x10000a554 <__ZN5alloc5alloc8box_free17h3125d351d32f12acE>
100007600: e0 03 14 aa 	mov	x0, x20
100007604: e7 b8 00 94 	bl	0x1000359a0 <_writev+0x1000359a0>

0000000100007608 <__ZN4core3ptr90drop_in_place$LT$std..io..buffered..bufwriter..BufWriter$LT$W$GT$..flush_buf..BufGuard$GT$17h501a9a4e3fc9300dE>:
100007608: f4 4f be a9 	stp	x20, x19, [sp, #-32]!
10000760c: fd 7b 01 a9 	stp	x29, x30, [sp, #16]
100007610: fd 43 00 91 	add	x29, sp, #16
100007614: a0 01 00 b4 	cbz	x0, 0x100007648 <__ZN4core3ptr90drop_in_place$LT$std..io..buffered..bufwriter..BufWriter$LT$W$GT$..flush_buf..BufGuard$GT$17h501a9a4e3fc9300dE+0x40>
100007618: f3 03 01 aa 	mov	x19, x1
10000761c: 21 08 40 f9 	ldr	x1, [x1, #16]
100007620: 34 00 00 eb 	subs	x20, x1, x0
100007624: 83 01 00 54 	b.lo	0x100007654 <__ZN4core3ptr90drop_in_place$LT$std..io..buffered..bufwriter..BufWriter$LT$W$GT$..flush_buf..BufGuard$GT$17h501a9a4e3fc9300dE+0x4c>
100007628: 7f 0a 00 f9 	str	xzr, [x19, #16]
10000762c: e0 00 00 54 	b.eq	0x100007648 <__ZN4core3ptr90drop_in_place$LT$std..io..buffered..bufwriter..BufWriter$LT$W$GT$..flush_buf..BufGuard$GT$17h501a9a4e3fc9300dE+0x40>
100007630: 68 06 40 f9 	ldr	x8, [x19, #8]
100007634: 01 01 00 8b 	add	x1, x8, x0
100007638: e0 03 08 aa 	mov	x0, x8
10000763c: e2 03 14 aa 	mov	x2, x20
100007640: 26 b9 00 94 	bl	0x100035ad8 <_writev+0x100035ad8>
100007644: 74 0a 00 f9 	str	x20, [x19, #16]
100007648: fd 7b 41 a9 	ldp	x29, x30, [sp, #16]
10000764c: f4 4f c2 a8 	ldp	x20, x19, [sp], #32
100007650: c0 03 5f d6 	ret
100007654: 22 7c 1e 10 	adr	x2, #249732
100007658: 1f 20 03 d5 	nop
10000765c: 99 b8 00 94 	bl	0x1000358c0 <__ZN4core5slice5index24slice_end_index_len_fail17hd708255cc7251033E>

0000000100007660 <__ZN4core3ptr95drop_in_place$LT$core..option..IntoIter$LT$std..backtrace_rs..symbolize..gimli..Library$GT$$GT$17hd78da4008ffd108bE>:
100007660: f4 4f be a9 	stp	x20, x19, [sp, #-32]!
100007664: fd 7b 01 a9 	stp	x29, x30, [sp, #16]
100007668: fd 43 00 91 	add	x29, sp, #16
10000766c: f3 03 00 aa 	mov	x19, x0
100007670: 00 08 40 f9 	ldr	x0, [x0, #16]
100007674: c0 01 00 b4 	cbz	x0, 0x1000076ac <__ZN4core3ptr95drop_in_place$LT$core..option..IntoIter$LT$std..backtrace_rs..symbolize..gimli..Library$GT$$GT$17hd78da4008ffd108bE+0x4c>
100007678: 61 06 40 f9 	ldr	x1, [x19, #8]
10000767c: 81 00 00 b4 	cbz	x1, 0x10000768c <__ZN4core3ptr95drop_in_place$LT$core..option..IntoIter$LT$std..backtrace_rs..symbolize..gimli..Library$GT$$GT$17hd78da4008ffd108bE+0x2c>
100007680: e8 03 21 aa 	mvn	x8, x1
100007684: 02 fd 7f d3 	lsr	x2, x8, #63
100007688: 30 f8 ff 97 	bl	0x100005748 <___rust_dealloc>
10000768c: 68 12 40 f9 	ldr	x8, [x19, #32]
100007690: e8 00 00 b4 	cbz	x8, 0x1000076ac <__ZN4core3ptr95drop_in_place$LT$core..option..IntoIter$LT$std..backtrace_rs..symbolize..gimli..Library$GT$$GT$17hd78da4008ffd108bE+0x4c>
100007694: 60 16 40 f9 	ldr	x0, [x19, #40]
100007698: 01 ed 7c d3 	lsl	x1, x8, #4
10000769c: 02 01 80 52 	mov	w2, #8
1000076a0: fd 7b 41 a9 	ldp	x29, x30, [sp, #16]
1000076a4: f4 4f c2 a8 	ldp	x20, x19, [sp], #32
1000076a8: 28 f8 ff 17 	b	0x100005748 <___rust_dealloc>
1000076ac: fd 7b 41 a9 	ldp	x29, x30, [sp, #16]
1000076b0: f4 4f c2 a8 	ldp	x20, x19, [sp], #32
1000076b4: c0 03 5f d6 	ret

00000001000076b8 <__ZN4core3ptr95drop_in_place$LT$std..io..buffered..linewriter..LineWriter$LT$std..io..stdio..StdoutRaw$GT$$GT$17hdce423a9c65a9a48E>:
1000076b8: f6 57 bd a9 	stp	x22, x21, [sp, #-48]!
1000076bc: f4 4f 01 a9 	stp	x20, x19, [sp, #16]
1000076c0: fd 7b 02 a9 	stp	x29, x30, [sp, #32]
1000076c4: fd 83 00 91 	add	x29, sp, #32
1000076c8: f3 03 00 aa 	mov	x19, x0
1000076cc: 08 60 40 39 	ldrb	w8, [x0, #24]
1000076d0: e8 02 00 35 	cbnz	w8, 0x10000772c <__ZN4core3ptr95drop_in_place$LT$std..io..buffered..linewriter..LineWriter$LT$std..io..stdio..StdoutRaw$GT$$GT$17hdce423a9c65a9a48E+0x74>
1000076d4: e0 03 13 aa 	mov	x0, x19
1000076d8: 3f 48 00 94 	bl	0x1000197d4 <__ZN3std2io8buffered9bufwriter18BufWriter$LT$W$GT$9flush_buf17h9cc06eb49ac2bd79E>
1000076dc: f5 03 00 aa 	mov	x21, x0
1000076e0: 60 02 00 b4 	cbz	x0, 0x10000772c <__ZN4core3ptr95drop_in_place$LT$std..io..buffered..linewriter..LineWriter$LT$std..io..stdio..StdoutRaw$GT$$GT$17hdce423a9c65a9a48E+0x74>
1000076e4: a8 06 40 92 	and	x8, x21, #0x3
1000076e8: 1f 05 00 f1 	cmp	x8, #1
1000076ec: 01 02 00 54 	b.ne	0x10000772c <__ZN4core3ptr95drop_in_place$LT$std..io..buffered..linewriter..LineWriter$LT$std..io..stdio..StdoutRaw$GT$$GT$17hdce423a9c65a9a48E+0x74>
1000076f0: f4 03 15 aa 	mov	x20, x21
1000076f4: 80 fe 5f f8 	ldr	x0, [x20, #-1]!
1000076f8: 88 06 40 f9 	ldr	x8, [x20, #8]
1000076fc: 08 01 40 f9 	ldr	x8, [x8]
100007700: 00 01 3f d6 	blr	x8
100007704: a8 72 40 f8 	ldur	x8, [x21, #7]
100007708: 01 05 40 f9 	ldr	x1, [x8, #8]
10000770c: 81 00 00 b4 	cbz	x1, 0x10000771c <__ZN4core3ptr95drop_in_place$LT$std..io..buffered..linewriter..LineWriter$LT$std..io..stdio..StdoutRaw$GT$$GT$17hdce423a9c65a9a48E+0x64>
100007710: 02 09 40 f9 	ldr	x2, [x8, #16]
100007714: 80 02 40 f9 	ldr	x0, [x20]
100007718: 0c f8 ff 97 	bl	0x100005748 <___rust_dealloc>
10000771c: e0 03 14 aa 	mov	x0, x20
100007720: 01 03 80 52 	mov	w1, #24
100007724: 02 01 80 52 	mov	w2, #8
100007728: 08 f8 ff 97 	bl	0x100005748 <___rust_dealloc>
10000772c: 61 02 40 f9 	ldr	x1, [x19]
100007730: 01 01 00 b4 	cbz	x1, 0x100007750 <__ZN4core3ptr95drop_in_place$LT$std..io..buffered..linewriter..LineWriter$LT$std..io..stdio..StdoutRaw$GT$$GT$17hdce423a9c65a9a48E+0x98>
100007734: 60 06 40 f9 	ldr	x0, [x19, #8]
100007738: e8 03 21 aa 	mvn	x8, x1
10000773c: 02 fd 7f d3 	lsr	x2, x8, #63
100007740: fd 7b 42 a9 	ldp	x29, x30, [sp, #32]
100007744: f4 4f 41 a9 	ldp	x20, x19, [sp, #16]
100007748: f6 57 c3 a8 	ldp	x22, x21, [sp], #48
10000774c: ff f7 ff 17 	b	0x100005748 <___rust_dealloc>
100007750: fd 7b 42 a9 	ldp	x29, x30, [sp, #32]
100007754: f4 4f 41 a9 	ldp	x20, x19, [sp, #16]
100007758: f6 57 c3 a8 	ldp	x22, x21, [sp], #48
10000775c: c0 03 5f d6 	ret
100007760: e8 03 15 aa 	mov	x8, x21
100007764: f5 03 00 aa 	mov	x21, x0
100007768: 00 f1 5f f8 	ldur	x0, [x8, #-1]
10000776c: 08 71 40 f8 	ldur	x8, [x8, #7]
100007770: 01 89 40 a9 	ldp	x1, x2, [x8, #8]
100007774: 7b 0b 00 94 	bl	0x10000a560 <__ZN5alloc5alloc8box_free17h37d2b627fc90e8c5E>
100007778: e0 03 14 aa 	mov	x0, x20
10000777c: 76 0b 00 94 	bl	0x10000a554 <__ZN5alloc5alloc8box_free17h3125d351d32f12acE>
100007780: 02 00 00 14 	b	0x100007788 <__ZN4core3ptr95drop_in_place$LT$std..io..buffered..linewriter..LineWriter$LT$std..io..stdio..StdoutRaw$GT$$GT$17hdce423a9c65a9a48E+0xd0>
100007784: f5 03 00 aa 	mov	x21, x0
100007788: e0 03 13 aa 	mov	x0, x19
10000778c: 97 fc ff 97 	bl	0x1000069e8 <__ZN4core3ptr46drop_in_place$LT$alloc..vec..Vec$LT$u8$GT$$GT$17h66005cdbd4264197E>
100007790: e0 03 15 aa 	mov	x0, x21
100007794: 83 b8 00 94 	bl	0x1000359a0 <_writev+0x1000359a0>
100007798: dc b7 00 94 	bl	0x100035708 <__ZN4core9panicking19panic_cannot_unwind17h0bac00b37026e68cE>

000000010000779c <__ZN4core3ptr98drop_in_place$LT$alloc..boxed..Box$LT$std..sys..unix..locks..pthread_mutex..AllocatedMutex$GT$$GT$17h01cf415346441276E>:
10000779c: f4 4f be a9 	stp	x20, x19, [sp, #-32]!
1000077a0: fd 7b 01 a9 	stp	x29, x30, [sp, #16]
1000077a4: fd 43 00 91 	add	x29, sp, #16
1000077a8: f3 03 00 aa 	mov	x19, x0
1000077ac: 00 00 40 f9 	ldr	x0, [x0]
1000077b0: e8 b8 00 94 	bl	0x100035b50 <_writev+0x100035b50>
1000077b4: 60 02 40 f9 	ldr	x0, [x19]
1000077b8: 01 08 80 52 	mov	w1, #64
1000077bc: 02 01 80 52 	mov	w2, #8
1000077c0: fd 7b 41 a9 	ldp	x29, x30, [sp, #16]
1000077c4: f4 4f c2 a8 	ldp	x20, x19, [sp], #32
1000077c8: e0 f7 ff 17 	b	0x100005748 <___rust_dealloc>

00000001000077cc <__ZN4core5slice4sort12choose_pivot28_$u7b$$u7b$closure$u7d$$u7d$17hfc29dfbe4eadd09aE>:
1000077cc: ff c3 01 d1 	sub	sp, sp, #112
1000077d0: fc 6f 01 a9 	stp	x28, x27, [sp, #16]
1000077d4: fa 67 02 a9 	stp	x26, x25, [sp, #32]
1000077d8: f8 5f 03 a9 	stp	x24, x23, [sp, #48]
1000077dc: f6 57 04 a9 	stp	x22, x21, [sp, #64]
1000077e0: f4 4f 05 a9 	stp	x20, x19, [sp, #80]
1000077e4: fd 7b 06 a9 	stp	x29, x30, [sp, #96]
1000077e8: fd 83 01 91 	add	x29, sp, #96
1000077ec: f6 03 03 aa 	mov	x22, x3
1000077f0: f3 03 02 aa 	mov	x19, x2
1000077f4: f5 03 01 aa 	mov	x21, x1
1000077f8: f4 03 00 aa 	mov	x20, x0
1000077fc: 19 00 40 f9 	ldr	x25, [x0]
100007800: 58 00 40 f9 	ldr	x24, [x2]
100007804: 08 03 80 52 	mov	w8, #24
100007808: 09 67 08 9b 	madd	x9, x24, x8, x25
10000780c: 3c 00 40 f9 	ldr	x28, [x1]
100007810: 88 67 08 9b 	madd	x8, x28, x8, x25
100007814: 37 6d 40 a9 	ldp	x23, x27, [x9]
100007818: 01 21 40 a9 	ldp	x1, x8, [x8]
10000781c: 7a 03 08 eb 	subs	x26, x27, x8
100007820: 62 33 88 9a 	csel	x2, x27, x8, lo
100007824: e0 03 17 aa 	mov	x0, x23
100007828: a6 b8 00 94 	bl	0x100035ac0 <_writev+0x100035ac0>
10000782c: 08 7c 40 93 	sxtw	x8, w0
100007830: 1f 00 00 71 	cmp	w0, #0
100007834: 48 03 88 9a 	csel	x8, x26, x8, eq
100007838: f5 07 00 f9 	str	x21, [sp, #8]
10000783c: 68 00 f8 b7 	tbnz	x8, #63, 0x100007848 <__ZN4core5slice4sort12choose_pivot28_$u7b$$u7b$closure$u7d$$u7d$17hfc29dfbe4eadd09aE+0x7c>
100007840: fa 03 1c aa 	mov	x26, x28
100007844: 0d 00 00 14 	b	0x100007878 <__ZN4core5slice4sort12choose_pivot28_$u7b$$u7b$closure$u7d$$u7d$17hfc29dfbe4eadd09aE+0xac>
100007848: b8 02 00 f9 	str	x24, [x21]
10000784c: 7c 02 00 f9 	str	x28, [x19]
100007850: 88 0e 40 f9 	ldr	x8, [x20, #24]
100007854: 09 01 40 f9 	ldr	x9, [x8]
100007858: 29 05 00 91 	add	x9, x9, #1
10000785c: 09 01 00 f9 	str	x9, [x8]
100007860: 99 02 40 f9 	ldr	x25, [x20]
100007864: 08 03 80 52 	mov	w8, #24
100007868: 88 67 08 9b 	madd	x8, x28, x8, x25
10000786c: 17 6d 40 a9 	ldp	x23, x27, [x8]
100007870: fa 03 18 aa 	mov	x26, x24
100007874: f8 03 1c aa 	mov	x24, x28
100007878: dc 02 40 f9 	ldr	x28, [x22]
10000787c: 08 03 80 52 	mov	w8, #24
100007880: 88 67 08 9b 	madd	x8, x28, x8, x25
100007884: 00 21 40 a9 	ldp	x0, x8, [x8]
100007888: 15 01 1b eb 	subs	x21, x8, x27
10000788c: 02 31 9b 9a 	csel	x2, x8, x27, lo
100007890: e1 03 17 aa 	mov	x1, x23
100007894: 8b b8 00 94 	bl	0x100035ac0 <_writev+0x100035ac0>
100007898: 08 7c 40 93 	sxtw	x8, w0
10000789c: 1f 00 00 71 	cmp	w0, #0
1000078a0: a8 02 88 9a 	csel	x8, x21, x8, eq
1000078a4: 88 01 f8 b6 	tbz	x8, #63, 0x1000078d4 <__ZN4core5slice4sort12choose_pivot28_$u7b$$u7b$closure$u7d$$u7d$17hfc29dfbe4eadd09aE+0x108>
1000078a8: 7c 02 00 f9 	str	x28, [x19]
1000078ac: d8 02 00 f9 	str	x24, [x22]
1000078b0: 88 0e 40 f9 	ldr	x8, [x20, #24]
1000078b4: 09 01 40 f9 	ldr	x9, [x8]
1000078b8: 29 05 00 91 	add	x9, x9, #1
1000078bc: 09 01 00 f9 	str	x9, [x8]
1000078c0: 99 02 40 f9 	ldr	x25, [x20]
1000078c4: 08 03 80 52 	mov	w8, #24
1000078c8: 88 67 08 9b 	madd	x8, x28, x8, x25
1000078cc: 17 6d 40 a9 	ldp	x23, x27, [x8]
1000078d0: f8 03 1c aa 	mov	x24, x28
1000078d4: 08 03 80 52 	mov	w8, #24
1000078d8: 48 67 08 9b 	madd	x8, x26, x8, x25
1000078dc: 01 21 40 a9 	ldp	x1, x8, [x8]
1000078e0: 75 03 08 eb 	subs	x21, x27, x8
1000078e4: 62 33 88 9a 	csel	x2, x27, x8, lo
1000078e8: e0 03 17 aa 	mov	x0, x23
1000078ec: 75 b8 00 94 	bl	0x100035ac0 <_writev+0x100035ac0>
1000078f0: 08 7c 40 93 	sxtw	x8, w0
1000078f4: 1f 00 00 71 	cmp	w0, #0
1000078f8: a8 02 88 9a 	csel	x8, x21, x8, eq
1000078fc: 08 01 f8 b6 	tbz	x8, #63, 0x10000791c <__ZN4core5slice4sort12choose_pivot28_$u7b$$u7b$closure$u7d$$u7d$17hfc29dfbe4eadd09aE+0x150>
100007900: e8 07 40 f9 	ldr	x8, [sp, #8]
100007904: 18 01 00 f9 	str	x24, [x8]
100007908: 7a 02 00 f9 	str	x26, [x19]
10000790c: 88 0e 40 f9 	ldr	x8, [x20, #24]
100007910: 09 01 40 f9 	ldr	x9, [x8]
100007914: 29 05 00 91 	add	x9, x9, #1
100007918: 09 01 00 f9 	str	x9, [x8]
10000791c: fd 7b 46 a9 	ldp	x29, x30, [sp, #96]
100007920: f4 4f 45 a9 	ldp	x20, x19, [sp, #80]
100007924: f6 57 44 a9 	ldp	x22, x21, [sp, #64]
100007928: f8 5f 43 a9 	ldp	x24, x23, [sp, #48]
10000792c: fa 67 42 a9 	ldp	x26, x25, [sp, #32]
100007930: fc 6f 41 a9 	ldp	x28, x27, [sp, #16]
100007934: ff c3 01 91 	add	sp, sp, #112
100007938: c0 03 5f d6 	ret

000000010000793c <__ZN4core5slice4sort7recurse17h701f229b3782e113E>:
10000793c: fc 6f ba a9 	stp	x28, x27, [sp, #-96]!
100007940: fa 67 01 a9 	stp	x26, x25, [sp, #16]
100007944: f8 5f 02 a9 	stp	x24, x23, [sp, #32]
100007948: f6 57 03 a9 	stp	x22, x21, [sp, #48]
10000794c: f4 4f 04 a9 	stp	x20, x19, [sp, #64]
100007950: fd 7b 05 a9 	stp	x29, x30, [sp, #80]
100007954: fd 43 01 91 	add	x29, sp, #80
100007958: ff 43 07 d1 	sub	sp, sp, #464
10000795c: e4 47 00 b9 	str	w4, [sp, #68]
100007960: e2 1b 00 f9 	str	x2, [sp, #48]
100007964: 3f 54 00 f1 	cmp	x1, #21
100007968: a2 08 00 54 	b.hs	0x100007a7c <__ZN4core5slice4sort7recurse17h701f229b3782e113E+0x140>
10000796c: fa 03 01 aa 	mov	x26, x1
100007970: f8 03 00 aa 	mov	x24, x0
100007974: 5f 0b 00 f1 	cmp	x26, #2
100007978: 03 4f 00 54 	b.lo	0x100008358 <__ZN4core5slice4sort7recurse17h701f229b3782e113E+0xa1c>
10000797c: 16 00 80 d2 	mov	x22, #0
100007980: 35 00 80 52 	mov	w21, #1
100007984: f7 03 18 aa 	mov	x23, x24
100007988: 0a 00 00 14 	b	0x1000079b0 <__ZN4core5slice4sort7recurse17h701f229b3782e113E+0x74>
10000798c: fb 03 18 aa 	mov	x27, x24
100007990: 73 67 00 a9 	stp	x19, x25, [x27]
100007994: e8 2b 40 f9 	ldr	x8, [sp, #80]
100007998: 68 0b 00 f9 	str	x8, [x27, #16]
10000799c: b5 06 00 91 	add	x21, x21, #1
1000079a0: f7 62 00 91 	add	x23, x23, #24
1000079a4: d6 06 00 d1 	sub	x22, x22, #1
1000079a8: bf 02 1a eb 	cmp	x21, x26
1000079ac: 60 4d 00 54 	b.eq	0x100008358 <__ZN4core5slice4sort7recurse17h701f229b3782e113E+0xa1c>
1000079b0: 08 03 80 52 	mov	w8, #24
1000079b4: b4 62 08 9b 	madd	x20, x21, x8, x24
1000079b8: fb 03 14 aa 	mov	x27, x20
1000079bc: 61 8f 5e f8 	ldr	x1, [x27, #-24]!
1000079c0: 93 66 40 a9 	ldp	x19, x25, [x20]
1000079c4: 88 02 5f f8 	ldur	x8, [x20, #-16]
1000079c8: 3c 03 08 eb 	subs	x28, x25, x8
1000079cc: 22 33 88 9a 	csel	x2, x25, x8, lo
1000079d0: e0 03 13 aa 	mov	x0, x19
1000079d4: 3b b8 00 94 	bl	0x100035ac0 <_writev+0x100035ac0>
1000079d8: 08 7c 40 93 	sxtw	x8, w0
1000079dc: 1f 00 00 71 	cmp	w0, #0
1000079e0: 88 03 88 9a 	csel	x8, x28, x8, eq
1000079e4: c8 fd ff b6 	tbz	x8, #63, 0x10000799c <__ZN4core5slice4sort7recurse17h701f229b3782e113E+0x60>
1000079e8: 88 0a 40 f9 	ldr	x8, [x20, #16]
1000079ec: e8 2b 00 f9 	str	x8, [sp, #80]
1000079f0: 60 03 c0 3d 	ldr	q0, [x27]
1000079f4: 80 02 80 3d 	str	q0, [x20]
1000079f8: 68 0b 40 f9 	ldr	x8, [x27, #16]
1000079fc: 88 0a 00 f9 	str	x8, [x20, #16]
100007a00: a8 06 00 d1 	sub	x8, x21, #1
100007a04: 68 fc ff b4 	cbz	x8, 0x100007990 <__ZN4core5slice4sort7recurse17h701f229b3782e113E+0x54>
100007a08: 81 22 7d a9 	ldp	x1, x8, [x20, #-48]
100007a0c: 34 03 08 eb 	subs	x20, x25, x8
100007a10: 22 33 88 9a 	csel	x2, x25, x8, lo
100007a14: e0 03 13 aa 	mov	x0, x19
100007a18: 2a b8 00 94 	bl	0x100035ac0 <_writev+0x100035ac0>
100007a1c: 08 7c 40 93 	sxtw	x8, w0
100007a20: 1f 00 00 71 	cmp	w0, #0
100007a24: 89 02 88 9a 	csel	x9, x20, x8, eq
100007a28: f4 03 16 aa 	mov	x20, x22
100007a2c: e8 03 17 aa 	mov	x8, x23
100007a30: 09 fb ff b6 	tbz	x9, #63, 0x100007990 <__ZN4core5slice4sort7recurse17h701f229b3782e113E+0x54>
100007a34: 00 81 de 3c 	ldur	q0, [x8, #-24]
100007a38: 00 01 80 3d 	str	q0, [x8]
100007a3c: 09 81 5f f8 	ldur	x9, [x8, #-8]
100007a40: 09 09 00 f9 	str	x9, [x8, #16]
100007a44: 94 06 00 b1 	adds	x20, x20, #1
100007a48: 22 fa ff 54 	b.hs	0x10000798c <__ZN4core5slice4sort7recurse17h701f229b3782e113E+0x50>
100007a4c: 1b 61 00 d1 	sub	x27, x8, #24
100007a50: 01 21 7d a9 	ldp	x1, x8, [x8, #-48]
100007a54: 3c 03 08 eb 	subs	x28, x25, x8
100007a58: 22 33 88 9a 	csel	x2, x25, x8, lo
100007a5c: e0 03 13 aa 	mov	x0, x19
100007a60: 18 b8 00 94 	bl	0x100035ac0 <_writev+0x100035ac0>
100007a64: 08 7c 40 93 	sxtw	x8, w0
100007a68: 1f 00 00 71 	cmp	w0, #0
100007a6c: 89 03 88 9a 	csel	x9, x28, x8, eq
100007a70: e8 03 1b aa 	mov	x8, x27
100007a74: 09 fe ff b7 	tbnz	x9, #63, 0x100007a34 <__ZN4core5slice4sort7recurse17h701f229b3782e113E+0xf8>
100007a78: c6 ff ff 17 	b	0x100007990 <__ZN4core5slice4sort7recurse17h701f229b3782e113E+0x54>
100007a7c: fc 03 03 aa 	mov	x28, x3
100007a80: e0 07 01 a9 	stp	x0, x1, [sp, #16]
100007a84: b6 03 04 d1 	sub	x22, x29, #256
100007a88: 28 00 80 52 	mov	w8, #1
100007a8c: e8 3b 00 b9 	str	w8, [sp, #56]
100007a90: 33 00 80 52 	mov	w19, #1
100007a94: e8 3b 40 b9 	ldr	w8, [sp, #56]
100007a98: 08 01 13 0a 	and	w8, w8, w19
100007a9c: e8 2b 00 b9 	str	w8, [sp, #40]
100007aa0: f8 67 41 a9 	ldp	x24, x25, [sp, #16]
100007aa4: fc 13 00 f9 	str	x28, [sp, #32]
100007aa8: e8 47 40 b9 	ldr	w8, [sp, #68]
100007aac: e8 44 00 34 	cbz	w8, 0x100008348 <__ZN4core5slice4sort7recurse17h701f229b3782e113E+0xa0c>
100007ab0: e8 3b 40 b9 	ldr	w8, [sp, #56]
100007ab4: 08 17 00 36 	tbz	w8, #0, 0x100007d94 <__ZN4core5slice4sort7recurse17h701f229b3782e113E+0x458>
100007ab8: 28 ff 42 d3 	lsr	x8, x25, #2
100007abc: 13 f9 7f d3 	lsl	x19, x8, #1
100007ac0: e8 cf 06 a9 	stp	x8, x19, [sp, #104]
100007ac4: 74 02 08 8b 	add	x20, x19, x8
100007ac8: f4 ff 07 a9 	stp	x20, xzr, [sp, #120]
100007acc: b8 67 30 a9 	stp	x24, x25, [x29, #-256]
100007ad0: ea 1b 40 f9 	ldr	x10, [sp, #48]
100007ad4: e9 03 02 91 	add	x9, sp, #128
100007ad8: aa 27 31 a9 	stp	x10, x9, [x29, #-240]
100007adc: 3f c7 00 f1 	cmp	x25, #49
100007ae0: 89 03 00 54 	b.ls	0x100007b50 <__ZN4core5slice4sort7recurse17h701f229b3782e113E+0x214>
100007ae4: 09 05 00 d1 	sub	x9, x8, #1
100007ae8: a9 03 18 f8 	stur	x9, [x29, #-128]
100007aec: 08 05 00 91 	add	x8, x8, #1
100007af0: e8 53 00 f9 	str	x8, [sp, #160]
100007af4: a0 03 04 d1 	sub	x0, x29, #256
100007af8: a1 03 02 d1 	sub	x1, x29, #128
100007afc: e2 a3 01 91 	add	x2, sp, #104
100007b00: e3 83 02 91 	add	x3, sp, #160
100007b04: 32 ff ff 97 	bl	0x1000077cc <__ZN4core5slice4sort12choose_pivot28_$u7b$$u7b$closure$u7d$$u7d$17hfc29dfbe4eadd09aE>
100007b08: 68 06 00 d1 	sub	x8, x19, #1
100007b0c: a8 03 18 f8 	stur	x8, [x29, #-128]
100007b10: 68 02 40 b2 	orr	x8, x19, #0x1
100007b14: e8 53 00 f9 	str	x8, [sp, #160]
100007b18: a0 03 04 d1 	sub	x0, x29, #256
100007b1c: a1 03 02 d1 	sub	x1, x29, #128
100007b20: e2 c3 01 91 	add	x2, sp, #112
100007b24: e3 83 02 91 	add	x3, sp, #160
100007b28: 29 ff ff 97 	bl	0x1000077cc <__ZN4core5slice4sort12choose_pivot28_$u7b$$u7b$closure$u7d$$u7d$17hfc29dfbe4eadd09aE>
100007b2c: 88 06 00 d1 	sub	x8, x20, #1
100007b30: a8 03 18 f8 	stur	x8, [x29, #-128]
100007b34: 88 06 00 91 	add	x8, x20, #1
100007b38: e8 53 00 f9 	str	x8, [sp, #160]
100007b3c: a0 03 04 d1 	sub	x0, x29, #256
100007b40: a1 03 02 d1 	sub	x1, x29, #128
100007b44: e2 e3 01 91 	add	x2, sp, #120
100007b48: e3 83 02 91 	add	x3, sp, #160
100007b4c: 20 ff ff 97 	bl	0x1000077cc <__ZN4core5slice4sort12choose_pivot28_$u7b$$u7b$closure$u7d$$u7d$17hfc29dfbe4eadd09aE>
100007b50: a0 03 04 d1 	sub	x0, x29, #256
100007b54: e1 a3 01 91 	add	x1, sp, #104
100007b58: e2 c3 01 91 	add	x2, sp, #112
100007b5c: e3 e3 01 91 	add	x3, sp, #120
100007b60: 1b ff ff 97 	bl	0x1000077cc <__ZN4core5slice4sort12choose_pivot28_$u7b$$u7b$closure$u7d$$u7d$17hfc29dfbe4eadd09aE>
100007b64: e8 43 40 f9 	ldr	x8, [sp, #128]
100007b68: 1f 31 00 f1 	cmp	x8, #12
100007b6c: 22 01 00 54 	b.hs	0x100007b90 <__ZN4core5slice4sort7recurse17h701f229b3782e113E+0x254>
100007b70: fa 3b 40 f9 	ldr	x26, [sp, #112]
100007b74: 1f 01 00 f1 	cmp	x8, #0
100007b78: e8 17 9f 1a 	cset	w8, eq
100007b7c: 14 03 80 52 	mov	w20, #24
100007b80: e9 2b 40 b9 	ldr	w9, [sp, #40]
100007b84: 28 01 08 0a 	and	w8, w9, w8
100007b88: 88 03 00 36 	tbz	w8, #0, 0x100007bf8 <__ZN4core5slice4sort7recurse17h701f229b3782e113E+0x2bc>
100007b8c: 89 00 00 14 	b	0x100007db0 <__ZN4core5slice4sort7recurse17h701f229b3782e113E+0x474>
100007b90: 28 ff 41 d3 	lsr	x8, x25, #1
100007b94: 14 03 80 52 	mov	w20, #24
100007b98: 29 63 14 9b 	madd	x9, x25, x20, x24
100007b9c: 29 61 00 d1 	sub	x9, x9, #24
100007ba0: ea 03 18 aa 	mov	x10, x24
100007ba4: 40 01 c0 3d 	ldr	q0, [x10]
100007ba8: 4b 09 40 f9 	ldr	x11, [x10, #16]
100007bac: ab 03 11 f8 	stur	x11, [x29, #-240]
100007bb0: c0 02 80 3d 	str	q0, [x22]
100007bb4: 20 01 c0 3d 	ldr	q0, [x9]
100007bb8: 2b 09 40 f9 	ldr	x11, [x9, #16]
100007bbc: 4b 09 00 f9 	str	x11, [x10, #16]
100007bc0: 40 85 81 3c 	str	q0, [x10], #24
100007bc4: c0 02 c0 3d 	ldr	q0, [x22]
100007bc8: ab 03 51 f8 	ldur	x11, [x29, #-240]
100007bcc: 2b 09 00 f9 	str	x11, [x9, #16]
100007bd0: 20 85 9e 3c 	str	q0, [x9], #-24
100007bd4: 08 05 00 d1 	sub	x8, x8, #1
100007bd8: 68 fe ff b5 	cbnz	x8, 0x100007ba4 <__ZN4core5slice4sort7recurse17h701f229b3782e113E+0x268>
100007bdc: e8 3b 40 f9 	ldr	x8, [sp, #112]
100007be0: e8 03 28 aa 	mvn	x8, x8
100007be4: 3a 03 08 8b 	add	x26, x25, x8
100007be8: 28 00 80 52 	mov	w8, #1
100007bec: e9 2b 40 b9 	ldr	w9, [sp, #40]
100007bf0: 28 01 08 0a 	and	w8, w9, w8
100007bf4: e8 0d 00 37 	tbnz	w8, #0, 0x100007db0 <__ZN4core5slice4sort7recurse17h701f229b3782e113E+0x474>
100007bf8: 7c 0e 00 b4 	cbz	x28, 0x100007dc4 <__ZN4core5slice4sort7recurse17h701f229b3782e113E+0x488>
100007bfc: 5f 03 19 eb 	cmp	x26, x25
100007c00: c2 3b 00 54 	b.hs	0x100008378 <__ZN4core5slice4sort7recurse17h701f229b3782e113E+0xa3c>
100007c04: 55 63 14 9b 	madd	x21, x26, x20, x24
100007c08: 80 23 40 a9 	ldp	x0, x8, [x28]
100007c0c: a1 26 40 a9 	ldp	x1, x9, [x21]
100007c10: 13 01 09 eb 	subs	x19, x8, x9
100007c14: 02 31 89 9a 	csel	x2, x8, x9, lo
100007c18: aa b7 00 94 	bl	0x100035ac0 <_writev+0x100035ac0>
100007c1c: 08 7c 40 93 	sxtw	x8, w0
100007c20: 1f 00 00 71 	cmp	w0, #0
100007c24: 68 02 88 9a 	csel	x8, x19, x8, eq
100007c28: 28 0d f8 b7 	tbnz	x8, #63, 0x100007dcc <__ZN4core5slice4sort7recurse17h701f229b3782e113E+0x490>
100007c2c: 14 00 80 d2 	mov	x20, #0
100007c30: 00 03 c0 3d 	ldr	q0, [x24]
100007c34: 08 0b 40 f9 	ldr	x8, [x24, #16]
100007c38: a8 03 11 f8 	stur	x8, [x29, #-240]
100007c3c: c0 02 80 3d 	str	q0, [x22]
100007c40: a0 02 c0 3d 	ldr	q0, [x21]
100007c44: a8 0a 40 f9 	ldr	x8, [x21, #16]
100007c48: 08 0b 00 f9 	str	x8, [x24, #16]
100007c4c: 00 03 80 3d 	str	q0, [x24]
100007c50: c0 02 c0 3d 	ldr	q0, [x22]
100007c54: a8 03 51 f8 	ldur	x8, [x29, #-240]
100007c58: a8 0a 00 f9 	str	x8, [x21, #16]
100007c5c: a0 02 80 3d 	str	q0, [x21]
100007c60: 17 63 00 91 	add	x23, x24, #24
100007c64: 1a 03 40 f9 	ldr	x26, [x24]
100007c68: 00 83 c0 3c 	ldur	q0, [x24, #8]
100007c6c: e0 17 80 3d 	str	q0, [sp, #80]
100007c70: 16 00 66 9e 	fmov	x22, d0
100007c74: 08 83 00 91 	add	x8, x24, #32
100007c78: e8 27 00 f9 	str	x8, [sp, #72]
100007c7c: fc 03 19 aa 	mov	x28, x25
100007c80: 3b 07 00 d1 	sub	x27, x25, #1
100007c84: 9f 02 1b eb 	cmp	x20, x27
100007c88: 42 02 00 54 	b.hs	0x100007cd0 <__ZN4core5slice4sort7recurse17h701f229b3782e113E+0x394>
100007c8c: 08 03 80 52 	mov	w8, #24
100007c90: e9 27 40 f9 	ldr	x9, [sp, #72]
100007c94: 93 26 08 9b 	madd	x19, x20, x8, x9
100007c98: 61 a2 7f a9 	ldp	x1, x8, [x19, #-8]
100007c9c: d5 02 08 eb 	subs	x21, x22, x8
100007ca0: c2 32 88 9a 	csel	x2, x22, x8, lo
100007ca4: e0 03 1a aa 	mov	x0, x26
100007ca8: 86 b7 00 94 	bl	0x100035ac0 <_writev+0x100035ac0>
100007cac: 08 7c 40 93 	sxtw	x8, w0
100007cb0: 1f 00 00 71 	cmp	w0, #0
100007cb4: a8 02 88 9a 	csel	x8, x21, x8, eq
100007cb8: c8 00 f8 b7 	tbnz	x8, #63, 0x100007cd0 <__ZN4core5slice4sort7recurse17h701f229b3782e113E+0x394>
100007cbc: 94 06 00 91 	add	x20, x20, #1
100007cc0: 73 62 00 91 	add	x19, x19, #24
100007cc4: 7f 03 14 eb 	cmp	x27, x20
100007cc8: 81 fe ff 54 	b.ne	0x100007c98 <__ZN4core5slice4sort7recurse17h701f229b3782e113E+0x35c>
100007ccc: f4 03 1b aa 	mov	x20, x27
100007cd0: 08 03 80 52 	mov	w8, #24
100007cd4: 9b 63 08 9b 	madd	x27, x28, x8, x24
100007cd8: 9c 07 00 d1 	sub	x28, x28, #1
100007cdc: 9f 02 1c eb 	cmp	x20, x28
100007ce0: c2 03 00 54 	b.hs	0x100007d58 <__ZN4core5slice4sort7recurse17h701f229b3782e113E+0x41c>
100007ce4: 61 a3 fe a9 	ldp	x1, x8, [x27, #-24]!
100007ce8: d3 02 08 eb 	subs	x19, x22, x8
100007cec: c2 32 88 9a 	csel	x2, x22, x8, lo
100007cf0: e0 03 1a aa 	mov	x0, x26
100007cf4: 73 b7 00 94 	bl	0x100035ac0 <_writev+0x100035ac0>
100007cf8: 08 7c 40 93 	sxtw	x8, w0
100007cfc: 1f 00 00 71 	cmp	w0, #0
100007d00: 68 02 88 9a 	csel	x8, x19, x8, eq
100007d04: a8 fe ff b7 	tbnz	x8, #63, 0x100007cd8 <__ZN4core5slice4sort7recurse17h701f229b3782e113E+0x39c>
100007d08: 08 03 80 52 	mov	w8, #24
100007d0c: 88 5e 08 9b 	madd	x8, x20, x8, x23
100007d10: 00 01 c0 3d 	ldr	q0, [x8]
100007d14: 09 09 40 f9 	ldr	x9, [x8, #16]
100007d18: a9 03 11 f8 	stur	x9, [x29, #-240]
100007d1c: aa 03 04 d1 	sub	x10, x29, #256
100007d20: 40 01 80 3d 	str	q0, [x10]
100007d24: 60 03 c0 3d 	ldr	q0, [x27]
100007d28: 69 0b 40 f9 	ldr	x9, [x27, #16]
100007d2c: 09 09 00 f9 	str	x9, [x8, #16]
100007d30: 00 01 80 3d 	str	q0, [x8]
100007d34: 40 01 c0 3d 	ldr	q0, [x10]
100007d38: a8 03 51 f8 	ldur	x8, [x29, #-240]
100007d3c: 68 0b 00 f9 	str	x8, [x27, #16]
100007d40: 60 03 80 3d 	str	q0, [x27]
100007d44: 94 06 00 91 	add	x20, x20, #1
100007d48: 9b 07 00 d1 	sub	x27, x28, #1
100007d4c: 9f 02 1b eb 	cmp	x20, x27
100007d50: e3 f9 ff 54 	b.lo	0x100007c8c <__ZN4core5slice4sort7recurse17h701f229b3782e113E+0x350>
100007d54: df ff ff 17 	b	0x100007cd0 <__ZN4core5slice4sort7recurse17h701f229b3782e113E+0x394>
100007d58: 80 06 00 91 	add	x0, x20, #1
100007d5c: 1a 03 00 f9 	str	x26, [x24]
100007d60: e0 17 c0 3d 	ldr	q0, [sp, #80]
100007d64: 00 83 80 3c 	stur	q0, [x24, #8]
100007d68: 3a 03 00 eb 	subs	x26, x25, x0
100007d6c: c3 32 00 54 	b.lo	0x1000083c4 <__ZN4core5slice4sort7recurse17h701f229b3782e113E+0xa88>
100007d70: 08 03 80 52 	mov	w8, #24
100007d74: 88 62 08 9b 	madd	x8, x20, x8, x24
100007d78: 18 61 00 91 	add	x24, x8, #24
100007d7c: f9 03 1a aa 	mov	x25, x26
100007d80: 5f 57 00 f1 	cmp	x26, #21
100007d84: fc 13 40 f9 	ldr	x28, [sp, #32]
100007d88: b6 03 04 d1 	sub	x22, x29, #256
100007d8c: e2 e8 ff 54 	b.hs	0x100007aa8 <__ZN4core5slice4sort7recurse17h701f229b3782e113E+0x16c>
100007d90: f9 fe ff 17 	b	0x100007974 <__ZN4core5slice4sort7recurse17h701f229b3782e113E+0x38>
100007d94: e0 03 18 aa 	mov	x0, x24
100007d98: e1 03 19 aa 	mov	x1, x25
100007d9c: c3 ad 00 94 	bl	0x1000334a8 <__ZN4core5slice4sort14break_patterns17hf8e2a94c7218f08bE>
100007da0: e8 47 40 b9 	ldr	w8, [sp, #68]
100007da4: 08 05 00 51 	sub	w8, w8, #1
100007da8: e8 47 00 b9 	str	w8, [sp, #68]
100007dac: 43 ff ff 17 	b	0x100007ab8 <__ZN4core5slice4sort7recurse17h701f229b3782e113E+0x17c>
100007db0: e0 03 18 aa 	mov	x0, x24
100007db4: e1 03 19 aa 	mov	x1, x25
100007db8: d7 ae 00 94 	bl	0x100033914 <__ZN4core5slice4sort22partial_insertion_sort17h9b821810abeb2dbcE>
100007dbc: e0 f1 07 36 	tbz	w0, #0, 0x100007bf8 <__ZN4core5slice4sort7recurse17h701f229b3782e113E+0x2bc>
100007dc0: 66 01 00 14 	b	0x100008358 <__ZN4core5slice4sort7recurse17h701f229b3782e113E+0xa1c>
100007dc4: f8 67 41 a9 	ldp	x24, x25, [sp, #16]
100007dc8: 59 2f 00 b4 	cbz	x25, 0x1000083b0 <__ZN4core5slice4sort7recurse17h701f229b3782e113E+0xa74>
100007dcc: 5f 03 19 eb 	cmp	x26, x25
100007dd0: e2 2d 00 54 	b.hs	0x10000838c <__ZN4core5slice4sort7recurse17h701f229b3782e113E+0xa50>
100007dd4: 15 03 80 52 	mov	w21, #24
100007dd8: 48 63 14 9b 	madd	x8, x26, x20, x24
100007ddc: 00 03 c0 3d 	ldr	q0, [x24]
100007de0: 09 0b 40 f9 	ldr	x9, [x24, #16]
100007de4: a9 03 11 f8 	stur	x9, [x29, #-240]
100007de8: c0 02 80 3d 	str	q0, [x22]
100007dec: 00 01 c0 3d 	ldr	q0, [x8]
100007df0: 09 09 40 f9 	ldr	x9, [x8, #16]
100007df4: 09 0b 00 f9 	str	x9, [x24, #16]
100007df8: 00 03 80 3d 	str	q0, [x24]
100007dfc: c0 02 c0 3d 	ldr	q0, [x22]
100007e00: a9 03 51 f8 	ldur	x9, [x29, #-240]
100007e04: 09 09 00 f9 	str	x9, [x8, #16]
100007e08: 00 01 80 3d 	str	q0, [x8]
100007e0c: 08 0b 40 f9 	ldr	x8, [x24, #16]
100007e10: 00 03 c0 3d 	ldr	q0, [x24]
100007e14: e0 23 80 3d 	str	q0, [sp, #128]
100007e18: e8 4b 00 f9 	str	x8, [sp, #144]
100007e1c: fa 5f 48 a9 	ldp	x26, x23, [sp, #128]
100007e20: f9 0f 00 f9 	str	x25, [sp, #24]
100007e24: 3b 07 00 f1 	subs	x27, x25, #1
100007e28: 40 02 00 54 	b.eq	0x100007e70 <__ZN4core5slice4sort7recurse17h701f229b3782e113E+0x534>
100007e2c: 19 00 80 d2 	mov	x25, #0
100007e30: 13 83 00 91 	add	x19, x24, #32
100007e34: 60 a2 7f a9 	ldp	x0, x8, [x19, #-8]
100007e38: 14 01 17 eb 	subs	x20, x8, x23
100007e3c: 02 31 97 9a 	csel	x2, x8, x23, lo
100007e40: e1 03 1a aa 	mov	x1, x26
100007e44: 1f b7 00 94 	bl	0x100035ac0 <_writev+0x100035ac0>
100007e48: 08 7c 40 93 	sxtw	x8, w0
100007e4c: 1f 00 00 71 	cmp	w0, #0
100007e50: 88 02 88 9a 	csel	x8, x20, x8, eq
100007e54: 08 01 f8 b6 	tbz	x8, #63, 0x100007e74 <__ZN4core5slice4sort7recurse17h701f229b3782e113E+0x538>
100007e58: 39 07 00 91 	add	x25, x25, #1
100007e5c: 73 62 00 91 	add	x19, x19, #24
100007e60: 7f 03 19 eb 	cmp	x27, x25
100007e64: 81 fe ff 54 	b.ne	0x100007e34 <__ZN4core5slice4sort7recurse17h701f229b3782e113E+0x4f8>
100007e68: f9 03 1b aa 	mov	x25, x27
100007e6c: 02 00 00 14 	b	0x100007e74 <__ZN4core5slice4sort7recurse17h701f229b3782e113E+0x538>
100007e70: 19 00 80 d2 	mov	x25, #0
100007e74: 14 63 00 91 	add	x20, x24, #24
100007e78: 3f 03 1b eb 	cmp	x25, x27
100007e7c: 28 33 9b 9a 	csel	x8, x25, x27, lo
100007e80: e8 2b 00 f9 	str	x8, [sp, #80]
100007e84: f3 0f 40 f9 	ldr	x19, [sp, #24]
100007e88: 68 62 15 9b 	madd	x8, x19, x21, x24
100007e8c: 15 61 00 d1 	sub	x21, x8, #24
100007e90: 73 06 00 d1 	sub	x19, x19, #1
100007e94: 7f 02 19 eb 	cmp	x19, x25
100007e98: 69 01 00 54 	b.ls	0x100007ec4 <__ZN4core5slice4sort7recurse17h701f229b3782e113E+0x588>
100007e9c: a0 a2 fe a8 	ldp	x0, x8, [x21], #-24
100007ea0: 16 01 17 eb 	subs	x22, x8, x23
100007ea4: 02 31 97 9a 	csel	x2, x8, x23, lo
100007ea8: e1 03 1a aa 	mov	x1, x26
100007eac: 05 b7 00 94 	bl	0x100035ac0 <_writev+0x100035ac0>
100007eb0: 08 7c 40 93 	sxtw	x8, w0
100007eb4: 1f 00 00 71 	cmp	w0, #0
100007eb8: c8 02 88 9a 	csel	x8, x22, x8, eq
100007ebc: a8 fe ff b6 	tbz	x8, #63, 0x100007e90 <__ZN4core5slice4sort7recurse17h701f229b3782e113E+0x554>
100007ec0: 02 00 00 14 	b	0x100007ec8 <__ZN4core5slice4sort7recurse17h701f229b3782e113E+0x58c>
100007ec4: f3 2b 40 f9 	ldr	x19, [sp, #80]
100007ec8: 68 02 19 eb 	subs	x8, x19, x25
100007ecc: f8 0b 00 f9 	str	x24, [sp, #16]
100007ed0: e3 28 00 54 	b.lo	0x1000083ec <__ZN4core5slice4sort7recurse17h701f229b3782e113E+0xab0>
100007ed4: f3 03 00 f9 	str	x19, [sp]
100007ed8: 7f 02 1b eb 	cmp	x19, x27
100007edc: c8 27 00 54 	b.hi	0x1000083d4 <__ZN4core5slice4sort7recurse17h701f229b3782e113E+0xa98>
100007ee0: 15 00 80 d2 	mov	x21, #0
100007ee4: 18 00 80 d2 	mov	x24, #0
100007ee8: 13 00 80 d2 	mov	x19, #0
100007eec: 1c 00 80 d2 	mov	x28, #0
100007ef0: 09 03 80 52 	mov	w9, #24
100007ef4: 36 53 09 9b 	madd	x22, x25, x9, x20
100007ef8: 0e 03 80 52 	mov	w14, #24
100007efc: 1b 59 0e 9b 	madd	x27, x8, x14, x22
100007f00: 0f 10 80 52 	mov	w15, #128
100007f04: 10 10 80 52 	mov	w16, #128
100007f08: f6 07 00 f9 	str	x22, [sp, #8]
100007f0c: f9 1f 00 f9 	str	x25, [sp, #56]
100007f10: 11 00 00 14 	b	0x100007f54 <__ZN4core5slice4sort7recurse17h701f229b3782e113E+0x618>
100007f14: a8 03 04 d1 	sub	x8, x29, #256
100007f18: 00 21 c0 3d 	ldr	q0, [x8, #128]
100007f1c: a8 03 59 f8 	ldur	x8, [x29, #-112]
100007f20: 29 6d 0e 9b 	madd	x9, x9, x14, x27
100007f24: 28 09 00 f9 	str	x8, [x9, #16]
100007f28: 20 01 80 3d 	str	q0, [x9]
100007f2c: 9c 07 00 91 	add	x28, x28, #1
100007f30: 18 07 00 91 	add	x24, x24, #1
100007f34: 9f 03 13 eb 	cmp	x28, x19
100007f38: 08 02 9f 9a 	csel	x8, x16, xzr, eq
100007f3c: 16 59 0e 9b 	madd	x22, x8, x14, x22
100007f40: 1f 03 15 eb 	cmp	x24, x21
100007f44: e8 17 8f da 	csneg	x8, xzr, x15, ne
100007f48: 1b 6d 0e 9b 	madd	x27, x8, x14, x27
100007f4c: 3f 0e 0c f1 	cmp	x17, #771
100007f50: 63 12 00 54 	b.lo	0x10000819c <__ZN4core5slice4sort7recurse17h701f229b3782e113E+0x860>
100007f54: 68 03 16 cb 	sub	x8, x27, x22
100007f58: 11 fd 43 d3 	lsr	x17, x8, #3
100007f5c: 3f 0e 0c f1 	cmp	x17, #771
100007f60: 62 02 00 54 	b.hs	0x100007fac <__ZN4core5slice4sort7recurse17h701f229b3782e113E+0x670>
100007f64: 08 3d 00 12 	and	w8, w8, #0xffff
100007f68: 69 55 95 52 	mov	w9, #43691
100007f6c: 08 7d 09 1b 	mul	w8, w8, w9
100007f70: 08 7d 14 53 	lsr	w8, w8, #20
100007f74: 9f 03 13 eb 	cmp	x28, x19
100007f78: e9 27 9f 1a 	cset	w9, lo
100007f7c: 1f 03 15 eb 	cmp	x24, x21
100007f80: ea 27 9f 1a 	cset	w10, lo
100007f84: 29 01 0a 2a 	orr	w9, w9, w10
100007f88: 0a 01 02 d1 	sub	x10, x8, #128
100007f8c: 3f 01 00 71 	cmp	w9, #0
100007f90: 48 11 88 9a 	csel	x8, x10, x8, ne
100007f94: 9f 03 13 eb 	cmp	x28, x19
100007f98: 0f 31 8f 9a 	csel	x15, x8, x15, lo
100007f9c: 10 32 88 9a 	csel	x16, x16, x8, lo
100007fa0: 69 00 00 37 	tbnz	w9, #0, 0x100007fac <__ZN4core5slice4sort7recurse17h701f229b3782e113E+0x670>
100007fa4: 10 fd 41 d3 	lsr	x16, x8, #1
100007fa8: 0f 01 10 cb 	sub	x15, x8, x16
100007fac: 9f 03 13 eb 	cmp	x28, x19
100007fb0: a0 05 00 54 	b.eq	0x100008064 <__ZN4core5slice4sort7recurse17h701f229b3782e113E+0x728>
100007fb4: 1f 03 15 eb 	cmp	x24, x21
100007fb8: c0 09 00 54 	b.eq	0x1000080f0 <__ZN4core5slice4sort7recurse17h701f229b3782e113E+0x7b4>
100007fbc: 68 02 1c cb 	sub	x8, x19, x28
100007fc0: a9 02 18 cb 	sub	x9, x21, x24
100007fc4: 1f 01 09 eb 	cmp	x8, x9
100007fc8: 08 31 89 9a 	csel	x8, x8, x9, lo
100007fcc: 48 fb ff b4 	cbz	x8, 0x100007f34 <__ZN4core5slice4sort7recurse17h701f229b3782e113E+0x5f8>
100007fd0: 89 03 40 39 	ldrb	w9, [x28]
100007fd4: 29 59 0e 9b 	madd	x9, x9, x14, x22
100007fd8: 20 01 c0 3d 	ldr	q0, [x9]
100007fdc: 29 09 40 f9 	ldr	x9, [x9, #16]
100007fe0: a9 03 19 f8 	stur	x9, [x29, #-112]
100007fe4: a9 03 04 d1 	sub	x9, x29, #256
100007fe8: 20 21 80 3d 	str	q0, [x9, #128]
100007fec: 0a 03 40 39 	ldrb	w10, [x24]
100007ff0: e9 03 2a aa 	mvn	x9, x10
100007ff4: 2b 6d 0e 9b 	madd	x11, x9, x14, x27
100007ff8: 8c 03 40 39 	ldrb	w12, [x28]
100007ffc: 8c 59 0e 9b 	madd	x12, x12, x14, x22
100008000: 6d 09 40 f9 	ldr	x13, [x11, #16]
100008004: 60 01 c0 3d 	ldr	q0, [x11]
100008008: 80 01 80 3d 	str	q0, [x12]
10000800c: 8d 09 00 f9 	str	x13, [x12, #16]
100008010: 08 05 00 f1 	subs	x8, x8, #1
100008014: 00 f8 ff 54 	b.eq	0x100007f14 <__ZN4core5slice4sort7recurse17h701f229b3782e113E+0x5d8>
100008018: 89 1f 40 38 	ldrb	w9, [x28, #1]!
10000801c: 2b 59 0e 9b 	madd	x11, x9, x14, x22
100008020: e9 03 2a 2a 	mvn	w9, w10
100008024: 29 dd 78 b2 	orr	x9, x9, #0xffffffffffffff00
100008028: 29 6d 0e 9b 	madd	x9, x9, x14, x27
10000802c: 6a 09 40 f9 	ldr	x10, [x11, #16]
100008030: 60 01 c0 3d 	ldr	q0, [x11]
100008034: 20 01 80 3d 	str	q0, [x9]
100008038: 2a 09 00 f9 	str	x10, [x9, #16]
10000803c: 0a 1f 40 38 	ldrb	w10, [x24, #1]!
100008040: e9 03 2a aa 	mvn	x9, x10
100008044: 2c 6d 0e 9b 	madd	x12, x9, x14, x27
100008048: 8d 09 40 f9 	ldr	x13, [x12, #16]
10000804c: 80 01 c0 3d 	ldr	q0, [x12]
100008050: 60 01 80 3d 	str	q0, [x11]
100008054: 6d 09 00 f9 	str	x13, [x11, #16]
100008058: 08 05 00 f1 	subs	x8, x8, #1
10000805c: e1 fd ff 54 	b.ne	0x100008018 <__ZN4core5slice4sort7recurse17h701f229b3782e113E+0x6dc>
100008060: ad ff ff 17 	b	0x100007f14 <__ZN4core5slice4sort7recurse17h701f229b3782e113E+0x5d8>
100008064: f0 03 00 b4 	cbz	x16, 0x1000080e0 <__ZN4core5slice4sort7recurse17h701f229b3782e113E+0x7a4>
100008068: f1 db 04 a9 	stp	x17, x22, [sp, #72]
10000806c: ef 17 00 f9 	str	x15, [sp, #40]
100008070: 08 00 80 d2 	mov	x8, #0
100008074: f3 83 02 91 	add	x19, sp, #160
100008078: fc 03 16 aa 	mov	x28, x22
10000807c: 19 05 00 91 	add	x25, x8, #1
100008080: 68 02 00 39 	strb	w8, [x19]
100008084: 80 a3 c1 a8 	ldp	x0, x8, [x28], #24
100008088: 14 01 17 eb 	subs	x20, x8, x23
10000808c: 02 31 97 9a 	csel	x2, x8, x23, lo
100008090: e1 03 1a aa 	mov	x1, x26
100008094: f6 03 10 aa 	mov	x22, x16
100008098: 8a b6 00 94 	bl	0x100035ac0 <_writev+0x100035ac0>
10000809c: f0 03 16 aa 	mov	x16, x22
1000080a0: 08 7c 40 93 	sxtw	x8, w0
1000080a4: 1f 00 00 71 	cmp	w0, #0
1000080a8: 88 02 88 9a 	csel	x8, x20, x8, eq
1000080ac: e8 03 28 aa 	mvn	x8, x8
1000080b0: 73 fe 48 8b 	add	x19, x19, x8, lsr #63
1000080b4: e8 03 19 aa 	mov	x8, x25
1000080b8: df 02 19 eb 	cmp	x22, x25
1000080bc: 01 fe ff 54 	b.ne	0x10000807c <__ZN4core5slice4sort7recurse17h701f229b3782e113E+0x740>
1000080c0: fc 83 02 91 	add	x28, sp, #160
1000080c4: 0e 03 80 52 	mov	w14, #24
1000080c8: f9 1f 40 f9 	ldr	x25, [sp, #56]
1000080cc: ef 17 40 f9 	ldr	x15, [sp, #40]
1000080d0: f1 db 44 a9 	ldp	x17, x22, [sp, #72]
1000080d4: 1f 03 15 eb 	cmp	x24, x21
1000080d8: 21 f7 ff 54 	b.ne	0x100007fbc <__ZN4core5slice4sort7recurse17h701f229b3782e113E+0x680>
1000080dc: 05 00 00 14 	b	0x1000080f0 <__ZN4core5slice4sort7recurse17h701f229b3782e113E+0x7b4>
1000080e0: f3 83 02 91 	add	x19, sp, #160
1000080e4: fc 83 02 91 	add	x28, sp, #160
1000080e8: 1f 03 15 eb 	cmp	x24, x21
1000080ec: 81 f6 ff 54 	b.ne	0x100007fbc <__ZN4core5slice4sort7recurse17h701f229b3782e113E+0x680>
1000080f0: 6f 04 00 b4 	cbz	x15, 0x10000817c <__ZN4core5slice4sort7recurse17h701f229b3782e113E+0x840>
1000080f4: f1 db 04 a9 	stp	x17, x22, [sp, #72]
1000080f8: f0 17 00 f9 	str	x16, [sp, #40]
1000080fc: 08 00 80 d2 	mov	x8, #0
100008100: 78 63 00 d1 	sub	x24, x27, #24
100008104: b5 03 04 d1 	sub	x21, x29, #256
100008108: 14 05 00 91 	add	x20, x8, #1
10000810c: a8 02 00 39 	strb	w8, [x21]
100008110: 00 a3 fe a8 	ldp	x0, x8, [x24], #-24
100008114: 19 01 17 eb 	subs	x25, x8, x23
100008118: 02 31 97 9a 	csel	x2, x8, x23, lo
10000811c: e1 03 1a aa 	mov	x1, x26
100008120: f6 03 1a aa 	mov	x22, x26
100008124: fa 03 0f aa 	mov	x26, x15
100008128: 66 b6 00 94 	bl	0x100035ac0 <_writev+0x100035ac0>
10000812c: ef 03 1a aa 	mov	x15, x26
100008130: fa 03 16 aa 	mov	x26, x22
100008134: 08 7c 40 93 	sxtw	x8, w0
100008138: 1f 00 00 71 	cmp	w0, #0
10000813c: 28 03 88 9a 	csel	x8, x25, x8, eq
100008140: b5 fe 48 8b 	add	x21, x21, x8, lsr #63
100008144: e8 03 14 aa 	mov	x8, x20
100008148: ff 01 14 eb 	cmp	x15, x20
10000814c: e1 fd ff 54 	b.ne	0x100008108 <__ZN4core5slice4sort7recurse17h701f229b3782e113E+0x7cc>
100008150: b8 03 04 d1 	sub	x24, x29, #256
100008154: 0e 03 80 52 	mov	w14, #24
100008158: f9 1f 40 f9 	ldr	x25, [sp, #56]
10000815c: f1 db 44 a9 	ldp	x17, x22, [sp, #72]
100008160: f0 17 40 f9 	ldr	x16, [sp, #40]
100008164: 68 02 1c cb 	sub	x8, x19, x28
100008168: a9 02 18 cb 	sub	x9, x21, x24
10000816c: 1f 01 09 eb 	cmp	x8, x9
100008170: 08 31 89 9a 	csel	x8, x8, x9, lo
100008174: e8 f2 ff b5 	cbnz	x8, 0x100007fd0 <__ZN4core5slice4sort7recurse17h701f229b3782e113E+0x694>
100008178: 6f ff ff 17 	b	0x100007f34 <__ZN4core5slice4sort7recurse17h701f229b3782e113E+0x5f8>
10000817c: b5 03 04 d1 	sub	x21, x29, #256
100008180: b8 03 04 d1 	sub	x24, x29, #256
100008184: 68 02 1c cb 	sub	x8, x19, x28
100008188: a9 02 18 cb 	sub	x9, x21, x24
10000818c: 1f 01 09 eb 	cmp	x8, x9
100008190: 08 31 89 9a 	csel	x8, x8, x9, lo
100008194: e8 f1 ff b5 	cbnz	x8, 0x100007fd0 <__ZN4core5slice4sort7recurse17h701f229b3782e113E+0x694>
100008198: 67 ff ff 17 	b	0x100007f34 <__ZN4core5slice4sort7recurse17h701f229b3782e113E+0x5f8>
10000819c: 9f 03 13 eb 	cmp	x28, x19
1000081a0: ab 03 04 d1 	sub	x11, x29, #256
1000081a4: e2 08 00 54 	b.hs	0x1000082c0 <__ZN4core5slice4sort7recurse17h701f229b3782e113E+0x984>
1000081a8: 68 fe 5f 38 	ldrb	w8, [x19, #-1]!
1000081ac: 09 59 0e 9b 	madd	x9, x8, x14, x22
1000081b0: 68 63 00 d1 	sub	x8, x27, #24
1000081b4: 20 01 c0 3d 	ldr	q0, [x9]
1000081b8: 2a 09 40 f9 	ldr	x10, [x9, #16]
1000081bc: aa 03 19 f8 	stur	x10, [x29, #-112]
1000081c0: 60 21 80 3d 	str	q0, [x11, #128]
1000081c4: 60 83 de 3c 	ldur	q0, [x27, #-24]
1000081c8: 6a 83 5f f8 	ldur	x10, [x27, #-8]
1000081cc: 2a 09 00 f9 	str	x10, [x9, #16]
1000081d0: 20 01 80 3d 	str	q0, [x9]
1000081d4: 60 21 c0 3d 	ldr	q0, [x11, #128]
1000081d8: a9 03 59 f8 	ldur	x9, [x29, #-112]
1000081dc: 69 83 1f f8 	stur	x9, [x27, #-8]
1000081e0: 60 83 9e 3c 	stur	q0, [x27, #-24]
1000081e4: fb 03 08 aa 	mov	x27, x8
1000081e8: 9f 03 13 eb 	cmp	x28, x19
1000081ec: e3 fd ff 54 	b.lo	0x1000081a8 <__ZN4core5slice4sort7recurse17h701f229b3782e113E+0x86c>
1000081f0: 0a 03 80 52 	mov	w10, #24
1000081f4: e9 d3 40 a9 	ldp	x9, x20, [sp, #8]
1000081f8: 08 01 09 cb 	sub	x8, x8, x9
1000081fc: e9 f3 01 b2 	mov	x9, #-6148914691236517206
100008200: 69 55 95 f2 	movk	x9, #43691
100008204: 08 7d c9 9b 	umulh	x8, x8, x9
100008208: e0 23 c0 3d 	ldr	q0, [sp, #128]
10000820c: e9 4b 40 f9 	ldr	x9, [sp, #144]
100008210: 3a 13 48 8b 	add	x26, x25, x8, lsr #4
100008214: 89 0a 00 f9 	str	x9, [x20, #16]
100008218: 80 02 80 3d 	str	q0, [x20]
10000821c: e1 0f 40 f9 	ldr	x1, [sp, #24]
100008220: 28 00 1a eb 	subs	x8, x1, x26
100008224: e9 0b 00 54 	b.ls	0x1000083a0 <__ZN4core5slice4sort7recurse17h701f229b3782e113E+0xa64>
100008228: e9 03 40 f9 	ldr	x9, [sp]
10000822c: 3f 01 19 eb 	cmp	x9, x25
100008230: f3 87 9f 1a 	cset	w19, ls
100008234: 5c 53 0a 9b 	madd	x28, x26, x10, x20
100008238: 80 02 c0 3d 	ldr	q0, [x20]
10000823c: 89 0a 40 f9 	ldr	x9, [x20, #16]
100008240: a9 03 11 f8 	stur	x9, [x29, #-240]
100008244: 60 01 80 3d 	str	q0, [x11]
100008248: 80 03 c0 3d 	ldr	q0, [x28]
10000824c: 89 0b 40 f9 	ldr	x9, [x28, #16]
100008250: 89 0a 00 f9 	str	x9, [x20, #16]
100008254: 80 02 80 3d 	str	q0, [x20]
100008258: 60 01 c0 3d 	ldr	q0, [x11]
10000825c: a9 03 51 f8 	ldur	x9, [x29, #-240]
100008260: 89 0b 00 f9 	str	x9, [x28, #16]
100008264: 80 03 80 3d 	str	q0, [x28]
100008268: 5f 03 08 eb 	cmp	x26, x8
10000826c: 49 33 88 9a 	csel	x9, x26, x8, lo
100008270: 3f 0d 41 eb 	cmp	x9, x1, lsr #3
100008274: e9 37 9f 1a 	cset	w9, hs
100008278: e9 3b 00 b9 	str	w9, [sp, #56]
10000827c: 97 63 00 91 	add	x23, x28, #24
100008280: 19 05 00 d1 	sub	x25, x8, #1
100008284: 5f 03 19 eb 	cmp	x26, x25
100008288: 62 04 00 54 	b.hs	0x100008314 <__ZN4core5slice4sort7recurse17h701f229b3782e113E+0x9d8>
10000828c: e0 03 14 aa 	mov	x0, x20
100008290: e1 03 1a aa 	mov	x1, x26
100008294: e2 1b 40 f9 	ldr	x2, [sp, #48]
100008298: e3 13 40 f9 	ldr	x3, [sp, #32]
10000829c: e4 47 40 b9 	ldr	w4, [sp, #68]
1000082a0: a7 fd ff 97 	bl	0x10000793c <__ZN4core5slice4sort7recurse17h701f229b3782e113E>
1000082a4: fa 03 19 aa 	mov	x26, x25
1000082a8: f8 03 17 aa 	mov	x24, x23
1000082ac: f7 67 01 a9 	stp	x23, x25, [sp, #16]
1000082b0: 3f 57 00 f1 	cmp	x25, #21
1000082b4: b6 03 04 d1 	sub	x22, x29, #256
1000082b8: e2 be ff 54 	b.hs	0x100007a94 <__ZN4core5slice4sort7recurse17h701f229b3782e113E+0x158>
1000082bc: ae fd ff 17 	b	0x100007974 <__ZN4core5slice4sort7recurse17h701f229b3782e113E+0x38>
1000082c0: e8 03 16 aa 	mov	x8, x22
1000082c4: 1f 03 15 eb 	cmp	x24, x21
1000082c8: 42 f9 ff 54 	b.hs	0x1000081f0 <__ZN4core5slice4sort7recurse17h701f229b3782e113E+0x8b4>
1000082cc: a9 fe 5f 38 	ldrb	w9, [x21, #-1]!
1000082d0: e9 03 29 aa 	mvn	x9, x9
1000082d4: 29 6d 0e 9b 	madd	x9, x9, x14, x27
1000082d8: 00 01 c0 3d 	ldr	q0, [x8]
1000082dc: 0a 09 40 f9 	ldr	x10, [x8, #16]
1000082e0: aa 03 19 f8 	stur	x10, [x29, #-112]
1000082e4: 60 21 80 3d 	str	q0, [x11, #128]
1000082e8: 20 01 c0 3d 	ldr	q0, [x9]
1000082ec: 2a 09 40 f9 	ldr	x10, [x9, #16]
1000082f0: 0a 09 00 f9 	str	x10, [x8, #16]
1000082f4: 00 85 81 3c 	str	q0, [x8], #24
1000082f8: 60 21 c0 3d 	ldr	q0, [x11, #128]
1000082fc: aa 03 59 f8 	ldur	x10, [x29, #-112]
100008300: 2a 09 00 f9 	str	x10, [x9, #16]
100008304: 20 01 80 3d 	str	q0, [x9]
100008308: 1f 03 15 eb 	cmp	x24, x21
10000830c: 03 fe ff 54 	b.lo	0x1000082cc <__ZN4core5slice4sort7recurse17h701f229b3782e113E+0x990>
100008310: b8 ff ff 17 	b	0x1000081f0 <__ZN4core5slice4sort7recurse17h701f229b3782e113E+0x8b4>
100008314: e0 03 17 aa 	mov	x0, x23
100008318: e1 03 19 aa 	mov	x1, x25
10000831c: e2 1b 40 f9 	ldr	x2, [sp, #48]
100008320: e3 03 1c aa 	mov	x3, x28
100008324: e4 47 40 b9 	ldr	w4, [sp, #68]
100008328: 85 fd ff 97 	bl	0x10000793c <__ZN4core5slice4sort7recurse17h701f229b3782e113E>
10000832c: f8 03 14 aa 	mov	x24, x20
100008330: fc 13 40 f9 	ldr	x28, [sp, #32]
100008334: f4 6b 01 a9 	stp	x20, x26, [sp, #16]
100008338: 5f 57 00 f1 	cmp	x26, #21
10000833c: b6 03 04 d1 	sub	x22, x29, #256
100008340: a2 ba ff 54 	b.hs	0x100007a94 <__ZN4core5slice4sort7recurse17h701f229b3782e113E+0x158>
100008344: 8c fd ff 17 	b	0x100007974 <__ZN4core5slice4sort7recurse17h701f229b3782e113E+0x38>
100008348: e0 03 18 aa 	mov	x0, x24
10000834c: e1 03 19 aa 	mov	x1, x25
100008350: e2 1b 40 f9 	ldr	x2, [sp, #48]
100008354: 19 b0 00 94 	bl	0x1000343b8 <__ZN4core5slice4sort8heapsort17h471e0b320c9767dbE>
100008358: ff 43 07 91 	add	sp, sp, #464
10000835c: fd 7b 45 a9 	ldp	x29, x30, [sp, #80]
100008360: f4 4f 44 a9 	ldp	x20, x19, [sp, #64]
100008364: f6 57 43 a9 	ldp	x22, x21, [sp, #48]
100008368: f8 5f 42 a9 	ldp	x24, x23, [sp, #32]
10000836c: fa 67 41 a9 	ldp	x26, x25, [sp, #16]
100008370: fc 6f c6 a8 	ldp	x28, x27, [sp], #96
100008374: c0 03 5f d6 	ret
100008378: 82 06 1e 10 	adr	x2, #245968
10000837c: 1f 20 03 d5 	nop
100008380: e0 03 1a aa 	mov	x0, x26
100008384: e1 03 19 aa 	mov	x1, x25
100008388: cc b4 00 94 	bl	0x1000356b8 <__ZN4core9panicking18panic_bounds_check17h1da87a8a2503e657E>
10000838c: a2 09 1e 10 	adr	x2, #246068
100008390: 1f 20 03 d5 	nop
100008394: e0 03 1a aa 	mov	x0, x26
100008398: e1 03 19 aa 	mov	x1, x25
10000839c: c7 b4 00 94 	bl	0x1000356b8 <__ZN4core9panicking18panic_bounds_check17h1da87a8a2503e657E>
1000083a0: 82 0a 1e 10 	adr	x2, #246096
1000083a4: 1f 20 03 d5 	nop
1000083a8: e0 03 1a aa 	mov	x0, x26
1000083ac: c3 b4 00 94 	bl	0x1000356b8 <__ZN4core9panicking18panic_bounds_check17h1da87a8a2503e657E>
1000083b0: 82 08 1e 10 	adr	x2, #246032
1000083b4: 1f 20 03 d5 	nop
1000083b8: 00 00 80 d2 	mov	x0, #0
1000083bc: 01 00 80 d2 	mov	x1, #0
1000083c0: be b4 00 94 	bl	0x1000356b8 <__ZN4core9panicking18panic_bounds_check17h1da87a8a2503e657E>
1000083c4: e2 04 1e 10 	adr	x2, #245916
1000083c8: 1f 20 03 d5 	nop
1000083cc: e1 03 19 aa 	mov	x1, x25
1000083d0: 39 b5 00 94 	bl	0x1000358b4 <__ZN4core5slice5index26slice_start_index_len_fail17h03681d2198d0a57bE>
1000083d4: 22 08 1e 10 	adr	x2, #246020
1000083d8: 1f 20 03 d5 	nop
1000083dc: e0 03 40 f9 	ldr	x0, [sp]
1000083e0: e1 03 1b aa 	mov	x1, x27
1000083e4: 37 b5 00 94 	bl	0x1000358c0 <__ZN4core5slice5index24slice_end_index_len_fail17hd708255cc7251033E>
1000083e8: 06 00 00 14 	b	0x100008400 <__ZN4core5slice4sort7recurse17h701f229b3782e113E+0xac4>
1000083ec: 62 07 1e 10 	adr	x2, #245996
1000083f0: 1f 20 03 d5 	nop
1000083f4: e0 03 19 aa 	mov	x0, x25
1000083f8: e1 03 13 aa 	mov	x1, x19
1000083fc: 34 b5 00 94 	bl	0x1000358cc <__ZN4core5slice5index22slice_index_order_fail17hafa0c02248fbd471E>
100008400: 20 00 20 d4 	brk	#0x1
100008404: f4 03 00 aa 	mov	x20, x0
100008408: e0 03 02 91 	add	x0, sp, #128
10000840c: e1 0b 40 f9 	ldr	x1, [sp, #16]
100008410: 53 fc ff 97 	bl	0x10000755c <__ZN4core3ptr88drop_in_place$LT$core..slice..sort..CopyOnDrop$LT$$LP$$RF$$u5b$u8$u5d$$C$u64$RP$$GT$$GT$17h3a2ad2d9358e09a7E>
100008414: e0 03 14 aa 	mov	x0, x20
100008418: 62 b5 00 94 	bl	0x1000359a0 <_writev+0x1000359a0>

000000010000841c <__ZN4core5slice4sort7recurse17h9ddfd484d06c3e8cE>:
10000841c: ff 43 07 d1 	sub	sp, sp, #464
100008420: fc 6f 17 a9 	stp	x28, x27, [sp, #368]
100008424: fa 67 18 a9 	stp	x26, x25, [sp, #384]
100008428: f8 5f 19 a9 	stp	x24, x23, [sp, #400]
10000842c: f6 57 1a a9 	stp	x22, x21, [sp, #416]
100008430: f4 4f 1b a9 	stp	x20, x19, [sp, #432]
100008434: fd 7b 1c a9 	stp	x29, x30, [sp, #448]
100008438: fd 03 07 91 	add	x29, sp, #448
10000843c: e2 07 00 f9 	str	x2, [sp, #8]
100008440: f7 03 01 aa 	mov	x23, x1
100008444: f3 03 00 aa 	mov	x19, x0
100008448: 3f 54 00 f1 	cmp	x1, #21
10000844c: e2 06 00 54 	b.hs	0x100008528 <__ZN4core5slice4sort7recurse17h9ddfd484d06c3e8cE+0x10c>
100008450: fa 03 17 aa 	mov	x26, x23
100008454: f8 03 13 aa 	mov	x24, x19
100008458: 5f 0b 00 f1 	cmp	x26, #2
10000845c: 63 49 00 54 	b.lo	0x100008d88 <__ZN4core5slice4sort7recurse17h9ddfd484d06c3e8cE+0x96c>
100008460: 08 00 80 d2 	mov	x8, #0
100008464: 29 00 80 52 	mov	w9, #1
100008468: 0a 05 80 52 	mov	w10, #40
10000846c: eb 03 18 aa 	mov	x11, x24
100008470: 0c 00 00 14 	b	0x1000084a0 <__ZN4core5slice4sort7recurse17h9ddfd484d06c3e8cE+0x84>
100008474: ed 03 18 aa 	mov	x13, x24
100008478: e0 33 c0 3d 	ldr	q0, [sp, #192]
10000847c: a0 01 80 3d 	str	q0, [x13]
100008480: ac 09 00 f9 	str	x12, [x13, #16]
100008484: e0 13 c0 3d 	ldr	q0, [sp, #64]
100008488: a0 81 81 3c 	stur	q0, [x13, #24]
10000848c: 29 05 00 91 	add	x9, x9, #1
100008490: 6b a1 00 91 	add	x11, x11, #40
100008494: 08 05 00 d1 	sub	x8, x8, #1
100008498: 3f 01 1a eb 	cmp	x9, x26
10000849c: 60 47 00 54 	b.eq	0x100008d88 <__ZN4core5slice4sort7recurse17h9ddfd484d06c3e8cE+0x96c>
1000084a0: 2e 61 0a 9b 	madd	x14, x9, x10, x24
1000084a4: cc 09 40 f9 	ldr	x12, [x14, #16]
1000084a8: cd 81 5e f8 	ldur	x13, [x14, #-24]
1000084ac: 9f 01 0d eb 	cmp	x12, x13
1000084b0: e2 fe ff 54 	b.hs	0x10000848c <__ZN4core5slice4sort7recurse17h9ddfd484d06c3e8cE+0x70>
1000084b4: cd a1 00 d1 	sub	x13, x14, #40
1000084b8: c0 01 c0 3d 	ldr	q0, [x14]
1000084bc: e0 33 80 3d 	str	q0, [sp, #192]
1000084c0: c0 81 c1 3c 	ldur	q0, [x14, #24]
1000084c4: e0 13 80 3d 	str	q0, [sp, #64]
1000084c8: af 11 40 f9 	ldr	x15, [x13, #32]
1000084cc: cf 11 00 f9 	str	x15, [x14, #32]
1000084d0: a1 01 40 ad 	ldp	q1, q0, [x13]
1000084d4: c1 01 00 ad 	stp	q1, q0, [x14]
1000084d8: 2f 05 00 d1 	sub	x15, x9, #1
1000084dc: ef fc ff b4 	cbz	x15, 0x100008478 <__ZN4core5slice4sort7recurse17h9ddfd484d06c3e8cE+0x5c>
1000084e0: d0 01 5c f8 	ldur	x16, [x14, #-64]
1000084e4: ee 03 08 aa 	mov	x14, x8
1000084e8: ef 03 0b aa 	mov	x15, x11
1000084ec: 9f 01 10 eb 	cmp	x12, x16
1000084f0: 42 fc ff 54 	b.hs	0x100008478 <__ZN4core5slice4sort7recurse17h9ddfd484d06c3e8cE+0x5c>
1000084f4: e0 81 dd 3c 	ldur	q0, [x15, #-40]
1000084f8: e1 81 de 3c 	ldur	q1, [x15, #-24]
1000084fc: e0 05 00 ad 	stp	q0, q1, [x15]
100008500: ed 81 5f f8 	ldur	x13, [x15, #-8]
100008504: ed 11 00 f9 	str	x13, [x15, #32]
100008508: ce 05 00 b1 	adds	x14, x14, #1
10000850c: 42 fb ff 54 	b.hs	0x100008474 <__ZN4core5slice4sort7recurse17h9ddfd484d06c3e8cE+0x58>
100008510: ed a1 00 d1 	sub	x13, x15, #40
100008514: f0 01 5c f8 	ldur	x16, [x15, #-64]
100008518: ef 03 0d aa 	mov	x15, x13
10000851c: 9f 01 10 eb 	cmp	x12, x16
100008520: a3 fe ff 54 	b.lo	0x1000084f4 <__ZN4core5slice4sort7recurse17h9ddfd484d06c3e8cE+0xd8>
100008524: d5 ff ff 17 	b	0x100008478 <__ZN4core5slice4sort7recurse17h9ddfd484d06c3e8cE+0x5c>
100008528: f5 03 04 aa 	mov	x21, x4
10000852c: f6 03 03 aa 	mov	x22, x3
100008530: 21 00 80 52 	mov	w1, #1
100008534: 1c 05 80 52 	mov	w28, #40
100008538: 3b 00 80 52 	mov	w27, #1
10000853c: 34 00 80 52 	mov	w20, #1
100008540: 74 03 14 0a 	and	w20, w27, w20
100008544: f8 03 13 aa 	mov	x24, x19
100008548: f9 03 17 aa 	mov	x25, x23
10000854c: 75 41 00 34 	cbz	w21, 0x100008d78 <__ZN4core5slice4sort7recurse17h9ddfd484d06c3e8cE+0x95c>
100008550: 1b 08 00 36 	tbz	w27, #0, 0x100008650 <__ZN4core5slice4sort7recurse17h9ddfd484d06c3e8cE+0x234>
100008554: 29 ff 42 d3 	lsr	x9, x25, #2
100008558: 2a f9 7f d3 	lsl	x10, x9, #1
10000855c: 48 01 09 8b 	add	x8, x10, x9
100008560: 3f c7 00 f1 	cmp	x25, #49
100008564: a9 08 00 54 	b.ls	0x100008678 <__ZN4core5slice4sort7recurse17h9ddfd484d06c3e8cE+0x25c>
100008568: 2b 05 00 d1 	sub	x11, x9, #1
10000856c: 2c 05 00 91 	add	x12, x9, #1
100008570: 2d 61 1c 9b 	madd	x13, x9, x28, x24
100008574: ae 09 40 f9 	ldr	x14, [x13, #16]
100008578: af 81 5e f8 	ldur	x15, [x13, #-24]
10000857c: df 01 0f eb 	cmp	x14, x15
100008580: f0 21 8e 9a 	csel	x16, x15, x14, hs
100008584: f1 23 81 9a 	csel	x17, xzr, x1, hs
100008588: 20 21 8b 9a 	csel	x0, x9, x11, hs
10000858c: 69 21 89 9a 	csel	x9, x11, x9, hs
100008590: cb 21 8f 9a 	csel	x11, x14, x15, hs
100008594: ad 1d 40 f9 	ldr	x13, [x13, #56]
100008598: bf 01 0b eb 	cmp	x13, x11
10000859c: 8c 31 80 9a 	csel	x12, x12, x0, lo
1000085a0: 2e 26 91 9a 	cinc	x14, x17, lo
1000085a4: ab 31 8b 9a 	csel	x11, x13, x11, lo
1000085a8: 7f 01 10 eb 	cmp	x11, x16
1000085ac: 29 31 8c 9a 	csel	x9, x9, x12, lo
1000085b0: cb 25 8e 9a 	cinc	x11, x14, lo
1000085b4: 4c 05 00 d1 	sub	x12, x10, #1
1000085b8: 4d 01 40 b2 	orr	x13, x10, #0x1
1000085bc: 4e 61 1c 9b 	madd	x14, x10, x28, x24
1000085c0: cf 09 40 f9 	ldr	x15, [x14, #16]
1000085c4: d0 81 5e f8 	ldur	x16, [x14, #-24]
1000085c8: ff 01 10 eb 	cmp	x15, x16
1000085cc: 11 22 8f 9a 	csel	x17, x16, x15, hs
1000085d0: 6b 25 8b 9a 	cinc	x11, x11, lo
1000085d4: 40 21 8c 9a 	csel	x0, x10, x12, hs
1000085d8: 8a 21 8a 9a 	csel	x10, x12, x10, hs
1000085dc: ec 21 90 9a 	csel	x12, x15, x16, hs
1000085e0: ce 1d 40 f9 	ldr	x14, [x14, #56]
1000085e4: df 01 0c eb 	cmp	x14, x12
1000085e8: ad 31 80 9a 	csel	x13, x13, x0, lo
1000085ec: 6b 25 8b 9a 	cinc	x11, x11, lo
1000085f0: cc 31 8c 9a 	csel	x12, x14, x12, lo
1000085f4: 9f 01 11 eb 	cmp	x12, x17
1000085f8: 4a 31 8d 9a 	csel	x10, x10, x13, lo
1000085fc: 6b 25 8b 9a 	cinc	x11, x11, lo
100008600: 0c 05 00 d1 	sub	x12, x8, #1
100008604: 0d 05 00 91 	add	x13, x8, #1
100008608: 0e 61 1c 9b 	madd	x14, x8, x28, x24
10000860c: cf 09 40 f9 	ldr	x15, [x14, #16]
100008610: d0 81 5e f8 	ldur	x16, [x14, #-24]
100008614: ff 01 10 eb 	cmp	x15, x16
100008618: 11 22 8f 9a 	csel	x17, x16, x15, hs
10000861c: 6b 25 8b 9a 	cinc	x11, x11, lo
100008620: 00 21 8c 9a 	csel	x0, x8, x12, hs
100008624: 88 21 88 9a 	csel	x8, x12, x8, hs
100008628: ec 21 90 9a 	csel	x12, x15, x16, hs
10000862c: ce 1d 40 f9 	ldr	x14, [x14, #56]
100008630: df 01 0c eb 	cmp	x14, x12
100008634: ad 31 80 9a 	csel	x13, x13, x0, lo
100008638: 6b 25 8b 9a 	cinc	x11, x11, lo
10000863c: cc 31 8c 9a 	csel	x12, x14, x12, lo
100008640: 9f 01 11 eb 	cmp	x12, x17
100008644: 08 31 8d 9a 	csel	x8, x8, x13, lo
100008648: 6b 25 8b 9a 	cinc	x11, x11, lo
10000864c: 0c 00 00 14 	b	0x10000867c <__ZN4core5slice4sort7recurse17h9ddfd484d06c3e8cE+0x260>
100008650: e0 03 18 aa 	mov	x0, x24
100008654: e1 03 19 aa 	mov	x1, x25
100008658: 2b ab 00 94 	bl	0x100033304 <__ZN4core5slice4sort14break_patterns17hd645d674a470bdbeE>
10000865c: 21 00 80 52 	mov	w1, #1
100008660: b5 06 00 51 	sub	w21, w21, #1
100008664: 29 ff 42 d3 	lsr	x9, x25, #2
100008668: 2a f9 7f d3 	lsl	x10, x9, #1
10000866c: 48 01 09 8b 	add	x8, x10, x9
100008670: 3f c7 00 f1 	cmp	x25, #49
100008674: a8 f7 ff 54 	b.hi	0x100008568 <__ZN4core5slice4sort7recurse17h9ddfd484d06c3e8cE+0x14c>
100008678: 0b 00 80 d2 	mov	x11, #0
10000867c: 4c 61 1c 9b 	madd	x12, x10, x28, x24
100008680: 8c 09 40 f9 	ldr	x12, [x12, #16]
100008684: 2d 61 1c 9b 	madd	x13, x9, x28, x24
100008688: ad 09 40 f9 	ldr	x13, [x13, #16]
10000868c: 9f 01 0d eb 	cmp	x12, x13
100008690: ae 21 8c 9a 	csel	x14, x13, x12, hs
100008694: 6b 25 8b 9a 	cinc	x11, x11, lo
100008698: 4f 21 89 9a 	csel	x15, x10, x9, hs
10000869c: 3a 21 8a 9a 	csel	x26, x9, x10, hs
1000086a0: 8a 21 8d 9a 	csel	x10, x12, x13, hs
1000086a4: 09 61 1c 9b 	madd	x9, x8, x28, x24
1000086a8: 2c 09 40 f9 	ldr	x12, [x9, #16]
1000086ac: 9f 01 0a eb 	cmp	x12, x10
1000086b0: 09 31 8f 9a 	csel	x9, x8, x15, lo
1000086b4: 68 25 8b 9a 	cinc	x8, x11, lo
1000086b8: 8a 31 8a 9a 	csel	x10, x12, x10, lo
1000086bc: 5f 01 0e eb 	cmp	x10, x14
1000086c0: 22 01 00 54 	b.hs	0x1000086e4 <__ZN4core5slice4sort7recurse17h9ddfd484d06c3e8cE+0x2c8>
1000086c4: 1f 2d 00 f1 	cmp	x8, #11
1000086c8: a2 01 00 54 	b.hs	0x1000086fc <__ZN4core5slice4sort7recurse17h9ddfd484d06c3e8cE+0x2e0>
1000086cc: 08 05 00 91 	add	x8, x8, #1
1000086d0: 1f 01 00 f1 	cmp	x8, #0
1000086d4: e8 17 9f 1a 	cset	w8, eq
1000086d8: 88 02 08 0a 	and	w8, w20, w8
1000086dc: 28 04 00 36 	tbz	w8, #0, 0x100008760 <__ZN4core5slice4sort7recurse17h9ddfd484d06c3e8cE+0x344>
1000086e0: 74 00 00 14 	b	0x1000088b0 <__ZN4core5slice4sort7recurse17h9ddfd484d06c3e8cE+0x494>
1000086e4: fa 03 09 aa 	mov	x26, x9
1000086e8: 1f 01 00 f1 	cmp	x8, #0
1000086ec: e8 17 9f 1a 	cset	w8, eq
1000086f0: 88 02 08 0a 	and	w8, w20, w8
1000086f4: 68 03 00 36 	tbz	w8, #0, 0x100008760 <__ZN4core5slice4sort7recurse17h9ddfd484d06c3e8cE+0x344>
1000086f8: 6e 00 00 14 	b	0x1000088b0 <__ZN4core5slice4sort7recurse17h9ddfd484d06c3e8cE+0x494>
1000086fc: 08 00 80 d2 	mov	x8, #0
100008700: 29 ff 41 d3 	lsr	x9, x25, #1
100008704: 2a 0b 19 8b 	add	x10, x25, x25, lsl #2
100008708: 4a f1 7d d3 	lsl	x10, x10, #3
10000870c: 0b 03 0a 8b 	add	x11, x24, x10
100008710: 6c 81 5d f8 	ldur	x12, [x11, #-40]
100008714: 0d 03 08 8b 	add	x13, x24, x8
100008718: a0 05 40 ad 	ldp	q0, q1, [x13]
10000871c: 62 0d 7f ad 	ldp	q2, q3, [x11, #-32]
100008720: 60 81 9d 3c 	stur	q0, [x11, #-40]
100008724: ac 01 00 f9 	str	x12, [x13]
100008728: a2 81 80 3c 	stur	q2, [x13, #8]
10000872c: ac 11 40 f9 	ldr	x12, [x13, #32]
100008730: 61 81 9e 3c 	stur	q1, [x11, #-24]
100008734: a3 81 81 3c 	stur	q3, [x13, #24]
100008738: 6c 81 1f f8 	stur	x12, [x11, #-8]
10000873c: 08 a1 00 91 	add	x8, x8, #40
100008740: 4a a1 00 d1 	sub	x10, x10, #40
100008744: 29 05 00 d1 	sub	x9, x9, #1
100008748: 29 fe ff b5 	cbnz	x9, 0x10000870c <__ZN4core5slice4sort7recurse17h9ddfd484d06c3e8cE+0x2f0>
10000874c: e8 03 3a aa 	mvn	x8, x26
100008750: 3a 03 08 8b 	add	x26, x25, x8
100008754: 28 00 80 52 	mov	w8, #1
100008758: 88 02 08 0a 	and	w8, w20, w8
10000875c: a8 0a 00 37 	tbnz	w8, #0, 0x1000088b0 <__ZN4core5slice4sort7recurse17h9ddfd484d06c3e8cE+0x494>
100008760: 96 0b 00 b4 	cbz	x22, 0x1000088d0 <__ZN4core5slice4sort7recurse17h9ddfd484d06c3e8cE+0x4b4>
100008764: 5f 03 19 eb 	cmp	x26, x25
100008768: 02 32 00 54 	b.hs	0x100008da8 <__ZN4core5slice4sort7recurse17h9ddfd484d06c3e8cE+0x98c>
10000876c: 49 63 1c 9b 	madd	x9, x26, x28, x24
100008770: c8 0a 40 f9 	ldr	x8, [x22, #16]
100008774: 2a 09 40 f9 	ldr	x10, [x9, #16]
100008778: 1f 01 0a eb 	cmp	x8, x10
10000877c: 63 0a 00 54 	b.lo	0x1000088c8 <__ZN4core5slice4sort7recurse17h9ddfd484d06c3e8cE+0x4ac>
100008780: 08 00 80 d2 	mov	x8, #0
100008784: 00 07 40 ad 	ldp	q0, q1, [x24]
100008788: 0a 13 40 f9 	ldr	x10, [x24, #32]
10000878c: ea 73 00 f9 	str	x10, [sp, #224]
100008790: e0 07 06 ad 	stp	q0, q1, [sp, #192]
100008794: 2a 11 40 f9 	ldr	x10, [x9, #32]
100008798: 20 05 40 ad 	ldp	q0, q1, [x9]
10000879c: 0a 13 00 f9 	str	x10, [x24, #32]
1000087a0: 00 07 00 ad 	stp	q0, q1, [x24]
1000087a4: e0 07 46 ad 	ldp	q0, q1, [sp, #192]
1000087a8: ea 73 40 f9 	ldr	x10, [sp, #224]
1000087ac: 2a 11 00 f9 	str	x10, [x9, #32]
1000087b0: 20 05 00 ad 	stp	q0, q1, [x9]
1000087b4: 0b a3 00 91 	add	x11, x24, #40
1000087b8: 09 0b 40 f9 	ldr	x9, [x24, #16]
1000087bc: 0a 63 00 91 	add	x10, x24, #24
1000087c0: 00 03 c0 3d 	ldr	q0, [x24]
1000087c4: e0 13 80 3d 	str	q0, [sp, #64]
1000087c8: 00 83 c1 3c 	ldur	q0, [x24, #24]
1000087cc: a0 03 98 3c 	stur	q0, [x29, #-128]
1000087d0: 0c e3 00 91 	add	x12, x24, #56
1000087d4: ed 03 19 aa 	mov	x13, x25
1000087d8: 2e 07 00 d1 	sub	x14, x25, #1
1000087dc: 1f 01 0e eb 	cmp	x8, x14
1000087e0: 42 01 00 54 	b.hs	0x100008808 <__ZN4core5slice4sort7recurse17h9ddfd484d06c3e8cE+0x3ec>
1000087e4: 0f 31 1c 9b 	madd	x15, x8, x28, x12
1000087e8: f0 01 40 f9 	ldr	x16, [x15]
1000087ec: 3f 01 10 eb 	cmp	x9, x16
1000087f0: c3 00 00 54 	b.lo	0x100008808 <__ZN4core5slice4sort7recurse17h9ddfd484d06c3e8cE+0x3ec>
1000087f4: 08 05 00 91 	add	x8, x8, #1
1000087f8: ef a1 00 91 	add	x15, x15, #40
1000087fc: df 01 08 eb 	cmp	x14, x8
100008800: 41 ff ff 54 	b.ne	0x1000087e8 <__ZN4core5slice4sort7recurse17h9ddfd484d06c3e8cE+0x3cc>
100008804: e8 03 0e aa 	mov	x8, x14
100008808: ae 7d 1c 9b 	mul	x14, x13, x28
10000880c: ce 61 00 d1 	sub	x14, x14, #24
100008810: ad 05 00 d1 	sub	x13, x13, #1
100008814: 1f 01 0d eb 	cmp	x8, x13
100008818: 02 03 00 54 	b.hs	0x100008878 <__ZN4core5slice4sort7recurse17h9ddfd484d06c3e8cE+0x45c>
10000881c: 0f 6b 6e f8 	ldr	x15, [x24, x14]
100008820: ce a1 00 d1 	sub	x14, x14, #40
100008824: 3f 01 0f eb 	cmp	x9, x15
100008828: 43 ff ff 54 	b.lo	0x100008810 <__ZN4core5slice4sort7recurse17h9ddfd484d06c3e8cE+0x3f4>
10000882c: 0e 2d 1c 9b 	madd	x14, x8, x28, x11
100008830: c0 05 40 ad 	ldp	q0, q1, [x14]
100008834: cf 11 40 f9 	ldr	x15, [x14, #32]
100008838: ef 73 00 f9 	str	x15, [sp, #224]
10000883c: af 61 1c 9b 	madd	x15, x13, x28, x24
100008840: e0 07 06 ad 	stp	q0, q1, [sp, #192]
100008844: f0 11 40 f9 	ldr	x16, [x15, #32]
100008848: e0 05 40 ad 	ldp	q0, q1, [x15]
10000884c: d0 11 00 f9 	str	x16, [x14, #32]
100008850: c0 05 00 ad 	stp	q0, q1, [x14]
100008854: e0 07 46 ad 	ldp	q0, q1, [sp, #192]
100008858: ee 73 40 f9 	ldr	x14, [sp, #224]
10000885c: ee 11 00 f9 	str	x14, [x15, #32]
100008860: e0 05 00 ad 	stp	q0, q1, [x15]
100008864: 08 05 00 91 	add	x8, x8, #1
100008868: ae 05 00 d1 	sub	x14, x13, #1
10000886c: 1f 01 0e eb 	cmp	x8, x14
100008870: a3 fb ff 54 	b.lo	0x1000087e4 <__ZN4core5slice4sort7recurse17h9ddfd484d06c3e8cE+0x3c8>
100008874: e5 ff ff 17 	b	0x100008808 <__ZN4core5slice4sort7recurse17h9ddfd484d06c3e8cE+0x3ec>
100008878: 00 05 00 91 	add	x0, x8, #1
10000887c: e0 13 c0 3d 	ldr	q0, [sp, #64]
100008880: 00 03 80 3d 	str	q0, [x24]
100008884: 09 0b 00 f9 	str	x9, [x24, #16]
100008888: a0 03 d8 3c 	ldur	q0, [x29, #-128]
10000888c: 40 01 80 3d 	str	q0, [x10]
100008890: 3a 03 00 eb 	subs	x26, x25, x0
100008894: 43 2a 00 54 	b.lo	0x100008ddc <__ZN4core5slice4sort7recurse17h9ddfd484d06c3e8cE+0x9c0>
100008898: 08 61 1c 9b 	madd	x8, x8, x28, x24
10000889c: 18 a1 00 91 	add	x24, x8, #40
1000088a0: f9 03 1a aa 	mov	x25, x26
1000088a4: 5f 57 00 f1 	cmp	x26, #21
1000088a8: 22 e5 ff 54 	b.hs	0x10000854c <__ZN4core5slice4sort7recurse17h9ddfd484d06c3e8cE+0x130>
1000088ac: eb fe ff 17 	b	0x100008458 <__ZN4core5slice4sort7recurse17h9ddfd484d06c3e8cE+0x3c>
1000088b0: e0 03 18 aa 	mov	x0, x24
1000088b4: e1 03 19 aa 	mov	x1, x25
1000088b8: 63 ab 00 94 	bl	0x100033644 <__ZN4core5slice4sort22partial_insertion_sort17h7723dffc1712db38E>
1000088bc: 21 00 80 52 	mov	w1, #1
1000088c0: 00 f5 07 36 	tbz	w0, #0, 0x100008760 <__ZN4core5slice4sort7recurse17h9ddfd484d06c3e8cE+0x344>
1000088c4: 31 01 00 14 	b	0x100008d88 <__ZN4core5slice4sort7recurse17h9ddfd484d06c3e8cE+0x96c>
1000088c8: f3 03 18 aa 	mov	x19, x24
1000088cc: f7 03 19 aa 	mov	x23, x25
1000088d0: 5f 03 17 eb 	cmp	x26, x23
1000088d4: 42 27 00 54 	b.hs	0x100008dbc <__ZN4core5slice4sort7recurse17h9ddfd484d06c3e8cE+0x9a0>
1000088d8: 48 4f 1c 9b 	madd	x8, x26, x28, x19
1000088dc: 60 06 40 ad 	ldp	q0, q1, [x19]
1000088e0: 69 12 40 f9 	ldr	x9, [x19, #32]
1000088e4: e9 73 00 f9 	str	x9, [sp, #224]
1000088e8: e0 07 06 ad 	stp	q0, q1, [sp, #192]
1000088ec: 09 11 40 f9 	ldr	x9, [x8, #32]
1000088f0: 00 05 40 ad 	ldp	q0, q1, [x8]
1000088f4: 69 12 00 f9 	str	x9, [x19, #32]
1000088f8: 60 06 00 ad 	stp	q0, q1, [x19]
1000088fc: e0 07 46 ad 	ldp	q0, q1, [sp, #192]
100008900: e9 73 40 f9 	ldr	x9, [sp, #224]
100008904: 09 11 00 f9 	str	x9, [x8, #32]
100008908: 00 05 00 ad 	stp	q0, q1, [x8]
10000890c: 68 12 40 f9 	ldr	x8, [x19, #32]
100008910: 60 06 40 ad 	ldp	q0, q1, [x19]
100008914: e8 1b 00 f9 	str	x8, [sp, #48]
100008918: e0 87 00 ad 	stp	q0, q1, [sp, #16]
10000891c: eb 13 40 f9 	ldr	x11, [sp, #32]
100008920: 08 00 80 d2 	mov	x8, #0
100008924: e1 06 00 f1 	subs	x1, x23, #1
100008928: 80 01 00 54 	b.eq	0x100008958 <__ZN4core5slice4sort7recurse17h9ddfd484d06c3e8cE+0x53c>
10000892c: 69 e2 00 91 	add	x9, x19, #56
100008930: b8 99 99 52 	mov	w24, #52429
100008934: 2a 01 40 f9 	ldr	x10, [x9]
100008938: 5f 01 0b eb 	cmp	x10, x11
10000893c: 02 01 00 54 	b.hs	0x10000895c <__ZN4core5slice4sort7recurse17h9ddfd484d06c3e8cE+0x540>
100008940: 08 05 00 91 	add	x8, x8, #1
100008944: 29 a1 00 91 	add	x9, x9, #40
100008948: 3f 00 08 eb 	cmp	x1, x8
10000894c: 41 ff ff 54 	b.ne	0x100008934 <__ZN4core5slice4sort7recurse17h9ddfd484d06c3e8cE+0x518>
100008950: e8 03 01 aa 	mov	x8, x1
100008954: 02 00 00 14 	b	0x10000895c <__ZN4core5slice4sort7recurse17h9ddfd484d06c3e8cE+0x540>
100008958: b8 99 99 52 	mov	w24, #52429
10000895c: 6a a2 00 91 	add	x10, x19, #40
100008960: 1f 01 01 eb 	cmp	x8, x1
100008964: 0c 31 81 9a 	csel	x12, x8, x1, lo
100008968: e9 7e 1c 9b 	mul	x9, x23, x28
10000896c: 2d 61 00 d1 	sub	x13, x9, #24
100008970: e9 03 17 aa 	mov	x9, x23
100008974: 29 05 00 d1 	sub	x9, x9, #1
100008978: 3f 01 08 eb 	cmp	x9, x8
10000897c: c9 00 00 54 	b.ls	0x100008994 <__ZN4core5slice4sort7recurse17h9ddfd484d06c3e8cE+0x578>
100008980: 6e 6a 6d f8 	ldr	x14, [x19, x13]
100008984: ad a1 00 d1 	sub	x13, x13, #40
100008988: df 01 0b eb 	cmp	x14, x11
10000898c: 42 ff ff 54 	b.hs	0x100008974 <__ZN4core5slice4sort7recurse17h9ddfd484d06c3e8cE+0x558>
100008990: 02 00 00 14 	b	0x100008998 <__ZN4core5slice4sort7recurse17h9ddfd484d06c3e8cE+0x57c>
100008994: e9 03 0c aa 	mov	x9, x12
100008998: 2c 01 08 eb 	subs	x12, x9, x8
10000899c: 23 23 00 54 	b.lo	0x100008e00 <__ZN4core5slice4sort7recurse17h9ddfd484d06c3e8cE+0x9e4>
1000089a0: 3f 01 01 eb 	cmp	x9, x1
1000089a4: 48 22 00 54 	b.hi	0x100008dec <__ZN4core5slice4sort7recurse17h9ddfd484d06c3e8cE+0x9d0>
1000089a8: 0d 00 80 d2 	mov	x13, #0
1000089ac: 10 00 80 d2 	mov	x16, #0
1000089b0: 0e 00 80 d2 	mov	x14, #0
1000089b4: 11 00 80 d2 	mov	x17, #0
1000089b8: 0a 29 1c 9b 	madd	x10, x8, x28, x10
1000089bc: 8c 29 1c 9b 	madd	x12, x12, x28, x10
1000089c0: 00 10 80 52 	mov	w0, #128
1000089c4: 01 10 80 52 	mov	w1, #128
1000089c8: ef 03 0a aa 	mov	x15, x10
1000089cc: 10 00 00 14 	b	0x100008a0c <__ZN4core5slice4sort7recurse17h9ddfd484d06c3e8cE+0x5f0>
1000089d0: 83 30 1c 9b 	madd	x3, x4, x28, x12
1000089d4: a0 07 7c ad 	ldp	q0, q1, [x29, #-128]
1000089d8: a4 03 5a f8 	ldur	x4, [x29, #-96]
1000089dc: 64 10 00 f9 	str	x4, [x3, #32]
1000089e0: 60 04 00 ad 	stp	q0, q1, [x3]
1000089e4: 31 06 00 91 	add	x17, x17, #1
1000089e8: 10 06 00 91 	add	x16, x16, #1
1000089ec: 3f 02 0e eb 	cmp	x17, x14
1000089f0: 23 00 9f 9a 	csel	x3, x1, xzr, eq
1000089f4: 6f 3c 1c 9b 	madd	x15, x3, x28, x15
1000089f8: 1f 02 0d eb 	cmp	x16, x13
1000089fc: e3 17 80 da 	csneg	x3, xzr, x0, ne
100008a00: 6c 30 1c 9b 	madd	x12, x3, x28, x12
100008a04: 5f 14 14 f1 	cmp	x2, #1285
100008a08: 63 0e 00 54 	b.lo	0x100008bd4 <__ZN4core5slice4sort7recurse17h9ddfd484d06c3e8cE+0x7b8>
100008a0c: 83 01 0f cb 	sub	x3, x12, x15
100008a10: 62 fc 43 d3 	lsr	x2, x3, #3
100008a14: 5f 14 14 f1 	cmp	x2, #1285
100008a18: 63 01 00 54 	b.lo	0x100008a44 <__ZN4core5slice4sort7recurse17h9ddfd484d06c3e8cE+0x628>
100008a1c: 3f 02 0e eb 	cmp	x17, x14
100008a20: c0 03 00 54 	b.eq	0x100008a98 <__ZN4core5slice4sort7recurse17h9ddfd484d06c3e8cE+0x67c>
100008a24: 1f 02 0d eb 	cmp	x16, x13
100008a28: 40 06 00 54 	b.eq	0x100008af0 <__ZN4core5slice4sort7recurse17h9ddfd484d06c3e8cE+0x6d4>
100008a2c: c3 01 11 cb 	sub	x3, x14, x17
100008a30: a4 01 10 cb 	sub	x4, x13, x16
100008a34: 7f 00 04 eb 	cmp	x3, x4
100008a38: 63 30 84 9a 	csel	x3, x3, x4, lo
100008a3c: 43 08 00 b5 	cbnz	x3, 0x100008b44 <__ZN4core5slice4sort7recurse17h9ddfd484d06c3e8cE+0x728>
100008a40: eb ff ff 17 	b	0x1000089ec <__ZN4core5slice4sort7recurse17h9ddfd484d06c3e8cE+0x5d0>
100008a44: 63 3c 00 12 	and	w3, w3, #0xffff
100008a48: 63 7c 18 1b 	mul	w3, w3, w24
100008a4c: 63 7c 15 53 	lsr	w3, w3, #21
100008a50: 3f 02 0e eb 	cmp	x17, x14
100008a54: e4 27 9f 1a 	cset	w4, lo
100008a58: 1f 02 0d eb 	cmp	x16, x13
100008a5c: e5 27 9f 1a 	cset	w5, lo
100008a60: 84 00 05 2a 	orr	w4, w4, w5
100008a64: 65 00 02 d1 	sub	x5, x3, #128
100008a68: 9f 00 00 71 	cmp	w4, #0
100008a6c: a3 10 83 9a 	csel	x3, x5, x3, ne
100008a70: 3f 02 0e eb 	cmp	x17, x14
100008a74: 60 30 80 9a 	csel	x0, x3, x0, lo
100008a78: 21 30 83 9a 	csel	x1, x1, x3, lo
100008a7c: 65 fc 41 d3 	lsr	x5, x3, #1
100008a80: 63 00 05 cb 	sub	x3, x3, x5
100008a84: 9f 00 00 72 	tst	w4, #0x1
100008a88: 00 10 83 9a 	csel	x0, x0, x3, ne
100008a8c: 21 10 85 9a 	csel	x1, x1, x5, ne
100008a90: 3f 02 0e eb 	cmp	x17, x14
100008a94: 81 fc ff 54 	b.ne	0x100008a24 <__ZN4core5slice4sort7recurse17h9ddfd484d06c3e8cE+0x608>
100008a98: 41 02 00 b4 	cbz	x1, 0x100008ae0 <__ZN4core5slice4sort7recurse17h9ddfd484d06c3e8cE+0x6c4>
100008a9c: 03 00 80 d2 	mov	x3, #0
100008aa0: ee 03 01 91 	add	x14, sp, #64
100008aa4: f1 03 0f aa 	mov	x17, x15
100008aa8: e4 03 0e aa 	mov	x4, x14
100008aac: 83 14 00 38 	strb	w3, [x4], #1
100008ab0: 65 04 00 91 	add	x5, x3, #1
100008ab4: 23 0a 40 f9 	ldr	x3, [x17, #16]
100008ab8: 7f 00 0b eb 	cmp	x3, x11
100008abc: ce 31 84 9a 	csel	x14, x14, x4, lo
100008ac0: 31 a2 00 91 	add	x17, x17, #40
100008ac4: e3 03 05 aa 	mov	x3, x5
100008ac8: 3f 00 05 eb 	cmp	x1, x5
100008acc: e1 fe ff 54 	b.ne	0x100008aa8 <__ZN4core5slice4sort7recurse17h9ddfd484d06c3e8cE+0x68c>
100008ad0: f1 03 01 91 	add	x17, sp, #64
100008ad4: 1f 02 0d eb 	cmp	x16, x13
100008ad8: a1 fa ff 54 	b.ne	0x100008a2c <__ZN4core5slice4sort7recurse17h9ddfd484d06c3e8cE+0x610>
100008adc: 05 00 00 14 	b	0x100008af0 <__ZN4core5slice4sort7recurse17h9ddfd484d06c3e8cE+0x6d4>
100008ae0: ee 03 01 91 	add	x14, sp, #64
100008ae4: f1 03 01 91 	add	x17, sp, #64
100008ae8: 1f 02 0d eb 	cmp	x16, x13
100008aec: 01 fa ff 54 	b.ne	0x100008a2c <__ZN4core5slice4sort7recurse17h9ddfd484d06c3e8cE+0x610>
100008af0: c0 01 00 b4 	cbz	x0, 0x100008b28 <__ZN4core5slice4sort7recurse17h9ddfd484d06c3e8cE+0x70c>
100008af4: 03 00 80 d2 	mov	x3, #0
100008af8: 90 61 00 d1 	sub	x16, x12, #24
100008afc: ed 03 03 91 	add	x13, sp, #192
100008b00: e4 03 0d aa 	mov	x4, x13
100008b04: 83 14 00 38 	strb	w3, [x4], #1
100008b08: 65 04 00 91 	add	x5, x3, #1
100008b0c: 03 86 5d f8 	ldr	x3, [x16], #-40
100008b10: 7f 00 0b eb 	cmp	x3, x11
100008b14: ad 21 84 9a 	csel	x13, x13, x4, hs
100008b18: e3 03 05 aa 	mov	x3, x5
100008b1c: 1f 00 05 eb 	cmp	x0, x5
100008b20: 01 ff ff 54 	b.ne	0x100008b00 <__ZN4core5slice4sort7recurse17h9ddfd484d06c3e8cE+0x6e4>
100008b24: 02 00 00 14 	b	0x100008b2c <__ZN4core5slice4sort7recurse17h9ddfd484d06c3e8cE+0x710>
100008b28: ed 03 03 91 	add	x13, sp, #192
100008b2c: f0 03 03 91 	add	x16, sp, #192
100008b30: c3 01 11 cb 	sub	x3, x14, x17
100008b34: a4 01 10 cb 	sub	x4, x13, x16
100008b38: 7f 00 04 eb 	cmp	x3, x4
100008b3c: 63 30 84 9a 	csel	x3, x3, x4, lo
100008b40: 63 f5 ff b4 	cbz	x3, 0x1000089ec <__ZN4core5slice4sort7recurse17h9ddfd484d06c3e8cE+0x5d0>
100008b44: 24 02 40 39 	ldrb	w4, [x17]
100008b48: 84 3c 1c 9b 	madd	x4, x4, x28, x15
100008b4c: 80 04 40 ad 	ldp	q0, q1, [x4]
100008b50: 84 10 40 f9 	ldr	x4, [x4, #32]
100008b54: a4 03 1a f8 	stur	x4, [x29, #-96]
100008b58: a0 07 3c ad 	stp	q0, q1, [x29, #-128]
100008b5c: 05 02 40 39 	ldrb	w5, [x16]
100008b60: e4 03 25 aa 	mvn	x4, x5
100008b64: 86 30 1c 9b 	madd	x6, x4, x28, x12
100008b68: 27 02 40 39 	ldrb	w7, [x17]
100008b6c: e7 3c 1c 9b 	madd	x7, x7, x28, x15
100008b70: d4 10 40 f9 	ldr	x20, [x6, #32]
100008b74: c1 00 40 ad 	ldp	q1, q0, [x6]
100008b78: e1 00 00 ad 	stp	q1, q0, [x7]
100008b7c: f4 10 00 f9 	str	x20, [x7, #32]
100008b80: 63 04 00 f1 	subs	x3, x3, #1
100008b84: 60 f2 ff 54 	b.eq	0x1000089d0 <__ZN4core5slice4sort7recurse17h9ddfd484d06c3e8cE+0x5b4>
100008b88: 24 1e 40 38 	ldrb	w4, [x17, #1]!
100008b8c: 86 3c 1c 9b 	madd	x6, x4, x28, x15
100008b90: e4 03 25 2a 	mvn	w4, w5
100008b94: 84 dc 78 b2 	orr	x4, x4, #0xffffffffffffff00
100008b98: 84 30 1c 9b 	madd	x4, x4, x28, x12
100008b9c: c5 10 40 f9 	ldr	x5, [x6, #32]
100008ba0: c1 00 40 ad 	ldp	q1, q0, [x6]
100008ba4: 81 00 00 ad 	stp	q1, q0, [x4]
100008ba8: 85 10 00 f9 	str	x5, [x4, #32]
100008bac: 05 1e 40 38 	ldrb	w5, [x16, #1]!
100008bb0: e4 03 25 aa 	mvn	x4, x5
100008bb4: 87 30 1c 9b 	madd	x7, x4, x28, x12
100008bb8: e0 04 40 ad 	ldp	q0, q1, [x7]
100008bbc: e7 10 40 f9 	ldr	x7, [x7, #32]
100008bc0: c7 10 00 f9 	str	x7, [x6, #32]
100008bc4: c0 04 00 ad 	stp	q0, q1, [x6]
100008bc8: 63 04 00 f1 	subs	x3, x3, #1
100008bcc: e1 fd ff 54 	b.ne	0x100008b88 <__ZN4core5slice4sort7recurse17h9ddfd484d06c3e8cE+0x76c>
100008bd0: 80 ff ff 17 	b	0x1000089d0 <__ZN4core5slice4sort7recurse17h9ddfd484d06c3e8cE+0x5b4>
100008bd4: 3f 02 0e eb 	cmp	x17, x14
100008bd8: c2 08 00 54 	b.hs	0x100008cf0 <__ZN4core5slice4sort7recurse17h9ddfd484d06c3e8cE+0x8d4>
100008bdc: cb fd 5f 38 	ldrb	w11, [x14, #-1]!
100008be0: 6d 3d 1c 9b 	madd	x13, x11, x28, x15
100008be4: 8b a1 00 d1 	sub	x11, x12, #40
100008be8: a0 05 40 ad 	ldp	q0, q1, [x13]
100008bec: b0 11 40 f9 	ldr	x16, [x13, #32]
100008bf0: b0 03 1a f8 	stur	x16, [x29, #-96]
100008bf4: a0 07 3c ad 	stp	q0, q1, [x29, #-128]
100008bf8: 80 81 dd 3c 	ldur	q0, [x12, #-40]
100008bfc: 90 81 5f f8 	ldur	x16, [x12, #-8]
100008c00: 81 81 de 3c 	ldur	q1, [x12, #-24]
100008c04: b0 11 00 f9 	str	x16, [x13, #32]
100008c08: a0 05 00 ad 	stp	q0, q1, [x13]
100008c0c: a0 07 7c ad 	ldp	q0, q1, [x29, #-128]
100008c10: ad 03 5a f8 	ldur	x13, [x29, #-96]
100008c14: 8d 81 1f f8 	stur	x13, [x12, #-8]
100008c18: 81 81 9e 3c 	stur	q1, [x12, #-24]
100008c1c: 80 81 9d 3c 	stur	q0, [x12, #-40]
100008c20: ec 03 0b aa 	mov	x12, x11
100008c24: 3f 02 0e eb 	cmp	x17, x14
100008c28: a3 fd ff 54 	b.lo	0x100008bdc <__ZN4core5slice4sort7recurse17h9ddfd484d06c3e8cE+0x7c0>
100008c2c: 6a 01 0a cb 	sub	x10, x11, x10
100008c30: eb e7 02 b2 	mov	x11, #-3689348814741910324
100008c34: ab 99 99 f2 	movk	x11, #52429
100008c38: 4a 7d cb 9b 	umulh	x10, x10, x11
100008c3c: 1a 15 4a 8b 	add	x26, x8, x10, lsr #5
100008c40: e0 87 40 ad 	ldp	q0, q1, [sp, #16]
100008c44: ea 1b 40 f9 	ldr	x10, [sp, #48]
100008c48: 6a 12 00 f9 	str	x10, [x19, #32]
100008c4c: 60 06 00 ad 	stp	q0, q1, [x19]
100008c50: ea 02 1a eb 	subs	x10, x23, x26
100008c54: a9 0b 00 54 	b.ls	0x100008dc8 <__ZN4core5slice4sort7recurse17h9ddfd484d06c3e8cE+0x9ac>
100008c58: 3f 01 08 eb 	cmp	x9, x8
100008c5c: f4 87 9f 1a 	cset	w20, ls
100008c60: 58 4f 1c 9b 	madd	x24, x26, x28, x19
100008c64: 60 06 40 ad 	ldp	q0, q1, [x19]
100008c68: 68 12 40 f9 	ldr	x8, [x19, #32]
100008c6c: e8 73 00 f9 	str	x8, [sp, #224]
100008c70: e0 07 06 ad 	stp	q0, q1, [sp, #192]
100008c74: 08 13 40 f9 	ldr	x8, [x24, #32]
100008c78: 00 07 40 ad 	ldp	q0, q1, [x24]
100008c7c: 68 12 00 f9 	str	x8, [x19, #32]
100008c80: 60 06 00 ad 	stp	q0, q1, [x19]
100008c84: e0 07 46 ad 	ldp	q0, q1, [sp, #192]
100008c88: e8 73 40 f9 	ldr	x8, [sp, #224]
100008c8c: 08 13 00 f9 	str	x8, [x24, #32]
100008c90: 00 07 00 ad 	stp	q0, q1, [x24]
100008c94: 5f 03 0a eb 	cmp	x26, x10
100008c98: 48 33 8a 9a 	csel	x8, x26, x10, lo
100008c9c: 1f 0d 57 eb 	cmp	x8, x23, lsr #3
100008ca0: fb 37 9f 1a 	cset	w27, hs
100008ca4: 17 a3 00 91 	add	x23, x24, #40
100008ca8: 59 05 00 d1 	sub	x25, x10, #1
100008cac: 5f 03 19 eb 	cmp	x26, x25
100008cb0: c2 04 00 54 	b.hs	0x100008d48 <__ZN4core5slice4sort7recurse17h9ddfd484d06c3e8cE+0x92c>
100008cb4: e0 03 13 aa 	mov	x0, x19
100008cb8: e1 03 1a aa 	mov	x1, x26
100008cbc: e2 07 40 f9 	ldr	x2, [sp, #8]
100008cc0: e3 03 16 aa 	mov	x3, x22
100008cc4: e4 03 15 aa 	mov	x4, x21
100008cc8: d5 fd ff 97 	bl	0x10000841c <__ZN4core5slice4sort7recurse17h9ddfd484d06c3e8cE>
100008ccc: f6 03 18 aa 	mov	x22, x24
100008cd0: fa 03 19 aa 	mov	x26, x25
100008cd4: f3 03 17 aa 	mov	x19, x23
100008cd8: f7 03 1a aa 	mov	x23, x26
100008cdc: f8 03 13 aa 	mov	x24, x19
100008ce0: 3f 57 00 f1 	cmp	x25, #21
100008ce4: 21 00 80 52 	mov	w1, #1
100008ce8: c2 c2 ff 54 	b.hs	0x100008540 <__ZN4core5slice4sort7recurse17h9ddfd484d06c3e8cE+0x124>
100008cec: db fd ff 17 	b	0x100008458 <__ZN4core5slice4sort7recurse17h9ddfd484d06c3e8cE+0x3c>
100008cf0: eb 03 0f aa 	mov	x11, x15
100008cf4: 1f 02 0d eb 	cmp	x16, x13
100008cf8: a2 f9 ff 54 	b.hs	0x100008c2c <__ZN4core5slice4sort7recurse17h9ddfd484d06c3e8cE+0x810>
100008cfc: ae fd 5f 38 	ldrb	w14, [x13, #-1]!
100008d00: ee 03 2e aa 	mvn	x14, x14
100008d04: ce 31 1c 9b 	madd	x14, x14, x28, x12
100008d08: 60 05 40 ad 	ldp	q0, q1, [x11]
100008d0c: 6f 11 40 f9 	ldr	x15, [x11, #32]
100008d10: af 03 1a f8 	stur	x15, [x29, #-96]
100008d14: a0 07 3c ad 	stp	q0, q1, [x29, #-128]
100008d18: cf 11 40 f9 	ldr	x15, [x14, #32]
100008d1c: c0 05 40 ad 	ldp	q0, q1, [x14]
100008d20: 6f 11 00 f9 	str	x15, [x11, #32]
100008d24: 60 05 00 ad 	stp	q0, q1, [x11]
100008d28: a0 07 7c ad 	ldp	q0, q1, [x29, #-128]
100008d2c: af 03 5a f8 	ldur	x15, [x29, #-96]
100008d30: cf 11 00 f9 	str	x15, [x14, #32]
100008d34: c0 05 00 ad 	stp	q0, q1, [x14]
100008d38: 6b a1 00 91 	add	x11, x11, #40
100008d3c: 1f 02 0d eb 	cmp	x16, x13
100008d40: e3 fd ff 54 	b.lo	0x100008cfc <__ZN4core5slice4sort7recurse17h9ddfd484d06c3e8cE+0x8e0>
100008d44: ba ff ff 17 	b	0x100008c2c <__ZN4core5slice4sort7recurse17h9ddfd484d06c3e8cE+0x810>
100008d48: e0 03 17 aa 	mov	x0, x23
100008d4c: e1 03 19 aa 	mov	x1, x25
100008d50: e2 07 40 f9 	ldr	x2, [sp, #8]
100008d54: e3 03 18 aa 	mov	x3, x24
100008d58: e4 03 15 aa 	mov	x4, x21
100008d5c: b0 fd ff 97 	bl	0x10000841c <__ZN4core5slice4sort7recurse17h9ddfd484d06c3e8cE>
100008d60: f7 03 1a aa 	mov	x23, x26
100008d64: f8 03 13 aa 	mov	x24, x19
100008d68: 5f 57 00 f1 	cmp	x26, #21
100008d6c: 21 00 80 52 	mov	w1, #1
100008d70: 82 be ff 54 	b.hs	0x100008540 <__ZN4core5slice4sort7recurse17h9ddfd484d06c3e8cE+0x124>
100008d74: b9 fd ff 17 	b	0x100008458 <__ZN4core5slice4sort7recurse17h9ddfd484d06c3e8cE+0x3c>
100008d78: e0 03 18 aa 	mov	x0, x24
100008d7c: e1 03 19 aa 	mov	x1, x25
100008d80: e2 07 40 f9 	ldr	x2, [sp, #8]
100008d84: 6b ac 00 94 	bl	0x100033f30 <__ZN4core5slice4sort8heapsort17h08e20824294ea3eeE>
100008d88: fd 7b 5c a9 	ldp	x29, x30, [sp, #448]
100008d8c: f4 4f 5b a9 	ldp	x20, x19, [sp, #432]
100008d90: f6 57 5a a9 	ldp	x22, x21, [sp, #416]
100008d94: f8 5f 59 a9 	ldp	x24, x23, [sp, #400]
100008d98: fa 67 58 a9 	ldp	x26, x25, [sp, #384]
100008d9c: fc 6f 57 a9 	ldp	x28, x27, [sp, #368]
100008da0: ff 43 07 91 	add	sp, sp, #464
100008da4: c0 03 5f d6 	ret
100008da8: 02 b5 1d 10 	adr	x2, #243360
100008dac: 1f 20 03 d5 	nop
100008db0: e0 03 1a aa 	mov	x0, x26
100008db4: e1 03 19 aa 	mov	x1, x25
100008db8: 40 b2 00 94 	bl	0x1000356b8 <__ZN4core9panicking18panic_bounds_check17h1da87a8a2503e657E>
100008dbc: 22 b8 1d 10 	adr	x2, #243460
100008dc0: 1f 20 03 d5 	nop
100008dc4: 03 00 00 14 	b	0x100008dd0 <__ZN4core5slice4sort7recurse17h9ddfd484d06c3e8cE+0x9b4>
100008dc8: 42 b9 1d 10 	adr	x2, #243496
100008dcc: 1f 20 03 d5 	nop
100008dd0: e0 03 1a aa 	mov	x0, x26
100008dd4: e1 03 17 aa 	mov	x1, x23
100008dd8: 38 b2 00 94 	bl	0x1000356b8 <__ZN4core9panicking18panic_bounds_check17h1da87a8a2503e657E>
100008ddc: 22 b4 1d 10 	adr	x2, #243332
100008de0: 1f 20 03 d5 	nop
100008de4: e1 03 19 aa 	mov	x1, x25
100008de8: b3 b2 00 94 	bl	0x1000358b4 <__ZN4core5slice5index26slice_start_index_len_fail17h03681d2198d0a57bE>
100008dec: 62 b7 1d 10 	adr	x2, #243436
100008df0: 1f 20 03 d5 	nop
100008df4: e0 03 09 aa 	mov	x0, x9
100008df8: b2 b2 00 94 	bl	0x1000358c0 <__ZN4core5slice5index24slice_end_index_len_fail17hd708255cc7251033E>
100008dfc: 06 00 00 14 	b	0x100008e14 <__ZN4core5slice4sort7recurse17h9ddfd484d06c3e8cE+0x9f8>
100008e00: c2 b6 1d 10 	adr	x2, #243416
100008e04: 1f 20 03 d5 	nop
100008e08: e0 03 08 aa 	mov	x0, x8
100008e0c: e1 03 09 aa 	mov	x1, x9
100008e10: af b2 00 94 	bl	0x1000358cc <__ZN4core5slice5index22slice_index_order_fail17hafa0c02248fbd471E>
100008e14: 20 00 20 d4 	brk	#0x1
100008e18: f4 03 00 aa 	mov	x20, x0
100008e1c: e0 43 00 91 	add	x0, sp, #16
100008e20: e1 03 13 aa 	mov	x1, x19
100008e24: 9f f9 ff 97 	bl	0x1000074a0 <__ZN4core3ptr86drop_in_place$LT$core..slice..sort..CopyOnDrop$LT$object..read..ObjectMapEntry$GT$$GT$17h366168e20bc3a4edE>
100008e28: e0 03 14 aa 	mov	x0, x20
100008e2c: dd b2 00 94 	bl	0x1000359a0 <_writev+0x1000359a0>

0000000100008e30 <__ZN4core5slice4sort7recurse17hc09f8155d7681b5dE>:
100008e30: ff c3 06 d1 	sub	sp, sp, #432
100008e34: fc 6f 15 a9 	stp	x28, x27, [sp, #336]
100008e38: fa 67 16 a9 	stp	x26, x25, [sp, #352]
100008e3c: f8 5f 17 a9 	stp	x24, x23, [sp, #368]
100008e40: f6 57 18 a9 	stp	x22, x21, [sp, #384]
100008e44: f4 4f 19 a9 	stp	x20, x19, [sp, #400]
100008e48: fd 7b 1a a9 	stp	x29, x30, [sp, #416]
100008e4c: fd 83 06 91 	add	x29, sp, #416
100008e50: e2 07 00 f9 	str	x2, [sp, #8]
100008e54: fe 03 01 aa 	mov	x30, x1
100008e58: f3 03 00 aa 	mov	x19, x0
100008e5c: 3f 54 00 f1 	cmp	x1, #21
100008e60: 42 06 00 54 	b.hs	0x100008f28 <__ZN4core5slice4sort7recurse17hc09f8155d7681b5dE+0xf8>
100008e64: fa 03 1e aa 	mov	x26, x30
100008e68: f8 03 13 aa 	mov	x24, x19
100008e6c: 5f 0b 00 f1 	cmp	x26, #2
100008e70: 83 47 00 54 	b.lo	0x100009760 <__ZN4core5slice4sort7recurse17hc09f8155d7681b5dE+0x930>
100008e74: 08 00 80 d2 	mov	x8, #0
100008e78: 29 00 80 52 	mov	w9, #1
100008e7c: 0a 03 80 52 	mov	w10, #24
100008e80: eb 03 18 aa 	mov	x11, x24
100008e84: 0a 00 00 14 	b	0x100008eac <__ZN4core5slice4sort7recurse17hc09f8155d7681b5dE+0x7c>
100008e88: ed 03 18 aa 	mov	x13, x24
100008e8c: e0 2f c0 3d 	ldr	q0, [sp, #176]
100008e90: a0 01 80 3d 	str	q0, [x13]
100008e94: ac 09 00 f9 	str	x12, [x13, #16]
100008e98: 29 05 00 91 	add	x9, x9, #1
100008e9c: 6b 61 00 91 	add	x11, x11, #24
100008ea0: 08 05 00 d1 	sub	x8, x8, #1
100008ea4: 3f 01 1a eb 	cmp	x9, x26
100008ea8: c0 45 00 54 	b.eq	0x100009760 <__ZN4core5slice4sort7recurse17hc09f8155d7681b5dE+0x930>
100008eac: 2e 61 0a 9b 	madd	x14, x9, x10, x24
100008eb0: cc 09 40 f9 	ldr	x12, [x14, #16]
100008eb4: cd 81 5f f8 	ldur	x13, [x14, #-8]
100008eb8: 9f 01 0d eb 	cmp	x12, x13
100008ebc: e2 fe ff 54 	b.hs	0x100008e98 <__ZN4core5slice4sort7recurse17hc09f8155d7681b5dE+0x68>
100008ec0: cd 61 00 d1 	sub	x13, x14, #24
100008ec4: c0 01 c0 3d 	ldr	q0, [x14]
100008ec8: e0 2f 80 3d 	str	q0, [sp, #176]
100008ecc: af 09 40 f9 	ldr	x15, [x13, #16]
100008ed0: cf 09 00 f9 	str	x15, [x14, #16]
100008ed4: a0 01 c0 3d 	ldr	q0, [x13]
100008ed8: c0 01 80 3d 	str	q0, [x14]
100008edc: 2f 05 00 d1 	sub	x15, x9, #1
100008ee0: 6f fd ff b4 	cbz	x15, 0x100008e8c <__ZN4core5slice4sort7recurse17hc09f8155d7681b5dE+0x5c>
100008ee4: d0 01 5e f8 	ldur	x16, [x14, #-32]
100008ee8: ee 03 08 aa 	mov	x14, x8
100008eec: ef 03 0b aa 	mov	x15, x11
100008ef0: 9f 01 10 eb 	cmp	x12, x16
100008ef4: c2 fc ff 54 	b.hs	0x100008e8c <__ZN4core5slice4sort7recurse17hc09f8155d7681b5dE+0x5c>
100008ef8: e0 81 de 3c 	ldur	q0, [x15, #-24]
100008efc: e0 01 80 3d 	str	q0, [x15]
100008f00: ed 81 5f f8 	ldur	x13, [x15, #-8]
100008f04: ed 09 00 f9 	str	x13, [x15, #16]
100008f08: ce 05 00 b1 	adds	x14, x14, #1
100008f0c: e2 fb ff 54 	b.hs	0x100008e88 <__ZN4core5slice4sort7recurse17hc09f8155d7681b5dE+0x58>
100008f10: ed 61 00 d1 	sub	x13, x15, #24
100008f14: f0 01 5e f8 	ldur	x16, [x15, #-32]
100008f18: ef 03 0d aa 	mov	x15, x13
100008f1c: 9f 01 10 eb 	cmp	x12, x16
100008f20: c3 fe ff 54 	b.lo	0x100008ef8 <__ZN4core5slice4sort7recurse17hc09f8155d7681b5dE+0xc8>
100008f24: da ff ff 17 	b	0x100008e8c <__ZN4core5slice4sort7recurse17hc09f8155d7681b5dE+0x5c>
100008f28: f5 03 04 aa 	mov	x21, x4
100008f2c: f6 03 03 aa 	mov	x22, x3
100008f30: 21 00 80 52 	mov	w1, #1
100008f34: 1c 03 80 52 	mov	w28, #24
100008f38: e2 f3 7d b2 	orr	x2, xzr, #0xfffffffffffffff8
100008f3c: 3b 00 80 52 	mov	w27, #1
100008f40: 34 00 80 52 	mov	w20, #1
100008f44: 77 03 14 0a 	and	w23, w27, w20
100008f48: f8 03 13 aa 	mov	x24, x19
100008f4c: f9 03 1e aa 	mov	x25, x30
100008f50: 15 40 00 34 	cbz	w21, 0x100009750 <__ZN4core5slice4sort7recurse17hc09f8155d7681b5dE+0x920>
100008f54: 1b 08 00 36 	tbz	w27, #0, 0x100009054 <__ZN4core5slice4sort7recurse17hc09f8155d7681b5dE+0x224>
100008f58: 29 ff 42 d3 	lsr	x9, x25, #2
100008f5c: 2a f9 7f d3 	lsl	x10, x9, #1
100008f60: 48 01 09 8b 	add	x8, x10, x9
100008f64: 3f c7 00 f1 	cmp	x25, #49
100008f68: 09 09 00 54 	b.ls	0x100009088 <__ZN4core5slice4sort7recurse17hc09f8155d7681b5dE+0x258>
100008f6c: 2b 05 00 d1 	sub	x11, x9, #1
100008f70: 2c 05 00 91 	add	x12, x9, #1
100008f74: 2d 61 1c 9b 	madd	x13, x9, x28, x24
100008f78: ae 09 40 f9 	ldr	x14, [x13, #16]
100008f7c: af 81 5f f8 	ldur	x15, [x13, #-8]
100008f80: df 01 0f eb 	cmp	x14, x15
100008f84: f0 21 8e 9a 	csel	x16, x15, x14, hs
100008f88: f1 23 81 9a 	csel	x17, xzr, x1, hs
100008f8c: 20 21 8b 9a 	csel	x0, x9, x11, hs
100008f90: 69 21 89 9a 	csel	x9, x11, x9, hs
100008f94: cb 21 8f 9a 	csel	x11, x14, x15, hs
100008f98: ad 15 40 f9 	ldr	x13, [x13, #40]
100008f9c: bf 01 0b eb 	cmp	x13, x11
100008fa0: 8c 31 80 9a 	csel	x12, x12, x0, lo
100008fa4: 2e 26 91 9a 	cinc	x14, x17, lo
100008fa8: ab 31 8b 9a 	csel	x11, x13, x11, lo
100008fac: 7f 01 10 eb 	cmp	x11, x16
100008fb0: 29 31 8c 9a 	csel	x9, x9, x12, lo
100008fb4: cb 25 8e 9a 	cinc	x11, x14, lo
100008fb8: 4c 05 00 d1 	sub	x12, x10, #1
100008fbc: 4d 01 40 b2 	orr	x13, x10, #0x1
100008fc0: 4e 61 1c 9b 	madd	x14, x10, x28, x24
100008fc4: cf 09 40 f9 	ldr	x15, [x14, #16]
100008fc8: d0 81 5f f8 	ldur	x16, [x14, #-8]
100008fcc: ff 01 10 eb 	cmp	x15, x16
100008fd0: 11 22 8f 9a 	csel	x17, x16, x15, hs
100008fd4: 6b 25 8b 9a 	cinc	x11, x11, lo
100008fd8: 40 21 8c 9a 	csel	x0, x10, x12, hs
100008fdc: 8a 21 8a 9a 	csel	x10, x12, x10, hs
100008fe0: ec 21 90 9a 	csel	x12, x15, x16, hs
100008fe4: ce 15 40 f9 	ldr	x14, [x14, #40]
100008fe8: df 01 0c eb 	cmp	x14, x12
100008fec: ad 31 80 9a 	csel	x13, x13, x0, lo
100008ff0: 6b 25 8b 9a 	cinc	x11, x11, lo
100008ff4: cc 31 8c 9a 	csel	x12, x14, x12, lo
100008ff8: 9f 01 11 eb 	cmp	x12, x17
100008ffc: 4a 31 8d 9a 	csel	x10, x10, x13, lo
100009000: 6b 25 8b 9a 	cinc	x11, x11, lo
100009004: 0c 05 00 d1 	sub	x12, x8, #1
100009008: 0d 05 00 91 	add	x13, x8, #1
10000900c: 0e 61 1c 9b 	madd	x14, x8, x28, x24
100009010: cf 09 40 f9 	ldr	x15, [x14, #16]
100009014: d0 81 5f f8 	ldur	x16, [x14, #-8]
100009018: ff 01 10 eb 	cmp	x15, x16
10000901c: 11 22 8f 9a 	csel	x17, x16, x15, hs
100009020: 6b 25 8b 9a 	cinc	x11, x11, lo
100009024: 00 21 8c 9a 	csel	x0, x8, x12, hs
100009028: 88 21 88 9a 	csel	x8, x12, x8, hs
10000902c: ec 21 90 9a 	csel	x12, x15, x16, hs
100009030: ce 15 40 f9 	ldr	x14, [x14, #40]
100009034: df 01 0c eb 	cmp	x14, x12
100009038: ad 31 80 9a 	csel	x13, x13, x0, lo
10000903c: 6b 25 8b 9a 	cinc	x11, x11, lo
100009040: cc 31 8c 9a 	csel	x12, x14, x12, lo
100009044: 9f 01 11 eb 	cmp	x12, x17
100009048: 08 31 8d 9a 	csel	x8, x8, x13, lo
10000904c: 6b 25 8b 9a 	cinc	x11, x11, lo
100009050: 0f 00 00 14 	b	0x10000908c <__ZN4core5slice4sort7recurse17hc09f8155d7681b5dE+0x25c>
100009054: e0 03 18 aa 	mov	x0, x24
100009058: e1 03 19 aa 	mov	x1, x25
10000905c: f4 03 1e aa 	mov	x20, x30
100009060: 12 a9 00 94 	bl	0x1000334a8 <__ZN4core5slice4sort14break_patterns17hf8e2a94c7218f08bE>
100009064: fe 03 14 aa 	mov	x30, x20
100009068: e2 f3 7d b2 	orr	x2, xzr, #0xfffffffffffffff8
10000906c: 21 00 80 52 	mov	w1, #1
100009070: b5 06 00 51 	sub	w21, w21, #1
100009074: 29 ff 42 d3 	lsr	x9, x25, #2
100009078: 2a f9 7f d3 	lsl	x10, x9, #1
10000907c: 48 01 09 8b 	add	x8, x10, x9
100009080: 3f c7 00 f1 	cmp	x25, #49
100009084: 48 f7 ff 54 	b.hi	0x100008f6c <__ZN4core5slice4sort7recurse17hc09f8155d7681b5dE+0x13c>
100009088: 0b 00 80 d2 	mov	x11, #0
10000908c: 4c 61 1c 9b 	madd	x12, x10, x28, x24
100009090: 8c 09 40 f9 	ldr	x12, [x12, #16]
100009094: 2d 61 1c 9b 	madd	x13, x9, x28, x24
100009098: ad 09 40 f9 	ldr	x13, [x13, #16]
10000909c: 9f 01 0d eb 	cmp	x12, x13
1000090a0: ae 21 8c 9a 	csel	x14, x13, x12, hs
1000090a4: 6b 25 8b 9a 	cinc	x11, x11, lo
1000090a8: 4f 21 89 9a 	csel	x15, x10, x9, hs
1000090ac: 3a 21 8a 9a 	csel	x26, x9, x10, hs
1000090b0: 8a 21 8d 9a 	csel	x10, x12, x13, hs
1000090b4: 09 61 1c 9b 	madd	x9, x8, x28, x24
1000090b8: 2c 09 40 f9 	ldr	x12, [x9, #16]
1000090bc: 9f 01 0a eb 	cmp	x12, x10
1000090c0: 09 31 8f 9a 	csel	x9, x8, x15, lo
1000090c4: 68 25 8b 9a 	cinc	x8, x11, lo
1000090c8: 8a 31 8a 9a 	csel	x10, x12, x10, lo
1000090cc: 5f 01 0e eb 	cmp	x10, x14
1000090d0: 22 01 00 54 	b.hs	0x1000090f4 <__ZN4core5slice4sort7recurse17hc09f8155d7681b5dE+0x2c4>
1000090d4: 1f 2d 00 f1 	cmp	x8, #11
1000090d8: a2 01 00 54 	b.hs	0x10000910c <__ZN4core5slice4sort7recurse17hc09f8155d7681b5dE+0x2dc>
1000090dc: 08 05 00 91 	add	x8, x8, #1
1000090e0: 1f 01 00 f1 	cmp	x8, #0
1000090e4: e8 17 9f 1a 	cset	w8, eq
1000090e8: e8 02 08 0a 	and	w8, w23, w8
1000090ec: e8 03 00 36 	tbz	w8, #0, 0x100009168 <__ZN4core5slice4sort7recurse17hc09f8155d7681b5dE+0x338>
1000090f0: 6c 00 00 14 	b	0x1000092a0 <__ZN4core5slice4sort7recurse17hc09f8155d7681b5dE+0x470>
1000090f4: fa 03 09 aa 	mov	x26, x9
1000090f8: 1f 01 00 f1 	cmp	x8, #0
1000090fc: e8 17 9f 1a 	cset	w8, eq
100009100: e8 02 08 0a 	and	w8, w23, w8
100009104: 28 03 00 36 	tbz	w8, #0, 0x100009168 <__ZN4core5slice4sort7recurse17hc09f8155d7681b5dE+0x338>
100009108: 66 00 00 14 	b	0x1000092a0 <__ZN4core5slice4sort7recurse17hc09f8155d7681b5dE+0x470>
10000910c: 28 ff 41 d3 	lsr	x8, x25, #1
100009110: 29 63 1c 9b 	madd	x9, x25, x28, x24
100009114: 29 61 00 d1 	sub	x9, x9, #24
100009118: ea 03 18 aa 	mov	x10, x24
10000911c: 40 01 c0 3d 	ldr	q0, [x10]
100009120: 4b 09 40 f9 	ldr	x11, [x10, #16]
100009124: eb 63 00 f9 	str	x11, [sp, #192]
100009128: e0 2f 80 3d 	str	q0, [sp, #176]
10000912c: 20 01 c0 3d 	ldr	q0, [x9]
100009130: 2b 09 40 f9 	ldr	x11, [x9, #16]
100009134: 4b 09 00 f9 	str	x11, [x10, #16]
100009138: 40 85 81 3c 	str	q0, [x10], #24
10000913c: e0 2f c0 3d 	ldr	q0, [sp, #176]
100009140: eb 63 40 f9 	ldr	x11, [sp, #192]
100009144: 2b 09 00 f9 	str	x11, [x9, #16]
100009148: 20 85 9e 3c 	str	q0, [x9], #-24
10000914c: 08 05 00 d1 	sub	x8, x8, #1
100009150: 68 fe ff b5 	cbnz	x8, 0x10000911c <__ZN4core5slice4sort7recurse17hc09f8155d7681b5dE+0x2ec>
100009154: e8 03 3a aa 	mvn	x8, x26
100009158: 3a 03 08 8b 	add	x26, x25, x8
10000915c: 28 00 80 52 	mov	w8, #1
100009160: e8 02 08 0a 	and	w8, w23, w8
100009164: e8 09 00 37 	tbnz	w8, #0, 0x1000092a0 <__ZN4core5slice4sort7recurse17hc09f8155d7681b5dE+0x470>
100009168: 36 0b 00 b4 	cbz	x22, 0x1000092cc <__ZN4core5slice4sort7recurse17hc09f8155d7681b5dE+0x49c>
10000916c: 5f 03 19 eb 	cmp	x26, x25
100009170: 82 30 00 54 	b.hs	0x100009780 <__ZN4core5slice4sort7recurse17hc09f8155d7681b5dE+0x950>
100009174: 49 63 1c 9b 	madd	x9, x26, x28, x24
100009178: c8 0a 40 f9 	ldr	x8, [x22, #16]
10000917c: 2a 09 40 f9 	ldr	x10, [x9, #16]
100009180: 1f 01 0a eb 	cmp	x8, x10
100009184: 03 0a 00 54 	b.lo	0x1000092c4 <__ZN4core5slice4sort7recurse17hc09f8155d7681b5dE+0x494>
100009188: 08 00 80 d2 	mov	x8, #0
10000918c: 00 03 c0 3d 	ldr	q0, [x24]
100009190: 0a 0b 40 f9 	ldr	x10, [x24, #16]
100009194: ea 63 00 f9 	str	x10, [sp, #192]
100009198: e0 2f 80 3d 	str	q0, [sp, #176]
10000919c: 20 01 c0 3d 	ldr	q0, [x9]
1000091a0: 2a 09 40 f9 	ldr	x10, [x9, #16]
1000091a4: 0a 0b 00 f9 	str	x10, [x24, #16]
1000091a8: 00 03 80 3d 	str	q0, [x24]
1000091ac: e0 2f c0 3d 	ldr	q0, [sp, #176]
1000091b0: ea 63 40 f9 	ldr	x10, [sp, #192]
1000091b4: 2a 09 00 f9 	str	x10, [x9, #16]
1000091b8: 20 01 80 3d 	str	q0, [x9]
1000091bc: 0a 63 00 91 	add	x10, x24, #24
1000091c0: 09 0b 40 f9 	ldr	x9, [x24, #16]
1000091c4: 00 03 c0 3d 	ldr	q0, [x24]
1000091c8: e0 0f 80 3d 	str	q0, [sp, #48]
1000091cc: 0b a3 00 91 	add	x11, x24, #40
1000091d0: ec 03 19 aa 	mov	x12, x25
1000091d4: 2d 07 00 d1 	sub	x13, x25, #1
1000091d8: 1f 01 0d eb 	cmp	x8, x13
1000091dc: 42 01 00 54 	b.hs	0x100009204 <__ZN4core5slice4sort7recurse17hc09f8155d7681b5dE+0x3d4>
1000091e0: 0e 2d 1c 9b 	madd	x14, x8, x28, x11
1000091e4: cf 01 40 f9 	ldr	x15, [x14]
1000091e8: 3f 01 0f eb 	cmp	x9, x15
1000091ec: c3 00 00 54 	b.lo	0x100009204 <__ZN4core5slice4sort7recurse17hc09f8155d7681b5dE+0x3d4>
1000091f0: 08 05 00 91 	add	x8, x8, #1
1000091f4: ce 61 00 91 	add	x14, x14, #24
1000091f8: bf 01 08 eb 	cmp	x13, x8
1000091fc: 41 ff ff 54 	b.ne	0x1000091e4 <__ZN4core5slice4sort7recurse17hc09f8155d7681b5dE+0x3b4>
100009200: e8 03 0d aa 	mov	x8, x13
100009204: 8d 09 1c 9b 	madd	x13, x12, x28, x2
100009208: 8c 05 00 d1 	sub	x12, x12, #1
10000920c: 1f 01 0c eb 	cmp	x8, x12
100009210: 02 03 00 54 	b.hs	0x100009270 <__ZN4core5slice4sort7recurse17hc09f8155d7681b5dE+0x440>
100009214: 0e 6b 6d f8 	ldr	x14, [x24, x13]
100009218: ad 61 00 d1 	sub	x13, x13, #24
10000921c: 3f 01 0e eb 	cmp	x9, x14
100009220: 43 ff ff 54 	b.lo	0x100009208 <__ZN4core5slice4sort7recurse17hc09f8155d7681b5dE+0x3d8>
100009224: 0d 29 1c 9b 	madd	x13, x8, x28, x10
100009228: 8e 61 1c 9b 	madd	x14, x12, x28, x24
10000922c: a0 01 c0 3d 	ldr	q0, [x13]
100009230: af 09 40 f9 	ldr	x15, [x13, #16]
100009234: ef 63 00 f9 	str	x15, [sp, #192]
100009238: e0 2f 80 3d 	str	q0, [sp, #176]
10000923c: c0 01 c0 3d 	ldr	q0, [x14]
100009240: cf 09 40 f9 	ldr	x15, [x14, #16]
100009244: af 09 00 f9 	str	x15, [x13, #16]
100009248: a0 01 80 3d 	str	q0, [x13]
10000924c: e0 2f c0 3d 	ldr	q0, [sp, #176]
100009250: ed 63 40 f9 	ldr	x13, [sp, #192]
100009254: cd 09 00 f9 	str	x13, [x14, #16]
100009258: c0 01 80 3d 	str	q0, [x14]
10000925c: 08 05 00 91 	add	x8, x8, #1
100009260: 8d 05 00 d1 	sub	x13, x12, #1
100009264: 1f 01 0d eb 	cmp	x8, x13
100009268: c3 fb ff 54 	b.lo	0x1000091e0 <__ZN4core5slice4sort7recurse17hc09f8155d7681b5dE+0x3b0>
10000926c: e6 ff ff 17 	b	0x100009204 <__ZN4core5slice4sort7recurse17hc09f8155d7681b5dE+0x3d4>
100009270: 00 05 00 91 	add	x0, x8, #1
100009274: e0 0f c0 3d 	ldr	q0, [sp, #48]
100009278: 00 03 80 3d 	str	q0, [x24]
10000927c: 09 0b 00 f9 	str	x9, [x24, #16]
100009280: 3a 03 00 eb 	subs	x26, x25, x0
100009284: 83 29 00 54 	b.lo	0x1000097b4 <__ZN4core5slice4sort7recurse17hc09f8155d7681b5dE+0x984>
100009288: 08 61 1c 9b 	madd	x8, x8, x28, x24
10000928c: 18 61 00 91 	add	x24, x8, #24
100009290: f9 03 1a aa 	mov	x25, x26
100009294: 5f 57 00 f1 	cmp	x26, #21
100009298: c2 e5 ff 54 	b.hs	0x100008f50 <__ZN4core5slice4sort7recurse17hc09f8155d7681b5dE+0x120>
10000929c: f4 fe ff 17 	b	0x100008e6c <__ZN4core5slice4sort7recurse17hc09f8155d7681b5dE+0x3c>
1000092a0: e0 03 18 aa 	mov	x0, x24
1000092a4: e1 03 19 aa 	mov	x1, x25
1000092a8: f4 03 1e aa 	mov	x20, x30
1000092ac: 78 aa 00 94 	bl	0x100033c8c <__ZN4core5slice4sort22partial_insertion_sort17hbc39225758f9e37eE>
1000092b0: fe 03 14 aa 	mov	x30, x20
1000092b4: e2 f3 7d b2 	orr	x2, xzr, #0xfffffffffffffff8
1000092b8: 21 00 80 52 	mov	w1, #1
1000092bc: 60 f5 07 36 	tbz	w0, #0, 0x100009168 <__ZN4core5slice4sort7recurse17hc09f8155d7681b5dE+0x338>
1000092c0: 28 01 00 14 	b	0x100009760 <__ZN4core5slice4sort7recurse17hc09f8155d7681b5dE+0x930>
1000092c4: f3 03 18 aa 	mov	x19, x24
1000092c8: fe 03 19 aa 	mov	x30, x25
1000092cc: 5f 03 1e eb 	cmp	x26, x30
1000092d0: 22 26 00 54 	b.hs	0x100009794 <__ZN4core5slice4sort7recurse17hc09f8155d7681b5dE+0x964>
1000092d4: 48 4f 1c 9b 	madd	x8, x26, x28, x19
1000092d8: 60 02 c0 3d 	ldr	q0, [x19]
1000092dc: 69 0a 40 f9 	ldr	x9, [x19, #16]
1000092e0: e9 63 00 f9 	str	x9, [sp, #192]
1000092e4: e0 2f 80 3d 	str	q0, [sp, #176]
1000092e8: 00 01 c0 3d 	ldr	q0, [x8]
1000092ec: 09 09 40 f9 	ldr	x9, [x8, #16]
1000092f0: 69 0a 00 f9 	str	x9, [x19, #16]
1000092f4: 60 02 80 3d 	str	q0, [x19]
1000092f8: e0 2f c0 3d 	ldr	q0, [sp, #176]
1000092fc: e9 63 40 f9 	ldr	x9, [sp, #192]
100009300: 09 09 00 f9 	str	x9, [x8, #16]
100009304: 00 01 80 3d 	str	q0, [x8]
100009308: 60 02 c0 3d 	ldr	q0, [x19]
10000930c: 6a 0a 40 f9 	ldr	x10, [x19, #16]
100009310: ea 13 00 f9 	str	x10, [sp, #32]
100009314: e0 07 80 3d 	str	q0, [sp, #16]
100009318: 08 00 80 d2 	mov	x8, #0
10000931c: c1 07 00 f1 	subs	x1, x30, #1
100009320: 80 01 00 54 	b.eq	0x100009350 <__ZN4core5slice4sort7recurse17hc09f8155d7681b5dE+0x520>
100009324: 69 a2 00 91 	add	x9, x19, #40
100009328: 77 55 95 52 	mov	w23, #43691
10000932c: 2b 01 40 f9 	ldr	x11, [x9]
100009330: 7f 01 0a eb 	cmp	x11, x10
100009334: 02 01 00 54 	b.hs	0x100009354 <__ZN4core5slice4sort7recurse17hc09f8155d7681b5dE+0x524>
100009338: 08 05 00 91 	add	x8, x8, #1
10000933c: 29 61 00 91 	add	x9, x9, #24
100009340: 3f 00 08 eb 	cmp	x1, x8
100009344: 41 ff ff 54 	b.ne	0x10000932c <__ZN4core5slice4sort7recurse17hc09f8155d7681b5dE+0x4fc>
100009348: e8 03 01 aa 	mov	x8, x1
10000934c: 02 00 00 14 	b	0x100009354 <__ZN4core5slice4sort7recurse17hc09f8155d7681b5dE+0x524>
100009350: 77 55 95 52 	mov	w23, #43691
100009354: 6b 62 00 91 	add	x11, x19, #24
100009358: 1f 01 01 eb 	cmp	x8, x1
10000935c: 0c 31 81 9a 	csel	x12, x8, x1, lo
100009360: cd 0b 1c 9b 	madd	x13, x30, x28, x2
100009364: e9 03 1e aa 	mov	x9, x30
100009368: 29 05 00 d1 	sub	x9, x9, #1
10000936c: 3f 01 08 eb 	cmp	x9, x8
100009370: c9 00 00 54 	b.ls	0x100009388 <__ZN4core5slice4sort7recurse17hc09f8155d7681b5dE+0x558>
100009374: 6e 6a 6d f8 	ldr	x14, [x19, x13]
100009378: ad 61 00 d1 	sub	x13, x13, #24
10000937c: df 01 0a eb 	cmp	x14, x10
100009380: 42 ff ff 54 	b.hs	0x100009368 <__ZN4core5slice4sort7recurse17hc09f8155d7681b5dE+0x538>
100009384: 02 00 00 14 	b	0x10000938c <__ZN4core5slice4sort7recurse17hc09f8155d7681b5dE+0x55c>
100009388: e9 03 0c aa 	mov	x9, x12
10000938c: 2c 01 08 eb 	subs	x12, x9, x8
100009390: 43 22 00 54 	b.lo	0x1000097d8 <__ZN4core5slice4sort7recurse17hc09f8155d7681b5dE+0x9a8>
100009394: 3f 01 01 eb 	cmp	x9, x1
100009398: 68 21 00 54 	b.hi	0x1000097c4 <__ZN4core5slice4sort7recurse17hc09f8155d7681b5dE+0x994>
10000939c: 0d 00 80 d2 	mov	x13, #0
1000093a0: 10 00 80 d2 	mov	x16, #0
1000093a4: 0e 00 80 d2 	mov	x14, #0
1000093a8: 11 00 80 d2 	mov	x17, #0
1000093ac: 0b 2d 1c 9b 	madd	x11, x8, x28, x11
1000093b0: 8c 2d 1c 9b 	madd	x12, x12, x28, x11
1000093b4: 00 10 80 52 	mov	w0, #128
1000093b8: 01 10 80 52 	mov	w1, #128
1000093bc: ef 03 0b aa 	mov	x15, x11
1000093c0: 10 00 00 14 	b	0x100009400 <__ZN4core5slice4sort7recurse17hc09f8155d7681b5dE+0x5d0>
1000093c4: a0 03 d9 3c 	ldur	q0, [x29, #-112]
1000093c8: a3 03 5a f8 	ldur	x3, [x29, #-96]
1000093cc: 84 30 1c 9b 	madd	x4, x4, x28, x12
1000093d0: 83 08 00 f9 	str	x3, [x4, #16]
1000093d4: 80 00 80 3d 	str	q0, [x4]
1000093d8: 31 06 00 91 	add	x17, x17, #1
1000093dc: 10 06 00 91 	add	x16, x16, #1
1000093e0: 3f 02 0e eb 	cmp	x17, x14
1000093e4: 23 00 9f 9a 	csel	x3, x1, xzr, eq
1000093e8: 6f 3c 1c 9b 	madd	x15, x3, x28, x15
1000093ec: 1f 02 0d eb 	cmp	x16, x13
1000093f0: e3 17 80 da 	csneg	x3, xzr, x0, ne
1000093f4: 6c 30 1c 9b 	madd	x12, x3, x28, x12
1000093f8: 5f 0c 0c f1 	cmp	x2, #771
1000093fc: 63 0e 00 54 	b.lo	0x1000095c8 <__ZN4core5slice4sort7recurse17hc09f8155d7681b5dE+0x798>
100009400: 83 01 0f cb 	sub	x3, x12, x15
100009404: 62 fc 43 d3 	lsr	x2, x3, #3
100009408: 5f 0c 0c f1 	cmp	x2, #771
10000940c: 63 01 00 54 	b.lo	0x100009438 <__ZN4core5slice4sort7recurse17hc09f8155d7681b5dE+0x608>
100009410: 3f 02 0e eb 	cmp	x17, x14
100009414: c0 03 00 54 	b.eq	0x10000948c <__ZN4core5slice4sort7recurse17hc09f8155d7681b5dE+0x65c>
100009418: 1f 02 0d eb 	cmp	x16, x13
10000941c: 40 06 00 54 	b.eq	0x1000094e4 <__ZN4core5slice4sort7recurse17hc09f8155d7681b5dE+0x6b4>
100009420: c3 01 11 cb 	sub	x3, x14, x17
100009424: a4 01 10 cb 	sub	x4, x13, x16
100009428: 7f 00 04 eb 	cmp	x3, x4
10000942c: 63 30 84 9a 	csel	x3, x3, x4, lo
100009430: 43 08 00 b5 	cbnz	x3, 0x100009538 <__ZN4core5slice4sort7recurse17hc09f8155d7681b5dE+0x708>
100009434: eb ff ff 17 	b	0x1000093e0 <__ZN4core5slice4sort7recurse17hc09f8155d7681b5dE+0x5b0>
100009438: 63 3c 00 12 	and	w3, w3, #0xffff
10000943c: 63 7c 17 1b 	mul	w3, w3, w23
100009440: 63 7c 14 53 	lsr	w3, w3, #20
100009444: 3f 02 0e eb 	cmp	x17, x14
100009448: e4 27 9f 1a 	cset	w4, lo
10000944c: 1f 02 0d eb 	cmp	x16, x13
100009450: e5 27 9f 1a 	cset	w5, lo
100009454: 84 00 05 2a 	orr	w4, w4, w5
100009458: 65 00 02 d1 	sub	x5, x3, #128
10000945c: 9f 00 00 71 	cmp	w4, #0
100009460: a3 10 83 9a 	csel	x3, x5, x3, ne
100009464: 3f 02 0e eb 	cmp	x17, x14
100009468: 60 30 80 9a 	csel	x0, x3, x0, lo
10000946c: 21 30 83 9a 	csel	x1, x1, x3, lo
100009470: 65 fc 41 d3 	lsr	x5, x3, #1
100009474: 63 00 05 cb 	sub	x3, x3, x5
100009478: 9f 00 00 72 	tst	w4, #0x1
10000947c: 00 10 83 9a 	csel	x0, x0, x3, ne
100009480: 21 10 85 9a 	csel	x1, x1, x5, ne
100009484: 3f 02 0e eb 	cmp	x17, x14
100009488: 81 fc ff 54 	b.ne	0x100009418 <__ZN4core5slice4sort7recurse17hc09f8155d7681b5dE+0x5e8>
10000948c: 41 02 00 b4 	cbz	x1, 0x1000094d4 <__ZN4core5slice4sort7recurse17hc09f8155d7681b5dE+0x6a4>
100009490: 03 00 80 d2 	mov	x3, #0
100009494: ee c3 00 91 	add	x14, sp, #48
100009498: f1 03 0f aa 	mov	x17, x15
10000949c: e4 03 0e aa 	mov	x4, x14
1000094a0: 83 14 00 38 	strb	w3, [x4], #1
1000094a4: 65 04 00 91 	add	x5, x3, #1
1000094a8: 23 0a 40 f9 	ldr	x3, [x17, #16]
1000094ac: 7f 00 0a eb 	cmp	x3, x10
1000094b0: ce 31 84 9a 	csel	x14, x14, x4, lo
1000094b4: 31 62 00 91 	add	x17, x17, #24
1000094b8: e3 03 05 aa 	mov	x3, x5
1000094bc: 3f 00 05 eb 	cmp	x1, x5
1000094c0: e1 fe ff 54 	b.ne	0x10000949c <__ZN4core5slice4sort7recurse17hc09f8155d7681b5dE+0x66c>
1000094c4: f1 c3 00 91 	add	x17, sp, #48
1000094c8: 1f 02 0d eb 	cmp	x16, x13
1000094cc: a1 fa ff 54 	b.ne	0x100009420 <__ZN4core5slice4sort7recurse17hc09f8155d7681b5dE+0x5f0>
1000094d0: 05 00 00 14 	b	0x1000094e4 <__ZN4core5slice4sort7recurse17hc09f8155d7681b5dE+0x6b4>
1000094d4: ee c3 00 91 	add	x14, sp, #48
1000094d8: f1 c3 00 91 	add	x17, sp, #48
1000094dc: 1f 02 0d eb 	cmp	x16, x13
1000094e0: 01 fa ff 54 	b.ne	0x100009420 <__ZN4core5slice4sort7recurse17hc09f8155d7681b5dE+0x5f0>
1000094e4: c0 01 00 b4 	cbz	x0, 0x10000951c <__ZN4core5slice4sort7recurse17hc09f8155d7681b5dE+0x6ec>
1000094e8: 03 00 80 d2 	mov	x3, #0
1000094ec: 90 21 00 d1 	sub	x16, x12, #8
1000094f0: ed c3 02 91 	add	x13, sp, #176
1000094f4: e4 03 0d aa 	mov	x4, x13
1000094f8: 83 14 00 38 	strb	w3, [x4], #1
1000094fc: 65 04 00 91 	add	x5, x3, #1
100009500: 03 86 5e f8 	ldr	x3, [x16], #-24
100009504: 7f 00 0a eb 	cmp	x3, x10
100009508: ad 21 84 9a 	csel	x13, x13, x4, hs
10000950c: e3 03 05 aa 	mov	x3, x5
100009510: 1f 00 05 eb 	cmp	x0, x5
100009514: 01 ff ff 54 	b.ne	0x1000094f4 <__ZN4core5slice4sort7recurse17hc09f8155d7681b5dE+0x6c4>
100009518: 02 00 00 14 	b	0x100009520 <__ZN4core5slice4sort7recurse17hc09f8155d7681b5dE+0x6f0>
10000951c: ed c3 02 91 	add	x13, sp, #176
100009520: f0 c3 02 91 	add	x16, sp, #176
100009524: c3 01 11 cb 	sub	x3, x14, x17
100009528: a4 01 10 cb 	sub	x4, x13, x16
10000952c: 7f 00 04 eb 	cmp	x3, x4
100009530: 63 30 84 9a 	csel	x3, x3, x4, lo
100009534: 63 f5 ff b4 	cbz	x3, 0x1000093e0 <__ZN4core5slice4sort7recurse17hc09f8155d7681b5dE+0x5b0>
100009538: 24 02 40 39 	ldrb	w4, [x17]
10000953c: 84 3c 1c 9b 	madd	x4, x4, x28, x15
100009540: 80 00 c0 3d 	ldr	q0, [x4]
100009544: 84 08 40 f9 	ldr	x4, [x4, #16]
100009548: a4 03 1a f8 	stur	x4, [x29, #-96]
10000954c: a0 03 99 3c 	stur	q0, [x29, #-112]
100009550: 05 02 40 39 	ldrb	w5, [x16]
100009554: e4 03 25 aa 	mvn	x4, x5
100009558: 86 30 1c 9b 	madd	x6, x4, x28, x12
10000955c: 27 02 40 39 	ldrb	w7, [x17]
100009560: e7 3c 1c 9b 	madd	x7, x7, x28, x15
100009564: d4 08 40 f9 	ldr	x20, [x6, #16]
100009568: c0 00 c0 3d 	ldr	q0, [x6]
10000956c: e0 00 80 3d 	str	q0, [x7]
100009570: f4 08 00 f9 	str	x20, [x7, #16]
100009574: 63 04 00 f1 	subs	x3, x3, #1
100009578: 60 f2 ff 54 	b.eq	0x1000093c4 <__ZN4core5slice4sort7recurse17hc09f8155d7681b5dE+0x594>
10000957c: 24 1e 40 38 	ldrb	w4, [x17, #1]!
100009580: 86 3c 1c 9b 	madd	x6, x4, x28, x15
100009584: e4 03 25 2a 	mvn	w4, w5
100009588: 84 dc 78 b2 	orr	x4, x4, #0xffffffffffffff00
10000958c: 84 30 1c 9b 	madd	x4, x4, x28, x12
100009590: c5 08 40 f9 	ldr	x5, [x6, #16]
100009594: c0 00 c0 3d 	ldr	q0, [x6]
100009598: 80 00 80 3d 	str	q0, [x4]
10000959c: 85 08 00 f9 	str	x5, [x4, #16]
1000095a0: 05 1e 40 38 	ldrb	w5, [x16, #1]!
1000095a4: e4 03 25 aa 	mvn	x4, x5
1000095a8: 87 30 1c 9b 	madd	x7, x4, x28, x12
1000095ac: f4 08 40 f9 	ldr	x20, [x7, #16]
1000095b0: e0 00 c0 3d 	ldr	q0, [x7]
1000095b4: c0 00 80 3d 	str	q0, [x6]
1000095b8: d4 08 00 f9 	str	x20, [x6, #16]
1000095bc: 63 04 00 f1 	subs	x3, x3, #1
1000095c0: e1 fd ff 54 	b.ne	0x10000957c <__ZN4core5slice4sort7recurse17hc09f8155d7681b5dE+0x74c>
1000095c4: 80 ff ff 17 	b	0x1000093c4 <__ZN4core5slice4sort7recurse17hc09f8155d7681b5dE+0x594>
1000095c8: 3f 02 0e eb 	cmp	x17, x14
1000095cc: e2 07 00 54 	b.hs	0x1000096c8 <__ZN4core5slice4sort7recurse17hc09f8155d7681b5dE+0x898>
1000095d0: ca fd 5f 38 	ldrb	w10, [x14, #-1]!
1000095d4: 4d 3d 1c 9b 	madd	x13, x10, x28, x15
1000095d8: 8a 61 00 d1 	sub	x10, x12, #24
1000095dc: a0 01 c0 3d 	ldr	q0, [x13]
1000095e0: b0 09 40 f9 	ldr	x16, [x13, #16]
1000095e4: b0 03 1a f8 	stur	x16, [x29, #-96]
1000095e8: a0 03 99 3c 	stur	q0, [x29, #-112]
1000095ec: 80 81 de 3c 	ldur	q0, [x12, #-24]
1000095f0: 90 81 5f f8 	ldur	x16, [x12, #-8]
1000095f4: b0 09 00 f9 	str	x16, [x13, #16]
1000095f8: a0 01 80 3d 	str	q0, [x13]
1000095fc: a0 03 d9 3c 	ldur	q0, [x29, #-112]
100009600: ad 03 5a f8 	ldur	x13, [x29, #-96]
100009604: 8d 81 1f f8 	stur	x13, [x12, #-8]
100009608: 80 81 9e 3c 	stur	q0, [x12, #-24]
10000960c: ec 03 0a aa 	mov	x12, x10
100009610: 3f 02 0e eb 	cmp	x17, x14
100009614: e3 fd ff 54 	b.lo	0x1000095d0 <__ZN4core5slice4sort7recurse17hc09f8155d7681b5dE+0x7a0>
100009618: 4a 01 0b cb 	sub	x10, x10, x11
10000961c: eb f3 01 b2 	mov	x11, #-6148914691236517206
100009620: 6b 55 95 f2 	movk	x11, #43691
100009624: 4a 7d cb 9b 	umulh	x10, x10, x11
100009628: e0 07 c0 3d 	ldr	q0, [sp, #16]
10000962c: eb 13 40 f9 	ldr	x11, [sp, #32]
100009630: 1a 11 4a 8b 	add	x26, x8, x10, lsr #4
100009634: 6b 0a 00 f9 	str	x11, [x19, #16]
100009638: 60 02 80 3d 	str	q0, [x19]
10000963c: ca 03 1a eb 	subs	x10, x30, x26
100009640: 09 0b 00 54 	b.ls	0x1000097a0 <__ZN4core5slice4sort7recurse17hc09f8155d7681b5dE+0x970>
100009644: 3f 01 08 eb 	cmp	x9, x8
100009648: f4 87 9f 1a 	cset	w20, ls
10000964c: 58 4f 1c 9b 	madd	x24, x26, x28, x19
100009650: 60 02 c0 3d 	ldr	q0, [x19]
100009654: 68 0a 40 f9 	ldr	x8, [x19, #16]
100009658: e8 63 00 f9 	str	x8, [sp, #192]
10000965c: e0 2f 80 3d 	str	q0, [sp, #176]
100009660: 00 03 c0 3d 	ldr	q0, [x24]
100009664: 08 0b 40 f9 	ldr	x8, [x24, #16]
100009668: 68 0a 00 f9 	str	x8, [x19, #16]
10000966c: 60 02 80 3d 	str	q0, [x19]
100009670: e0 2f c0 3d 	ldr	q0, [sp, #176]
100009674: e8 63 40 f9 	ldr	x8, [sp, #192]
100009678: 08 0b 00 f9 	str	x8, [x24, #16]
10000967c: 00 03 80 3d 	str	q0, [x24]
100009680: 5f 03 0a eb 	cmp	x26, x10
100009684: 48 33 8a 9a 	csel	x8, x26, x10, lo
100009688: 1f 0d 5e eb 	cmp	x8, x30, lsr #3
10000968c: fb 37 9f 1a 	cset	w27, hs
100009690: 17 63 00 91 	add	x23, x24, #24
100009694: 59 05 00 d1 	sub	x25, x10, #1
100009698: 5f 03 19 eb 	cmp	x26, x25
10000969c: 02 04 00 54 	b.hs	0x10000971c <__ZN4core5slice4sort7recurse17hc09f8155d7681b5dE+0x8ec>
1000096a0: e0 03 13 aa 	mov	x0, x19
1000096a4: e1 03 1a aa 	mov	x1, x26
1000096a8: e2 07 40 f9 	ldr	x2, [sp, #8]
1000096ac: e3 03 16 aa 	mov	x3, x22
1000096b0: e4 03 15 aa 	mov	x4, x21
1000096b4: df fd ff 97 	bl	0x100008e30 <__ZN4core5slice4sort7recurse17hc09f8155d7681b5dE>
1000096b8: f6 03 18 aa 	mov	x22, x24
1000096bc: fa 03 19 aa 	mov	x26, x25
1000096c0: f3 03 17 aa 	mov	x19, x23
1000096c4: 1c 00 00 14 	b	0x100009734 <__ZN4core5slice4sort7recurse17hc09f8155d7681b5dE+0x904>
1000096c8: ea 03 0f aa 	mov	x10, x15
1000096cc: 1f 02 0d eb 	cmp	x16, x13
1000096d0: 42 fa ff 54 	b.hs	0x100009618 <__ZN4core5slice4sort7recurse17hc09f8155d7681b5dE+0x7e8>
1000096d4: ae fd 5f 38 	ldrb	w14, [x13, #-1]!
1000096d8: ee 03 2e aa 	mvn	x14, x14
1000096dc: ce 31 1c 9b 	madd	x14, x14, x28, x12
1000096e0: 40 01 c0 3d 	ldr	q0, [x10]
1000096e4: 4f 09 40 f9 	ldr	x15, [x10, #16]
1000096e8: af 03 1a f8 	stur	x15, [x29, #-96]
1000096ec: a0 03 99 3c 	stur	q0, [x29, #-112]
1000096f0: c0 01 c0 3d 	ldr	q0, [x14]
1000096f4: cf 09 40 f9 	ldr	x15, [x14, #16]
1000096f8: 4f 09 00 f9 	str	x15, [x10, #16]
1000096fc: 40 85 81 3c 	str	q0, [x10], #24
100009700: a0 03 d9 3c 	ldur	q0, [x29, #-112]
100009704: af 03 5a f8 	ldur	x15, [x29, #-96]
100009708: cf 09 00 f9 	str	x15, [x14, #16]
10000970c: c0 01 80 3d 	str	q0, [x14]
100009710: 1f 02 0d eb 	cmp	x16, x13
100009714: 03 fe ff 54 	b.lo	0x1000096d4 <__ZN4core5slice4sort7recurse17hc09f8155d7681b5dE+0x8a4>
100009718: c0 ff ff 17 	b	0x100009618 <__ZN4core5slice4sort7recurse17hc09f8155d7681b5dE+0x7e8>
10000971c: e0 03 17 aa 	mov	x0, x23
100009720: e1 03 19 aa 	mov	x1, x25
100009724: e2 07 40 f9 	ldr	x2, [sp, #8]
100009728: e3 03 18 aa 	mov	x3, x24
10000972c: e4 03 15 aa 	mov	x4, x21
100009730: c0 fd ff 97 	bl	0x100008e30 <__ZN4core5slice4sort7recurse17hc09f8155d7681b5dE>
100009734: fe 03 1a aa 	mov	x30, x26
100009738: f8 03 13 aa 	mov	x24, x19
10000973c: 5f 57 00 f1 	cmp	x26, #21
100009740: 21 00 80 52 	mov	w1, #1
100009744: e2 f3 7d b2 	orr	x2, xzr, #0xfffffffffffffff8
100009748: e2 bf ff 54 	b.hs	0x100008f44 <__ZN4core5slice4sort7recurse17hc09f8155d7681b5dE+0x114>
10000974c: c8 fd ff 17 	b	0x100008e6c <__ZN4core5slice4sort7recurse17hc09f8155d7681b5dE+0x3c>
100009750: e0 03 18 aa 	mov	x0, x24
100009754: e1 03 19 aa 	mov	x1, x25
100009758: e2 07 40 f9 	ldr	x2, [sp, #8]
10000975c: 87 aa 00 94 	bl	0x100034178 <__ZN4core5slice4sort8heapsort17h0fb881e531e294cbE>
100009760: fd 7b 5a a9 	ldp	x29, x30, [sp, #416]
100009764: f4 4f 59 a9 	ldp	x20, x19, [sp, #400]
100009768: f6 57 58 a9 	ldp	x22, x21, [sp, #384]
10000976c: f8 5f 57 a9 	ldp	x24, x23, [sp, #368]
100009770: fa 67 56 a9 	ldp	x26, x25, [sp, #352]
100009774: fc 6f 55 a9 	ldp	x28, x27, [sp, #336]
100009778: ff c3 06 91 	add	sp, sp, #432
10000977c: c0 03 5f d6 	ret
100009780: 42 66 1d 10 	adr	x2, #240840
100009784: 1f 20 03 d5 	nop
100009788: e0 03 1a aa 	mov	x0, x26
10000978c: e1 03 19 aa 	mov	x1, x25
100009790: ca af 00 94 	bl	0x1000356b8 <__ZN4core9panicking18panic_bounds_check17h1da87a8a2503e657E>
100009794: 62 69 1d 10 	adr	x2, #240940
100009798: 1f 20 03 d5 	nop
10000979c: 03 00 00 14 	b	0x1000097a8 <__ZN4core5slice4sort7recurse17hc09f8155d7681b5dE+0x978>
1000097a0: 82 6a 1d 10 	adr	x2, #240976
1000097a4: 1f 20 03 d5 	nop
1000097a8: e0 03 1a aa 	mov	x0, x26
1000097ac: e1 03 1e aa 	mov	x1, x30
1000097b0: c2 af 00 94 	bl	0x1000356b8 <__ZN4core9panicking18panic_bounds_check17h1da87a8a2503e657E>
1000097b4: 62 65 1d 10 	adr	x2, #240812
1000097b8: 1f 20 03 d5 	nop
1000097bc: e1 03 19 aa 	mov	x1, x25
1000097c0: 3d b0 00 94 	bl	0x1000358b4 <__ZN4core5slice5index26slice_start_index_len_fail17h03681d2198d0a57bE>
1000097c4: a2 68 1d 10 	adr	x2, #240916
1000097c8: 1f 20 03 d5 	nop
1000097cc: e0 03 09 aa 	mov	x0, x9
1000097d0: 3c b0 00 94 	bl	0x1000358c0 <__ZN4core5slice5index24slice_end_index_len_fail17hd708255cc7251033E>
1000097d4: 06 00 00 14 	b	0x1000097ec <__ZN4core5slice4sort7recurse17hc09f8155d7681b5dE+0x9bc>
1000097d8: 02 68 1d 10 	adr	x2, #240896
1000097dc: 1f 20 03 d5 	nop
1000097e0: e0 03 08 aa 	mov	x0, x8
1000097e4: e1 03 09 aa 	mov	x1, x9
1000097e8: 39 b0 00 94 	bl	0x1000358cc <__ZN4core5slice5index22slice_index_order_fail17hafa0c02248fbd471E>
1000097ec: 20 00 20 d4 	brk	#0x1
1000097f0: f4 03 00 aa 	mov	x20, x0
1000097f4: e0 43 00 91 	add	x0, sp, #16
1000097f8: e1 03 13 aa 	mov	x1, x19
1000097fc: 58 f7 ff 97 	bl	0x10000755c <__ZN4core3ptr88drop_in_place$LT$core..slice..sort..CopyOnDrop$LT$$LP$$RF$$u5b$u8$u5d$$C$u64$RP$$GT$$GT$17h3a2ad2d9358e09a7E>
100009800: e0 03 14 aa 	mov	x0, x20
100009804: 67 b0 00 94 	bl	0x1000359a0 <_writev+0x1000359a0>

0000000100009808 <__ZN4core5slice4sort8heapsort28_$u7b$$u7b$closure$u7d$$u7d$17hdcfac65fff8163ddE>:
100009808: ff c3 01 d1 	sub	sp, sp, #112
10000980c: fa 67 02 a9 	stp	x26, x25, [sp, #32]
100009810: f8 5f 03 a9 	stp	x24, x23, [sp, #48]
100009814: f6 57 04 a9 	stp	x22, x21, [sp, #64]
100009818: f4 4f 05 a9 	stp	x20, x19, [sp, #80]
10000981c: fd 7b 06 a9 	stp	x29, x30, [sp, #96]
100009820: fd 83 01 91 	add	x29, sp, #96
100009824: 38 00 80 52 	mov	w24, #1
100009828: 78 f8 7f b3 	bfi	x24, x3, #1, #63
10000982c: 1f 03 02 eb 	cmp	x24, x2
100009830: 82 06 00 54 	b.hs	0x100009900 <__ZN4core5slice4sort8heapsort28_$u7b$$u7b$closure$u7d$$u7d$17hdcfac65fff8163ddE+0xf8>
100009834: f5 03 03 aa 	mov	x21, x3
100009838: f3 03 02 aa 	mov	x19, x2
10000983c: f4 03 01 aa 	mov	x20, x1
100009840: 68 f8 7f d3 	lsl	x8, x3, #1
100009844: 17 03 80 52 	mov	w23, #24
100009848: 16 09 00 91 	add	x22, x8, #2
10000984c: df 02 13 eb 	cmp	x22, x19
100009850: c2 01 00 54 	b.hs	0x100009888 <__ZN4core5slice4sort8heapsort28_$u7b$$u7b$closure$u7d$$u7d$17hdcfac65fff8163ddE+0x80>
100009854: 09 53 17 9b 	madd	x9, x24, x23, x20
100009858: 08 51 17 9b 	madd	x8, x8, x23, x20
10000985c: 20 25 40 a9 	ldp	x0, x9, [x9]
100009860: 01 21 43 a9 	ldp	x1, x8, [x8, #48]
100009864: 39 01 08 eb 	subs	x25, x9, x8
100009868: 22 31 88 9a 	csel	x2, x9, x8, lo
10000986c: 95 b0 00 94 	bl	0x100035ac0 <_writev+0x100035ac0>
100009870: 08 7c 40 93 	sxtw	x8, w0
100009874: 1f 00 00 71 	cmp	w0, #0
100009878: 28 03 88 9a 	csel	x8, x25, x8, eq
10000987c: 1f 01 00 f1 	cmp	x8, #0
100009880: d6 b2 98 9a 	csel	x22, x22, x24, lt
100009884: 02 00 00 14 	b	0x10000988c <__ZN4core5slice4sort8heapsort28_$u7b$$u7b$closure$u7d$$u7d$17hdcfac65fff8163ddE+0x84>
100009888: f6 03 18 aa 	mov	x22, x24
10000988c: bf 02 13 eb 	cmp	x21, x19
100009890: 62 04 00 54 	b.hs	0x10000991c <__ZN4core5slice4sort8heapsort28_$u7b$$u7b$closure$u7d$$u7d$17hdcfac65fff8163ddE+0x114>
100009894: df 02 13 eb 	cmp	x22, x19
100009898: c2 04 00 54 	b.hs	0x100009930 <__ZN4core5slice4sort8heapsort28_$u7b$$u7b$closure$u7d$$u7d$17hdcfac65fff8163ddE+0x128>
10000989c: b8 52 17 9b 	madd	x24, x21, x23, x20
1000098a0: d5 52 17 9b 	madd	x21, x22, x23, x20
1000098a4: 00 23 40 a9 	ldp	x0, x8, [x24]
1000098a8: a1 26 40 a9 	ldp	x1, x9, [x21]
1000098ac: 19 01 09 eb 	subs	x25, x8, x9
1000098b0: 02 31 89 9a 	csel	x2, x8, x9, lo
1000098b4: 83 b0 00 94 	bl	0x100035ac0 <_writev+0x100035ac0>
1000098b8: 08 7c 40 93 	sxtw	x8, w0
1000098bc: 1f 00 00 71 	cmp	w0, #0
1000098c0: 28 03 88 9a 	csel	x8, x25, x8, eq
1000098c4: e8 01 f8 b6 	tbz	x8, #63, 0x100009900 <__ZN4core5slice4sort8heapsort28_$u7b$$u7b$closure$u7d$$u7d$17hdcfac65fff8163ddE+0xf8>
1000098c8: 08 0b 40 f9 	ldr	x8, [x24, #16]
1000098cc: 00 03 c0 3d 	ldr	q0, [x24]
1000098d0: a9 0a 40 f9 	ldr	x9, [x21, #16]
1000098d4: a1 02 c0 3d 	ldr	q1, [x21]
1000098d8: 01 03 80 3d 	str	q1, [x24]
1000098dc: 09 0b 00 f9 	str	x9, [x24, #16]
1000098e0: a0 02 80 3d 	str	q0, [x21]
1000098e4: a8 0a 00 f9 	str	x8, [x21, #16]
1000098e8: c8 fa 7f d3 	lsl	x8, x22, #1
1000098ec: 38 00 80 52 	mov	w24, #1
1000098f0: d8 fa 7f b3 	bfi	x24, x22, #1, #63
1000098f4: f5 03 16 aa 	mov	x21, x22
1000098f8: 1f 03 13 eb 	cmp	x24, x19
1000098fc: 63 fa ff 54 	b.lo	0x100009848 <__ZN4core5slice4sort8heapsort28_$u7b$$u7b$closure$u7d$$u7d$17hdcfac65fff8163ddE+0x40>
100009900: fd 7b 46 a9 	ldp	x29, x30, [sp, #96]
100009904: f4 4f 45 a9 	ldp	x20, x19, [sp, #80]
100009908: f6 57 44 a9 	ldp	x22, x21, [sp, #64]
10000990c: f8 5f 43 a9 	ldp	x24, x23, [sp, #48]
100009910: fa 67 42 a9 	ldp	x26, x25, [sp, #32]
100009914: ff c3 01 91 	add	sp, sp, #112
100009918: c0 03 5f d6 	ret
10000991c: a2 5b 1d 10 	adr	x2, #240500
100009920: 1f 20 03 d5 	nop
100009924: e0 03 15 aa 	mov	x0, x21
100009928: e1 03 13 aa 	mov	x1, x19
10000992c: 63 af 00 94 	bl	0x1000356b8 <__ZN4core9panicking18panic_bounds_check17h1da87a8a2503e657E>
100009930: c2 5b 1d 10 	adr	x2, #240504
100009934: 1f 20 03 d5 	nop
100009938: e0 03 16 aa 	mov	x0, x22
10000993c: e1 03 13 aa 	mov	x1, x19
100009940: 5e af 00 94 	bl	0x1000356b8 <__ZN4core9panicking18panic_bounds_check17h1da87a8a2503e657E>

0000000100009944 <__ZN50_$LT$$BP$mut$u20$T$u20$as$u20$core..fmt..Debug$GT$3fmt17h338557b99430e34bE>:
100009944: 00 00 40 f9 	ldr	x0, [x0]
100009948: f2 97 00 14 	b	0x10002f910 <__ZN4core3fmt17pointer_fmt_inner17haeecdf6c04ffe1b2E>

000000010000994c <__ZN50_$LT$$RF$mut$u20$W$u20$as$u20$core..fmt..Write$GT$10write_char17h0aa68ee9cf24a117E>:
10000994c: ff 83 00 d1 	sub	sp, sp, #32
100009950: fd 7b 01 a9 	stp	x29, x30, [sp, #16]
100009954: fd 43 00 91 	add	x29, sp, #16
100009958: 00 00 40 f9 	ldr	x0, [x0]
10000995c: bf c3 1f b8 	stur	wzr, [x29, #-4]
100009960: 3f 00 02 71 	cmp	w1, #128
100009964: 82 00 00 54 	b.hs	0x100009974 <__ZN50_$LT$$RF$mut$u20$W$u20$as$u20$core..fmt..Write$GT$10write_char17h0aa68ee9cf24a117E+0x28>
100009968: a1 c3 1f 38 	sturb	w1, [x29, #-4]
10000996c: 22 00 80 52 	mov	w2, #1
100009970: 25 00 00 14 	b	0x100009a04 <__ZN50_$LT$$RF$mut$u20$W$u20$as$u20$core..fmt..Write$GT$10write_char17h0aa68ee9cf24a117E+0xb8>
100009974: 3f 00 20 71 	cmp	w1, #2048
100009978: 22 01 00 54 	b.hs	0x10000999c <__ZN50_$LT$$RF$mut$u20$W$u20$as$u20$core..fmt..Write$GT$10write_char17h0aa68ee9cf24a117E+0x50>
10000997c: 28 7c 06 53 	lsr	w8, w1, #6
100009980: 08 05 1a 32 	orr	w8, w8, #0xc0
100009984: a8 c3 1f 38 	sturb	w8, [x29, #-4]
100009988: 08 10 80 52 	mov	w8, #128
10000998c: 28 14 00 33 	bfxil	w8, w1, #0, #6
100009990: a8 d3 1f 38 	sturb	w8, [x29, #-3]
100009994: 42 00 80 52 	mov	w2, #2
100009998: 1b 00 00 14 	b	0x100009a04 <__ZN50_$LT$$RF$mut$u20$W$u20$as$u20$core..fmt..Write$GT$10write_char17h0aa68ee9cf24a117E+0xb8>
10000999c: 3f 40 40 71 	cmp	w1, #16, lsl #12        ; =65536
1000099a0: 82 01 00 54 	b.hs	0x1000099d0 <__ZN50_$LT$$RF$mut$u20$W$u20$as$u20$core..fmt..Write$GT$10write_char17h0aa68ee9cf24a117E+0x84>
1000099a4: 28 7c 0c 53 	lsr	w8, w1, #12
1000099a8: 08 09 1b 32 	orr	w8, w8, #0xe0
1000099ac: a8 c3 1f 38 	sturb	w8, [x29, #-4]
1000099b0: 08 10 80 52 	mov	w8, #128
1000099b4: 09 10 80 52 	mov	w9, #128
1000099b8: 29 2c 06 33 	bfxil	w9, w1, #6, #6
1000099bc: a9 d3 1f 38 	sturb	w9, [x29, #-3]
1000099c0: 28 14 00 33 	bfxil	w8, w1, #0, #6
1000099c4: a8 e3 1f 38 	sturb	w8, [x29, #-2]
1000099c8: 62 00 80 52 	mov	w2, #3
1000099cc: 0e 00 00 14 	b	0x100009a04 <__ZN50_$LT$$RF$mut$u20$W$u20$as$u20$core..fmt..Write$GT$10write_char17h0aa68ee9cf24a117E+0xb8>
1000099d0: 08 1e 80 52 	mov	w8, #240
1000099d4: 28 50 12 33 	bfxil	w8, w1, #18, #3
1000099d8: a8 c3 1f 38 	sturb	w8, [x29, #-4]
1000099dc: 08 10 80 52 	mov	w8, #128
1000099e0: 09 10 80 52 	mov	w9, #128
1000099e4: 29 44 0c 33 	bfxil	w9, w1, #12, #6
1000099e8: a9 d3 1f 38 	sturb	w9, [x29, #-3]
1000099ec: 09 10 80 52 	mov	w9, #128
1000099f0: 29 2c 06 33 	bfxil	w9, w1, #6, #6
1000099f4: a9 e3 1f 38 	sturb	w9, [x29, #-2]
1000099f8: 28 14 00 33 	bfxil	w8, w1, #0, #6
1000099fc: a8 f3 1f 38 	sturb	w8, [x29, #-1]
100009a00: 82 00 80 52 	mov	w2, #4
100009a04: a1 13 00 d1 	sub	x1, x29, #4
100009a08: 34 44 00 94 	bl	0x10001aad8 <__ZN80_$LT$std..io..Write..write_fmt..Adapter$LT$T$GT$$u20$as$u20$core..fmt..Write$GT$9write_str17h078d52d14f82e3afE>
100009a0c: fd 7b 41 a9 	ldp	x29, x30, [sp, #16]
100009a10: ff 83 00 91 	add	sp, sp, #32
100009a14: c0 03 5f d6 	ret

0000000100009a18 <__ZN50_$LT$$RF$mut$u20$W$u20$as$u20$core..fmt..Write$GT$10write_char17he393b8f7f237d50cE>:
100009a18: ff 03 01 d1 	sub	sp, sp, #64
100009a1c: f6 57 01 a9 	stp	x22, x21, [sp, #16]
100009a20: f4 4f 02 a9 	stp	x20, x19, [sp, #32]
100009a24: fd 7b 03 a9 	stp	x29, x30, [sp, #48]
100009a28: fd c3 00 91 	add	x29, sp, #48
100009a2c: f4 03 01 aa 	mov	x20, x1
100009a30: 13 00 40 f9 	ldr	x19, [x0]
100009a34: 3f 00 02 71 	cmp	w1, #128
100009a38: 82 01 00 54 	b.hs	0x100009a68 <__ZN50_$LT$$RF$mut$u20$W$u20$as$u20$core..fmt..Write$GT$10write_char17he393b8f7f237d50cE+0x50>
100009a3c: 61 0a 40 f9 	ldr	x1, [x19, #16]
100009a40: 68 02 40 f9 	ldr	x8, [x19]
100009a44: 3f 00 08 eb 	cmp	x1, x8
100009a48: 81 00 00 54 	b.ne	0x100009a58 <__ZN50_$LT$$RF$mut$u20$W$u20$as$u20$core..fmt..Write$GT$10write_char17he393b8f7f237d50cE+0x40>
100009a4c: e0 03 13 aa 	mov	x0, x19
100009a50: b8 04 00 94 	bl	0x10000ad30 <__ZN5alloc7raw_vec19RawVec$LT$T$C$A$GT$16reserve_for_push17ha2d92b590ae33d16E>
100009a54: 61 0a 40 f9 	ldr	x1, [x19, #16]
100009a58: 68 06 40 f9 	ldr	x8, [x19, #8]
100009a5c: 14 69 21 38 	strb	w20, [x8, x1]
100009a60: 28 04 00 91 	add	x8, x1, #1
100009a64: 31 00 00 14 	b	0x100009b28 <__ZN50_$LT$$RF$mut$u20$W$u20$as$u20$core..fmt..Write$GT$10write_char17he393b8f7f237d50cE+0x110>
100009a68: ff 0f 00 b9 	str	wzr, [sp, #12]
100009a6c: 9f 02 20 71 	cmp	w20, #2048
100009a70: 22 01 00 54 	b.hs	0x100009a94 <__ZN50_$LT$$RF$mut$u20$W$u20$as$u20$core..fmt..Write$GT$10write_char17he393b8f7f237d50cE+0x7c>
100009a74: 88 7e 06 53 	lsr	w8, w20, #6
100009a78: 08 05 1a 32 	orr	w8, w8, #0xc0
100009a7c: e8 33 00 39 	strb	w8, [sp, #12]
100009a80: 08 10 80 52 	mov	w8, #128
100009a84: 88 16 00 33 	bfxil	w8, w20, #0, #6
100009a88: e8 37 00 39 	strb	w8, [sp, #13]
100009a8c: 54 00 80 52 	mov	w20, #2
100009a90: 1b 00 00 14 	b	0x100009afc <__ZN50_$LT$$RF$mut$u20$W$u20$as$u20$core..fmt..Write$GT$10write_char17he393b8f7f237d50cE+0xe4>
100009a94: 9f 42 40 71 	cmp	w20, #16, lsl #12       ; =65536
100009a98: 82 01 00 54 	b.hs	0x100009ac8 <__ZN50_$LT$$RF$mut$u20$W$u20$as$u20$core..fmt..Write$GT$10write_char17he393b8f7f237d50cE+0xb0>
100009a9c: 88 7e 0c 53 	lsr	w8, w20, #12
100009aa0: 08 09 1b 32 	orr	w8, w8, #0xe0
100009aa4: e8 33 00 39 	strb	w8, [sp, #12]
100009aa8: 08 10 80 52 	mov	w8, #128
100009aac: 09 10 80 52 	mov	w9, #128
100009ab0: 89 2e 06 33 	bfxil	w9, w20, #6, #6
100009ab4: e9 37 00 39 	strb	w9, [sp, #13]
100009ab8: 88 16 00 33 	bfxil	w8, w20, #0, #6
100009abc: e8 3b 00 39 	strb	w8, [sp, #14]
100009ac0: 74 00 80 52 	mov	w20, #3
100009ac4: 0e 00 00 14 	b	0x100009afc <__ZN50_$LT$$RF$mut$u20$W$u20$as$u20$core..fmt..Write$GT$10write_char17he393b8f7f237d50cE+0xe4>
100009ac8: 08 1e 80 52 	mov	w8, #240
100009acc: 88 52 12 33 	bfxil	w8, w20, #18, #3
100009ad0: e8 33 00 39 	strb	w8, [sp, #12]
100009ad4: 08 10 80 52 	mov	w8, #128
100009ad8: 09 10 80 52 	mov	w9, #128
100009adc: 89 46 0c 33 	bfxil	w9, w20, #12, #6
100009ae0: e9 37 00 39 	strb	w9, [sp, #13]
100009ae4: 09 10 80 52 	mov	w9, #128
100009ae8: 89 2e 06 33 	bfxil	w9, w20, #6, #6
100009aec: e9 3b 00 39 	strb	w9, [sp, #14]
100009af0: 88 16 00 33 	bfxil	w8, w20, #0, #6
100009af4: e8 3f 00 39 	strb	w8, [sp, #15]
100009af8: 94 00 80 52 	mov	w20, #4
100009afc: 75 0a 40 f9 	ldr	x21, [x19, #16]
100009b00: 68 02 40 f9 	ldr	x8, [x19]
100009b04: 08 01 15 cb 	sub	x8, x8, x21
100009b08: 1f 01 14 eb 	cmp	x8, x20
100009b0c: c3 01 00 54 	b.lo	0x100009b44 <__ZN50_$LT$$RF$mut$u20$W$u20$as$u20$core..fmt..Write$GT$10write_char17he393b8f7f237d50cE+0x12c>
100009b10: 68 06 40 f9 	ldr	x8, [x19, #8]
100009b14: 00 01 15 8b 	add	x0, x8, x21
100009b18: e1 33 00 91 	add	x1, sp, #12
100009b1c: e2 03 14 aa 	mov	x2, x20
100009b20: eb af 00 94 	bl	0x100035acc <_writev+0x100035acc>
100009b24: a8 02 14 8b 	add	x8, x21, x20
100009b28: 68 0a 00 f9 	str	x8, [x19, #16]
100009b2c: 00 00 80 52 	mov	w0, #0
100009b30: fd 7b 43 a9 	ldp	x29, x30, [sp, #48]
100009b34: f4 4f 42 a9 	ldp	x20, x19, [sp, #32]
100009b38: f6 57 41 a9 	ldp	x22, x21, [sp, #16]
100009b3c: ff 03 01 91 	add	sp, sp, #64
100009b40: c0 03 5f d6 	ret
100009b44: e0 03 13 aa 	mov	x0, x19
100009b48: e1 03 15 aa 	mov	x1, x21
100009b4c: e2 03 14 aa 	mov	x2, x20
100009b50: 45 ab 00 94 	bl	0x100034864 <__ZN5alloc7raw_vec19RawVec$LT$T$C$A$GT$7reserve21do_reserve_and_handle17hc7ed173096b955cdE>
100009b54: 75 0a 40 f9 	ldr	x21, [x19, #16]
100009b58: ee ff ff 17 	b	0x100009b10 <__ZN50_$LT$$RF$mut$u20$W$u20$as$u20$core..fmt..Write$GT$10write_char17he393b8f7f237d50cE+0xf8>

0000000100009b5c <__ZN50_$LT$$RF$mut$u20$W$u20$as$u20$core..fmt..Write$GT$10write_char17hf39c6f85880d3fe4E>:
100009b5c: fd 7b bf a9 	stp	x29, x30, [sp, #-16]!
100009b60: fd 03 00 91 	mov	x29, sp
100009b64: 00 00 40 f9 	ldr	x0, [x0]
100009b68: 7a ef ff 97 	bl	0x100005950 <__ZN4core3fmt5Write10write_char17h1bb5c994d08c7fafE>
100009b6c: 00 00 80 52 	mov	w0, #0
100009b70: fd 7b c1 a8 	ldp	x29, x30, [sp], #16
100009b74: c0 03 5f d6 	ret

0000000100009b78 <__ZN50_$LT$$RF$mut$u20$W$u20$as$u20$core..fmt..Write$GT$9write_fmt17h0e5cbe99adf7d378E>:
100009b78: ff 43 01 d1 	sub	sp, sp, #80
100009b7c: fd 7b 04 a9 	stp	x29, x30, [sp, #64]
100009b80: fd 03 01 91 	add	x29, sp, #64
100009b84: 08 00 40 f9 	ldr	x8, [x0]
100009b88: e8 07 00 f9 	str	x8, [sp, #8]
100009b8c: 20 04 40 ad 	ldp	q0, q1, [x1]
100009b90: e0 87 00 ad 	stp	q0, q1, [sp, #16]
100009b94: 20 08 c0 3d 	ldr	q0, [x1, #32]
100009b98: e0 0f 80 3d 	str	q0, [sp, #48]
100009b9c: 21 3d 1d 10 	adr	x1, #239524
100009ba0: 1f 20 03 d5 	nop
100009ba4: e0 23 00 91 	add	x0, sp, #8
100009ba8: e2 43 00 91 	add	x2, sp, #16
100009bac: 8a 91 00 94 	bl	0x10002e1d4 <__ZN4core3fmt5write17hc60df9bae744c40cE>
100009bb0: fd 7b 44 a9 	ldp	x29, x30, [sp, #64]
100009bb4: ff 43 01 91 	add	sp, sp, #80
100009bb8: c0 03 5f d6 	ret

0000000100009bbc <__ZN50_$LT$$RF$mut$u20$W$u20$as$u20$core..fmt..Write$GT$9write_fmt17h7d4b08990f6cb7a3E>:
100009bbc: ff 43 01 d1 	sub	sp, sp, #80
100009bc0: fd 7b 04 a9 	stp	x29, x30, [sp, #64]
100009bc4: fd 03 01 91 	add	x29, sp, #64
100009bc8: 08 00 40 f9 	ldr	x8, [x0]
100009bcc: e8 07 00 f9 	str	x8, [sp, #8]
100009bd0: 20 04 40 ad 	ldp	q0, q1, [x1]
100009bd4: e0 87 00 ad 	stp	q0, q1, [sp, #16]
100009bd8: 20 08 c0 3d 	ldr	q0, [x1, #32]
100009bdc: e0 0f 80 3d 	str	q0, [sp, #48]
100009be0: 01 38 1d 10 	adr	x1, #239360
100009be4: 1f 20 03 d5 	nop
100009be8: e0 23 00 91 	add	x0, sp, #8
100009bec: e2 43 00 91 	add	x2, sp, #16
100009bf0: 79 91 00 94 	bl	0x10002e1d4 <__ZN4core3fmt5write17hc60df9bae744c40cE>
100009bf4: fd 7b 44 a9 	ldp	x29, x30, [sp, #64]
100009bf8: ff 43 01 91 	add	sp, sp, #80
100009bfc: c0 03 5f d6 	ret

0000000100009c00 <__ZN50_$LT$$RF$mut$u20$W$u20$as$u20$core..fmt..Write$GT$9write_fmt17hc6445fd7ecc6bff7E>:
100009c00: ff 43 01 d1 	sub	sp, sp, #80
100009c04: fd 7b 04 a9 	stp	x29, x30, [sp, #64]
100009c08: fd 03 01 91 	add	x29, sp, #64
100009c0c: 08 00 40 f9 	ldr	x8, [x0]
100009c10: e8 07 00 f9 	str	x8, [sp, #8]
100009c14: 20 04 40 ad 	ldp	q0, q1, [x1]
100009c18: e0 87 00 ad 	stp	q0, q1, [sp, #16]
100009c1c: 20 08 c0 3d 	ldr	q0, [x1, #32]
100009c20: e0 0f 80 3d 	str	q0, [sp, #48]
100009c24: 61 37 1d 10 	adr	x1, #239340
100009c28: 1f 20 03 d5 	nop
100009c2c: e0 23 00 91 	add	x0, sp, #8
100009c30: e2 43 00 91 	add	x2, sp, #16
100009c34: 68 91 00 94 	bl	0x10002e1d4 <__ZN4core3fmt5write17hc60df9bae744c40cE>
100009c38: fd 7b 44 a9 	ldp	x29, x30, [sp, #64]
100009c3c: ff 43 01 91 	add	sp, sp, #80
100009c40: c0 03 5f d6 	ret

0000000100009c44 <__ZN50_$LT$$RF$mut$u20$W$u20$as$u20$core..fmt..Write$GT$9write_str17h13951ef5d529028fE>:
100009c44: 00 00 40 f9 	ldr	x0, [x0]
100009c48: a4 43 00 14 	b	0x10001aad8 <__ZN80_$LT$std..io..Write..write_fmt..Adapter$LT$T$GT$$u20$as$u20$core..fmt..Write$GT$9write_str17h078d52d14f82e3afE>

0000000100009c4c <__ZN50_$LT$$RF$mut$u20$W$u20$as$u20$core..fmt..Write$GT$9write_str17h886763b3e527dfddE>:
100009c4c: f6 57 bd a9 	stp	x22, x21, [sp, #-48]!
100009c50: f4 4f 01 a9 	stp	x20, x19, [sp, #16]
100009c54: fd 7b 02 a9 	stp	x29, x30, [sp, #32]
100009c58: fd 83 00 91 	add	x29, sp, #32
100009c5c: f3 03 02 aa 	mov	x19, x2
100009c60: f5 03 01 aa 	mov	x21, x1
100009c64: 14 00 40 f9 	ldr	x20, [x0]
100009c68: 96 0a 40 f9 	ldr	x22, [x20, #16]
100009c6c: 88 02 40 f9 	ldr	x8, [x20]
100009c70: 08 01 16 cb 	sub	x8, x8, x22
100009c74: 1f 01 02 eb 	cmp	x8, x2
100009c78: a3 01 00 54 	b.lo	0x100009cac <__ZN50_$LT$$RF$mut$u20$W$u20$as$u20$core..fmt..Write$GT$9write_str17h886763b3e527dfddE+0x60>
100009c7c: 88 06 40 f9 	ldr	x8, [x20, #8]
100009c80: 00 01 16 8b 	add	x0, x8, x22
100009c84: e1 03 15 aa 	mov	x1, x21
100009c88: e2 03 13 aa 	mov	x2, x19
100009c8c: 90 af 00 94 	bl	0x100035acc <_writev+0x100035acc>
100009c90: c8 02 13 8b 	add	x8, x22, x19
100009c94: 88 0a 00 f9 	str	x8, [x20, #16]
100009c98: 00 00 80 52 	mov	w0, #0
100009c9c: fd 7b 42 a9 	ldp	x29, x30, [sp, #32]
100009ca0: f4 4f 41 a9 	ldp	x20, x19, [sp, #16]
100009ca4: f6 57 c3 a8 	ldp	x22, x21, [sp], #48
100009ca8: c0 03 5f d6 	ret
100009cac: e0 03 14 aa 	mov	x0, x20
100009cb0: e1 03 16 aa 	mov	x1, x22
100009cb4: e2 03 13 aa 	mov	x2, x19
100009cb8: eb aa 00 94 	bl	0x100034864 <__ZN5alloc7raw_vec19RawVec$LT$T$C$A$GT$7reserve21do_reserve_and_handle17hc7ed173096b955cdE>
100009cbc: 96 0a 40 f9 	ldr	x22, [x20, #16]
100009cc0: ef ff ff 17 	b	0x100009c7c <__ZN50_$LT$$RF$mut$u20$W$u20$as$u20$core..fmt..Write$GT$9write_str17h886763b3e527dfddE+0x30>

0000000100009cc4 <__ZN50_$LT$$RF$mut$u20$W$u20$as$u20$core..fmt..Write$GT$9write_str17hdea6ca2ef8a75875E>:
100009cc4: f6 57 bd a9 	stp	x22, x21, [sp, #-48]!
100009cc8: f4 4f 01 a9 	stp	x20, x19, [sp, #16]
100009ccc: fd 7b 02 a9 	stp	x29, x30, [sp, #32]
100009cd0: fd 83 00 91 	add	x29, sp, #32
100009cd4: f3 03 02 aa 	mov	x19, x2
100009cd8: f5 03 01 aa 	mov	x21, x1
100009cdc: 08 00 40 f9 	ldr	x8, [x0]
100009ce0: 14 05 40 f9 	ldr	x20, [x8, #8]
100009ce4: 96 0a 40 f9 	ldr	x22, [x20, #16]
100009ce8: 88 02 40 f9 	ldr	x8, [x20]
100009cec: 08 01 16 cb 	sub	x8, x8, x22
100009cf0: 1f 01 02 eb 	cmp	x8, x2
100009cf4: a3 01 00 54 	b.lo	0x100009d28 <__ZN50_$LT$$RF$mut$u20$W$u20$as$u20$core..fmt..Write$GT$9write_str17hdea6ca2ef8a75875E+0x64>
100009cf8: 88 06 40 f9 	ldr	x8, [x20, #8]
100009cfc: 00 01 16 8b 	add	x0, x8, x22
100009d00: e1 03 15 aa 	mov	x1, x21
100009d04: e2 03 13 aa 	mov	x2, x19
100009d08: 71 af 00 94 	bl	0x100035acc <_writev+0x100035acc>
100009d0c: c8 02 13 8b 	add	x8, x22, x19
100009d10: 88 0a 00 f9 	str	x8, [x20, #16]
100009d14: 00 00 80 52 	mov	w0, #0
100009d18: fd 7b 42 a9 	ldp	x29, x30, [sp, #32]
100009d1c: f4 4f 41 a9 	ldp	x20, x19, [sp, #16]
100009d20: f6 57 c3 a8 	ldp	x22, x21, [sp], #48
100009d24: c0 03 5f d6 	ret
100009d28: e0 03 14 aa 	mov	x0, x20
100009d2c: e1 03 16 aa 	mov	x1, x22
100009d30: e2 03 13 aa 	mov	x2, x19
100009d34: cc aa 00 94 	bl	0x100034864 <__ZN5alloc7raw_vec19RawVec$LT$T$C$A$GT$7reserve21do_reserve_and_handle17hc7ed173096b955cdE>
100009d38: 96 0a 40 f9 	ldr	x22, [x20, #16]
100009d3c: ef ff ff 17 	b	0x100009cf8 <__ZN50_$LT$$RF$mut$u20$W$u20$as$u20$core..fmt..Write$GT$9write_str17hdea6ca2ef8a75875E+0x34>

0000000100009d40 <__ZN55_$LT$$RF$str$u20$as$u20$core..str..pattern..Pattern$GT$15is_contained_in17h0f2e3490da8cc1d3E>:
100009d40: ff 43 02 d1 	sub	sp, sp, #144
100009d44: f4 4f 07 a9 	stp	x20, x19, [sp, #112]
100009d48: fd 7b 08 a9 	stp	x29, x30, [sp, #128]
100009d4c: fd 03 02 91 	add	x29, sp, #128
100009d50: ea 03 01 aa 	mov	x10, x1
100009d54: e9 03 00 aa 	mov	x9, x0
100009d58: 3f 00 03 eb 	cmp	x1, x3
100009d5c: 02 03 00 54 	b.hs	0x100009dbc <__ZN55_$LT$$RF$str$u20$as$u20$core..str..pattern..Pattern$GT$15is_contained_in17h0f2e3490da8cc1d3E+0x7c>
100009d60: e8 23 00 91 	add	x8, sp, #8
100009d64: e0 03 02 aa 	mov	x0, x2
100009d68: e1 03 03 aa 	mov	x1, x3
100009d6c: e2 03 09 aa 	mov	x2, x9
100009d70: e3 03 0a aa 	mov	x3, x10
100009d74: 55 9a 00 94 	bl	0x1000306c8 <__ZN4core3str7pattern11StrSearcher3new17h7a732bb0bf1ebf89E>
100009d78: e8 17 40 f9 	ldr	x8, [sp, #40]
100009d7c: c8 08 00 b4 	cbz	x8, 0x100009e94 <__ZN55_$LT$$RF$str$u20$as$u20$core..str..pattern..Pattern$GT$15is_contained_in17h0f2e3490da8cc1d3E+0x154>
100009d80: ec 33 40 f9 	ldr	x12, [sp, #96]
100009d84: ea 87 40 a9 	ldp	x10, x1, [sp, #8]
100009d88: eb a3 41 a9 	ldp	x11, x8, [sp, #24]
100009d8c: 9f 05 00 b1 	cmn	x12, #1
100009d90: e0 0f 00 54 	b.eq	0x100009f8c <__ZN55_$LT$$RF$str$u20$as$u20$core..str..pattern..Pattern$GT$15is_contained_in17h0f2e3490da8cc1d3E+0x24c>
100009d94: ed 2b 40 f9 	ldr	x13, [sp, #80]
100009d98: 0e 05 00 d1 	sub	x14, x8, #1
100009d9c: c9 01 0d 8b 	add	x9, x14, x13
100009da0: 3f 01 01 eb 	cmp	x9, x1
100009da4: c2 16 00 54 	b.hs	0x10000a07c <__ZN55_$LT$$RF$str$u20$as$u20$core..str..pattern..Pattern$GT$15is_contained_in17h0f2e3490da8cc1d3E+0x33c>
100009da8: f1 3f 44 a9 	ldp	x17, x15, [sp, #64]
100009dac: f0 1b 40 f9 	ldr	x16, [sp, #48]
100009db0: 02 01 11 cb 	sub	x2, x8, x17
100009db4: 03 06 00 d1 	sub	x3, x16, #1
100009db8: 0e 00 00 14 	b	0x100009df0 <__ZN55_$LT$$RF$str$u20$as$u20$core..str..pattern..Pattern$GT$15is_contained_in17h0f2e3490da8cc1d3E+0xb0>
100009dbc: 01 16 00 54 	b.ne	0x10000a07c <__ZN55_$LT$$RF$str$u20$as$u20$core..str..pattern..Pattern$GT$15is_contained_in17h0f2e3490da8cc1d3E+0x33c>
100009dc0: e0 03 09 aa 	mov	x0, x9
100009dc4: e1 03 02 aa 	mov	x1, x2
100009dc8: e2 03 0a aa 	mov	x2, x10
100009dcc: 3d af 00 94 	bl	0x100035ac0 <_writev+0x100035ac0>
100009dd0: 1f 00 00 71 	cmp	w0, #0
100009dd4: e0 17 9f 1a 	cset	w0, eq
100009dd8: aa 00 00 14 	b	0x10000a080 <__ZN55_$LT$$RF$str$u20$as$u20$core..str..pattern..Pattern$GT$15is_contained_in17h0f2e3490da8cc1d3E+0x340>
100009ddc: 0c 00 80 d2 	mov	x12, #0
100009de0: ad 01 08 8b 	add	x13, x13, x8
100009de4: c9 01 0d 8b 	add	x9, x14, x13
100009de8: 3f 01 01 eb 	cmp	x9, x1
100009dec: 22 15 00 54 	b.hs	0x10000a090 <__ZN55_$LT$$RF$str$u20$as$u20$core..str..pattern..Pattern$GT$15is_contained_in17h0f2e3490da8cc1d3E+0x350>
100009df0: 49 69 69 38 	ldrb	w9, [x10, x9]
100009df4: e9 25 c9 9a 	lsr	x9, x15, x9
100009df8: 29 ff 07 36 	tbz	w9, #0, 0x100009ddc <__ZN55_$LT$$RF$str$u20$as$u20$core..str..pattern..Pattern$GT$15is_contained_in17h0f2e3490da8cc1d3E+0x9c>
100009dfc: 1f 02 0c eb 	cmp	x16, x12
100009e00: 09 82 8c 9a 	csel	x9, x16, x12, hi
100009e04: 60 01 09 8b 	add	x0, x11, x9
100009e08: a6 01 09 8b 	add	x6, x13, x9
100009e0c: 04 01 09 eb 	subs	x4, x8, x9
100009e10: e4 33 84 9a 	csel	x4, xzr, x4, lo
100009e14: c4 01 00 b4 	cbz	x4, 0x100009e4c <__ZN55_$LT$$RF$str$u20$as$u20$core..str..pattern..Pattern$GT$15is_contained_in17h0f2e3490da8cc1d3E+0x10c>
100009e18: e5 03 06 aa 	mov	x5, x6
100009e1c: df 00 01 eb 	cmp	x6, x1
100009e20: 02 14 00 54 	b.hs	0x10000a0a0 <__ZN55_$LT$$RF$str$u20$as$u20$core..str..pattern..Pattern$GT$15is_contained_in17h0f2e3490da8cc1d3E+0x360>
100009e24: 07 14 40 38 	ldrb	w7, [x0], #1
100009e28: 53 69 65 38 	ldrb	w19, [x10, x5]
100009e2c: a6 04 00 91 	add	x6, x5, #1
100009e30: 84 04 00 d1 	sub	x4, x4, #1
100009e34: ff 00 13 6b 	cmp	w7, w19
100009e38: e0 fe ff 54 	b.eq	0x100009e14 <__ZN55_$LT$$RF$str$u20$as$u20$core..str..pattern..Pattern$GT$15is_contained_in17h0f2e3490da8cc1d3E+0xd4>
100009e3c: 0c 00 80 d2 	mov	x12, #0
100009e40: a9 00 10 cb 	sub	x9, x5, x16
100009e44: 2d 05 00 91 	add	x13, x9, #1
100009e48: e7 ff ff 17 	b	0x100009de4 <__ZN55_$LT$$RF$str$u20$as$u20$core..str..pattern..Pattern$GT$15is_contained_in17h0f2e3490da8cc1d3E+0xa4>
100009e4c: 44 01 0d 8b 	add	x4, x10, x13
100009e50: e0 03 03 aa 	mov	x0, x3
100009e54: 09 04 00 91 	add	x9, x0, #1
100009e58: 9f 01 09 eb 	cmp	x12, x9
100009e5c: 02 10 00 54 	b.hs	0x10000a05c <__ZN55_$LT$$RF$str$u20$as$u20$core..str..pattern..Pattern$GT$15is_contained_in17h0f2e3490da8cc1d3E+0x31c>
100009e60: 1f 00 08 eb 	cmp	x0, x8
100009e64: 22 12 00 54 	b.hs	0x10000a0a8 <__ZN55_$LT$$RF$str$u20$as$u20$core..str..pattern..Pattern$GT$15is_contained_in17h0f2e3490da8cc1d3E+0x368>
100009e68: a9 01 00 8b 	add	x9, x13, x0
100009e6c: 3f 01 01 eb 	cmp	x9, x1
100009e70: 42 12 00 54 	b.hs	0x10000a0b8 <__ZN55_$LT$$RF$str$u20$as$u20$core..str..pattern..Pattern$GT$15is_contained_in17h0f2e3490da8cc1d3E+0x378>
100009e74: 69 69 60 38 	ldrb	w9, [x11, x0]
100009e78: 85 68 60 38 	ldrb	w5, [x4, x0]
100009e7c: 00 04 00 d1 	sub	x0, x0, #1
100009e80: 3f 01 05 6b 	cmp	w9, w5
100009e84: 80 fe ff 54 	b.eq	0x100009e54 <__ZN55_$LT$$RF$str$u20$as$u20$core..str..pattern..Pattern$GT$15is_contained_in17h0f2e3490da8cc1d3E+0x114>
100009e88: ad 01 11 8b 	add	x13, x13, x17
100009e8c: ec 03 02 aa 	mov	x12, x2
100009e90: d5 ff ff 17 	b	0x100009de4 <__ZN55_$LT$$RF$str$u20$as$u20$core..str..pattern..Pattern$GT$15is_contained_in17h0f2e3490da8cc1d3E+0xa4>
100009e94: e8 0b 41 39 	ldrb	w8, [sp, #66]
100009e98: 28 0f 00 35 	cbnz	w8, 0x10000a07c <__ZN55_$LT$$RF$str$u20$as$u20$core..str..pattern..Pattern$GT$15is_contained_in17h0f2e3490da8cc1d3E+0x33c>
100009e9c: e0 87 40 a9 	ldp	x0, x1, [sp, #8]
100009ea0: e8 03 41 39 	ldrb	w8, [sp, #64]
100009ea4: e2 1b 40 f9 	ldr	x2, [sp, #48]
100009ea8: 1f 01 00 71 	cmp	w8, #0
100009eac: e9 17 9f 1a 	cset	w9, eq
100009eb0: 68 00 80 52 	mov	w8, #3
100009eb4: 04 00 00 14 	b	0x100009ec4 <__ZN55_$LT$$RF$str$u20$as$u20$core..str..pattern..Pattern$GT$15is_contained_in17h0f2e3490da8cc1d3E+0x184>
100009eb8: 2a 00 80 52 	mov	w10, #1
100009ebc: 09 00 80 52 	mov	w9, #0
100009ec0: 42 01 02 8b 	add	x2, x10, x2
100009ec4: 02 01 00 b4 	cbz	x2, 0x100009ee4 <__ZN55_$LT$$RF$str$u20$as$u20$core..str..pattern..Pattern$GT$15is_contained_in17h0f2e3490da8cc1d3E+0x1a4>
100009ec8: 3f 00 02 eb 	cmp	x1, x2
100009ecc: a9 00 00 54 	b.ls	0x100009ee0 <__ZN55_$LT$$RF$str$u20$as$u20$core..str..pattern..Pattern$GT$15is_contained_in17h0f2e3490da8cc1d3E+0x1a0>
100009ed0: 0a 68 e2 38 	ldrsb	w10, [x0, x2]
100009ed4: 5f 01 01 31 	cmn	w10, #64
100009ed8: 6a 00 00 54 	b.ge	0x100009ee4 <__ZN55_$LT$$RF$str$u20$as$u20$core..str..pattern..Pattern$GT$15is_contained_in17h0f2e3490da8cc1d3E+0x1a4>
100009edc: 81 00 00 14 	b	0x10000a0e0 <__ZN55_$LT$$RF$str$u20$as$u20$core..str..pattern..Pattern$GT$15is_contained_in17h0f2e3490da8cc1d3E+0x3a0>
100009ee0: 01 10 00 54 	b.ne	0x10000a0e0 <__ZN55_$LT$$RF$str$u20$as$u20$core..str..pattern..Pattern$GT$15is_contained_in17h0f2e3490da8cc1d3E+0x3a0>
100009ee4: 5f 00 01 eb 	cmp	x2, x1
100009ee8: 20 0c 00 54 	b.eq	0x10000a06c <__ZN55_$LT$$RF$str$u20$as$u20$core..str..pattern..Pattern$GT$15is_contained_in17h0f2e3490da8cc1d3E+0x32c>
100009eec: 0c 00 02 8b 	add	x12, x0, x2
100009ef0: 8a 01 c0 39 	ldrsb	w10, [x12]
100009ef4: 4d 1d 00 12 	and	w13, w10, #0xff
100009ef8: 8a 00 f8 37 	tbnz	w10, #31, 0x100009f08 <__ZN55_$LT$$RF$str$u20$as$u20$core..str..pattern..Pattern$GT$15is_contained_in17h0f2e3490da8cc1d3E+0x1c8>
100009efc: ea 03 0d aa 	mov	x10, x13
100009f00: 09 03 00 37 	tbnz	w9, #0, 0x100009f60 <__ZN55_$LT$$RF$str$u20$as$u20$core..str..pattern..Pattern$GT$15is_contained_in17h0f2e3490da8cc1d3E+0x220>
100009f04: 5b 00 00 14 	b	0x10000a070 <__ZN55_$LT$$RF$str$u20$as$u20$core..str..pattern..Pattern$GT$15is_contained_in17h0f2e3490da8cc1d3E+0x330>
100009f08: ab 11 00 12 	and	w11, w13, #0x1f
100009f0c: 8a 05 40 39 	ldrb	w10, [x12, #1]
100009f10: 4a 15 00 12 	and	w10, w10, #0x3f
100009f14: bf 81 03 71 	cmp	w13, #224
100009f18: 83 01 00 54 	b.lo	0x100009f48 <__ZN55_$LT$$RF$str$u20$as$u20$core..str..pattern..Pattern$GT$15is_contained_in17h0f2e3490da8cc1d3E+0x208>
100009f1c: 8e 09 40 39 	ldrb	w14, [x12, #2]
100009f20: ce 15 00 12 	and	w14, w14, #0x3f
100009f24: 4e 15 1a 33 	bfi	w14, w10, #6, #6
100009f28: bf c1 03 71 	cmp	w13, #240
100009f2c: 43 01 00 54 	b.lo	0x100009f54 <__ZN55_$LT$$RF$str$u20$as$u20$core..str..pattern..Pattern$GT$15is_contained_in17h0f2e3490da8cc1d3E+0x214>
100009f30: 8a 0d 40 39 	ldrb	w10, [x12, #3]
100009f34: 4a 15 00 12 	and	w10, w10, #0x3f
100009f38: ca 2d 1a 33 	bfi	w10, w14, #6, #12
100009f3c: 6a 09 0e 33 	bfi	w10, w11, #18, #3
100009f40: 09 01 00 37 	tbnz	w9, #0, 0x100009f60 <__ZN55_$LT$$RF$str$u20$as$u20$core..str..pattern..Pattern$GT$15is_contained_in17h0f2e3490da8cc1d3E+0x220>
100009f44: 4b 00 00 14 	b	0x10000a070 <__ZN55_$LT$$RF$str$u20$as$u20$core..str..pattern..Pattern$GT$15is_contained_in17h0f2e3490da8cc1d3E+0x330>
100009f48: 6a 11 1a 33 	bfi	w10, w11, #6, #5
100009f4c: a9 00 00 37 	tbnz	w9, #0, 0x100009f60 <__ZN55_$LT$$RF$str$u20$as$u20$core..str..pattern..Pattern$GT$15is_contained_in17h0f2e3490da8cc1d3E+0x220>
100009f50: 48 00 00 14 	b	0x10000a070 <__ZN55_$LT$$RF$str$u20$as$u20$core..str..pattern..Pattern$GT$15is_contained_in17h0f2e3490da8cc1d3E+0x330>
100009f54: 6e 11 14 33 	bfi	w14, w11, #12, #5
100009f58: ea 03 0e aa 	mov	x10, x14
100009f5c: a9 08 00 36 	tbz	w9, #0, 0x10000a070 <__ZN55_$LT$$RF$str$u20$as$u20$core..str..pattern..Pattern$GT$15is_contained_in17h0f2e3490da8cc1d3E+0x330>
100009f60: 5f 41 44 71 	cmp	w10, #272, lsl #12      ; =1114112
100009f64: a0 08 00 54 	b.eq	0x10000a078 <__ZN55_$LT$$RF$str$u20$as$u20$core..str..pattern..Pattern$GT$15is_contained_in17h0f2e3490da8cc1d3E+0x338>
100009f68: 5f 01 02 71 	cmp	w10, #128
100009f6c: 63 fa ff 54 	b.lo	0x100009eb8 <__ZN55_$LT$$RF$str$u20$as$u20$core..str..pattern..Pattern$GT$15is_contained_in17h0f2e3490da8cc1d3E+0x178>
100009f70: 5f 01 20 71 	cmp	w10, #2048
100009f74: 62 00 00 54 	b.hs	0x100009f80 <__ZN55_$LT$$RF$str$u20$as$u20$core..str..pattern..Pattern$GT$15is_contained_in17h0f2e3490da8cc1d3E+0x240>
100009f78: 4a 00 80 52 	mov	w10, #2
100009f7c: d0 ff ff 17 	b	0x100009ebc <__ZN55_$LT$$RF$str$u20$as$u20$core..str..pattern..Pattern$GT$15is_contained_in17h0f2e3490da8cc1d3E+0x17c>
100009f80: 5f 41 40 71 	cmp	w10, #16, lsl #12       ; =65536
100009f84: 0a 35 88 9a 	cinc	x10, x8, hs
100009f88: cd ff ff 17 	b	0x100009ebc <__ZN55_$LT$$RF$str$u20$as$u20$core..str..pattern..Pattern$GT$15is_contained_in17h0f2e3490da8cc1d3E+0x17c>
100009f8c: ec 2b 40 f9 	ldr	x12, [sp, #80]
100009f90: 0d 05 00 d1 	sub	x13, x8, #1
100009f94: a9 01 0c 8b 	add	x9, x13, x12
100009f98: 3f 01 01 eb 	cmp	x9, x1
100009f9c: 02 07 00 54 	b.hs	0x10000a07c <__ZN55_$LT$$RF$str$u20$as$u20$core..str..pattern..Pattern$GT$15is_contained_in17h0f2e3490da8cc1d3E+0x33c>
100009fa0: f0 3f 44 a9 	ldp	x16, x15, [sp, #64]
100009fa4: ee 1b 40 f9 	ldr	x14, [sp, #48]
100009fa8: d1 05 00 d1 	sub	x17, x14, #1
100009fac: 62 01 0e 8b 	add	x2, x11, x14
100009fb0: 00 01 0e eb 	subs	x0, x8, x14
100009fb4: e3 33 80 9a 	csel	x3, xzr, x0, lo
100009fb8: 06 00 00 14 	b	0x100009fd0 <__ZN55_$LT$$RF$str$u20$as$u20$core..str..pattern..Pattern$GT$15is_contained_in17h0f2e3490da8cc1d3E+0x290>
100009fbc: 8c 01 08 8b 	add	x12, x12, x8
100009fc0: 00 00 80 52 	mov	w0, #0
100009fc4: a9 01 0c 8b 	add	x9, x13, x12
100009fc8: 3f 01 01 eb 	cmp	x9, x1
100009fcc: a2 05 00 54 	b.hs	0x10000a080 <__ZN55_$LT$$RF$str$u20$as$u20$core..str..pattern..Pattern$GT$15is_contained_in17h0f2e3490da8cc1d3E+0x340>
100009fd0: 49 69 69 38 	ldrb	w9, [x10, x9]
100009fd4: e9 25 c9 9a 	lsr	x9, x15, x9
100009fd8: 29 ff 07 36 	tbz	w9, #0, 0x100009fbc <__ZN55_$LT$$RF$str$u20$as$u20$core..str..pattern..Pattern$GT$15is_contained_in17h0f2e3490da8cc1d3E+0x27c>
100009fdc: c5 01 0c 8b 	add	x5, x14, x12
100009fe0: e9 03 03 aa 	mov	x9, x3
100009fe4: e0 03 02 aa 	mov	x0, x2
100009fe8: a9 01 00 b4 	cbz	x9, 0x10000a01c <__ZN55_$LT$$RF$str$u20$as$u20$core..str..pattern..Pattern$GT$15is_contained_in17h0f2e3490da8cc1d3E+0x2dc>
100009fec: e4 03 05 aa 	mov	x4, x5
100009ff0: bf 00 01 eb 	cmp	x5, x1
100009ff4: a2 06 00 54 	b.hs	0x10000a0c8 <__ZN55_$LT$$RF$str$u20$as$u20$core..str..pattern..Pattern$GT$15is_contained_in17h0f2e3490da8cc1d3E+0x388>
100009ff8: 06 14 40 38 	ldrb	w6, [x0], #1
100009ffc: 47 69 64 38 	ldrb	w7, [x10, x4]
10000a000: 85 04 00 91 	add	x5, x4, #1
10000a004: 29 05 00 d1 	sub	x9, x9, #1
10000a008: df 00 07 6b 	cmp	w6, w7
10000a00c: e0 fe ff 54 	b.eq	0x100009fe8 <__ZN55_$LT$$RF$str$u20$as$u20$core..str..pattern..Pattern$GT$15is_contained_in17h0f2e3490da8cc1d3E+0x2a8>
10000a010: 89 00 0e cb 	sub	x9, x4, x14
10000a014: 2c 05 00 91 	add	x12, x9, #1
10000a018: ea ff ff 17 	b	0x100009fc0 <__ZN55_$LT$$RF$str$u20$as$u20$core..str..pattern..Pattern$GT$15is_contained_in17h0f2e3490da8cc1d3E+0x280>
10000a01c: 44 01 0c 8b 	add	x4, x10, x12
10000a020: e0 03 11 aa 	mov	x0, x17
10000a024: 1f 04 00 b1 	cmn	x0, #1
10000a028: 40 02 00 54 	b.eq	0x10000a070 <__ZN55_$LT$$RF$str$u20$as$u20$core..str..pattern..Pattern$GT$15is_contained_in17h0f2e3490da8cc1d3E+0x330>
10000a02c: 3f 02 08 eb 	cmp	x17, x8
10000a030: c2 03 00 54 	b.hs	0x10000a0a8 <__ZN55_$LT$$RF$str$u20$as$u20$core..str..pattern..Pattern$GT$15is_contained_in17h0f2e3490da8cc1d3E+0x368>
10000a034: 89 01 00 8b 	add	x9, x12, x0
10000a038: 3f 01 01 eb 	cmp	x9, x1
10000a03c: e2 03 00 54 	b.hs	0x10000a0b8 <__ZN55_$LT$$RF$str$u20$as$u20$core..str..pattern..Pattern$GT$15is_contained_in17h0f2e3490da8cc1d3E+0x378>
10000a040: 69 69 60 38 	ldrb	w9, [x11, x0]
10000a044: 85 68 60 38 	ldrb	w5, [x4, x0]
10000a048: 00 04 00 d1 	sub	x0, x0, #1
10000a04c: 3f 01 05 6b 	cmp	w9, w5
10000a050: a0 fe ff 54 	b.eq	0x10000a024 <__ZN55_$LT$$RF$str$u20$as$u20$core..str..pattern..Pattern$GT$15is_contained_in17h0f2e3490da8cc1d3E+0x2e4>
10000a054: 8c 01 10 8b 	add	x12, x12, x16
10000a058: da ff ff 17 	b	0x100009fc0 <__ZN55_$LT$$RF$str$u20$as$u20$core..str..pattern..Pattern$GT$15is_contained_in17h0f2e3490da8cc1d3E+0x280>
10000a05c: ed 2b 00 f9 	str	x13, [sp, #80]
10000a060: ec 33 00 f9 	str	x12, [sp, #96]
10000a064: 20 00 80 52 	mov	w0, #1
10000a068: 06 00 00 14 	b	0x10000a080 <__ZN55_$LT$$RF$str$u20$as$u20$core..str..pattern..Pattern$GT$15is_contained_in17h0f2e3490da8cc1d3E+0x340>
10000a06c: 89 00 00 37 	tbnz	w9, #0, 0x10000a07c <__ZN55_$LT$$RF$str$u20$as$u20$core..str..pattern..Pattern$GT$15is_contained_in17h0f2e3490da8cc1d3E+0x33c>
10000a070: 20 00 80 52 	mov	w0, #1
10000a074: 03 00 00 14 	b	0x10000a080 <__ZN55_$LT$$RF$str$u20$as$u20$core..str..pattern..Pattern$GT$15is_contained_in17h0f2e3490da8cc1d3E+0x340>
10000a078: e2 1b 00 f9 	str	x2, [sp, #48]
10000a07c: 00 00 80 52 	mov	w0, #0
10000a080: fd 7b 48 a9 	ldp	x29, x30, [sp, #128]
10000a084: f4 4f 47 a9 	ldp	x20, x19, [sp, #112]
10000a088: ff 43 02 91 	add	sp, sp, #144
10000a08c: c0 03 5f d6 	ret
10000a090: 00 00 80 52 	mov	w0, #0
10000a094: ed 2b 00 f9 	str	x13, [sp, #80]
10000a098: ec 33 00 f9 	str	x12, [sp, #96]
10000a09c: f9 ff ff 17 	b	0x10000a080 <__ZN55_$LT$$RF$str$u20$as$u20$core..str..pattern..Pattern$GT$15is_contained_in17h0f2e3490da8cc1d3E+0x340>
10000a0a0: a8 01 09 8b 	add	x8, x13, x9
10000a0a4: 0a 00 00 14 	b	0x10000a0cc <__ZN55_$LT$$RF$str$u20$as$u20$core..str..pattern..Pattern$GT$15is_contained_in17h0f2e3490da8cc1d3E+0x38c>
10000a0a8: 02 17 1d 10 	adr	x2, #238304
10000a0ac: 1f 20 03 d5 	nop
10000a0b0: e1 03 08 aa 	mov	x1, x8
10000a0b4: 81 ad 00 94 	bl	0x1000356b8 <__ZN4core9panicking18panic_bounds_check17h1da87a8a2503e657E>
10000a0b8: 42 17 1d 10 	adr	x2, #238312
10000a0bc: 1f 20 03 d5 	nop
10000a0c0: e0 03 09 aa 	mov	x0, x9
10000a0c4: 7d ad 00 94 	bl	0x1000356b8 <__ZN4core9panicking18panic_bounds_check17h1da87a8a2503e657E>
10000a0c8: 88 01 0e 8b 	add	x8, x12, x14
10000a0cc: 3f 00 08 eb 	cmp	x1, x8
10000a0d0: 20 80 88 9a 	csel	x0, x1, x8, hi
10000a0d4: e2 14 1d 10 	adr	x2, #238236
10000a0d8: 1f 20 03 d5 	nop
10000a0dc: 77 ad 00 94 	bl	0x1000356b8 <__ZN4core9panicking18panic_bounds_check17h1da87a8a2503e657E>
10000a0e0: 04 32 1d 10 	adr	x4, #239168
10000a0e4: 1f 20 03 d5 	nop
10000a0e8: e3 03 01 aa 	mov	x3, x1
10000a0ec: 09 ae 00 94 	bl	0x100035910 <__ZN4core3str16slice_error_fail17h3c3209c829734ad8E>

000000010000a0f0 <__ZN58_$LT$alloc..string..String$u20$as$u20$core..fmt..Debug$GT$3fmt17h0a0cc0540b9b6df6E>:
10000a0f0: e2 03 01 aa 	mov	x2, x1
10000a0f4: 08 84 40 a9 	ldp	x8, x1, [x0, #8]
10000a0f8: e0 03 08 aa 	mov	x0, x8
10000a0fc: 20 94 00 14 	b	0x10002f17c <__ZN40_$LT$str$u20$as$u20$core..fmt..Debug$GT$3fmt17h8431fe4c96e3375aE>

000000010000a100 <__ZN5alloc11collections5btree3map25IntoIter$LT$K$C$V$C$A$GT$10dying_next17hf4721a95892db42fE>:
10000a100: ff 83 01 d1 	sub	sp, sp, #96
10000a104: fa 67 01 a9 	stp	x26, x25, [sp, #16]
10000a108: f8 5f 02 a9 	stp	x24, x23, [sp, #32]
10000a10c: f6 57 03 a9 	stp	x22, x21, [sp, #48]
10000a110: f4 4f 04 a9 	stp	x20, x19, [sp, #64]
10000a114: fd 7b 05 a9 	stp	x29, x30, [sp, #80]
10000a118: fd 43 01 91 	add	x29, sp, #80
10000a11c: f4 03 01 aa 	mov	x20, x1
10000a120: f3 03 00 aa 	mov	x19, x0
10000a124: 28 20 40 f9 	ldr	x8, [x1, #64]
10000a128: 88 04 00 b4 	cbz	x8, 0x10000a1b8 <__ZN5alloc11collections5btree3map25IntoIter$LT$K$C$V$C$A$GT$10dying_next17hf4721a95892db42fE+0xb8>
10000a12c: 08 05 00 d1 	sub	x8, x8, #1
10000a130: 88 22 00 f9 	str	x8, [x20, #64]
10000a134: 88 02 40 f9 	ldr	x8, [x20]
10000a138: 28 05 00 b4 	cbz	x8, 0x10000a1dc <__ZN5alloc11collections5btree3map25IntoIter$LT$K$C$V$C$A$GT$10dying_next17hf4721a95892db42fE+0xdc>
10000a13c: 1f 09 00 f1 	cmp	x8, #2
10000a140: 60 0c 00 54 	b.eq	0x10000a2cc <__ZN5alloc11collections5btree3map25IntoIter$LT$K$C$V$C$A$GT$10dying_next17hf4721a95892db42fE+0x1cc>
10000a144: 88 82 40 a9 	ldp	x8, x0, [x20, #8]
10000a148: 95 0e 40 f9 	ldr	x21, [x20, #24]
10000a14c: 09 64 4a 79 	ldrh	w9, [x0, #1330]
10000a150: bf 02 09 eb 	cmp	x21, x9
10000a154: 03 06 00 54 	b.lo	0x10000a214 <__ZN5alloc11collections5btree3map25IntoIter$LT$K$C$V$C$A$GT$10dying_next17hf4721a95892db42fE+0x114>
10000a158: 18 b3 80 52 	mov	w24, #1432
10000a15c: 19 a7 80 52 	mov	w25, #1336
10000a160: 16 68 42 f9 	ldr	x22, [x0, #1232]
10000a164: b6 09 00 b4 	cbz	x22, 0x10000a298 <__ZN5alloc11collections5btree3map25IntoIter$LT$K$C$V$C$A$GT$10dying_next17hf4721a95892db42fE+0x198>
10000a168: 15 60 4a 79 	ldrh	w21, [x0, #1328]
10000a16c: 17 05 00 91 	add	x23, x8, #1
10000a170: 1f 01 00 f1 	cmp	x8, #0
10000a174: 21 03 98 9a 	csel	x1, x25, x24, eq
10000a178: 02 01 80 52 	mov	w2, #8
10000a17c: 73 ed ff 97 	bl	0x100005748 <___rust_dealloc>
10000a180: c9 66 4a 79 	ldrh	w9, [x22, #1330]
10000a184: e8 03 17 aa 	mov	x8, x23
10000a188: e0 03 16 aa 	mov	x0, x22
10000a18c: bf 02 09 6b 	cmp	w21, w9
10000a190: 82 fe ff 54 	b.hs	0x10000a160 <__ZN5alloc11collections5btree3map25IntoIter$LT$K$C$V$C$A$GT$10dying_next17hf4721a95892db42fE+0x60>
10000a194: 77 04 00 b4 	cbz	x23, 0x10000a220 <__ZN5alloc11collections5btree3map25IntoIter$LT$K$C$V$C$A$GT$10dying_next17hf4721a95892db42fE+0x120>
10000a198: c8 0e 15 8b 	add	x8, x22, x21, lsl #3
10000a19c: 08 a1 42 f9 	ldr	x8, [x8, #1344]
10000a1a0: e9 06 00 f1 	subs	x9, x23, #1
10000a1a4: 20 04 00 54 	b.eq	0x10000a228 <__ZN5alloc11collections5btree3map25IntoIter$LT$K$C$V$C$A$GT$10dying_next17hf4721a95892db42fE+0x128>
10000a1a8: 08 9d 42 f9 	ldr	x8, [x8, #1336]
10000a1ac: 29 05 00 f1 	subs	x9, x9, #1
10000a1b0: c1 ff ff 54 	b.ne	0x10000a1a8 <__ZN5alloc11collections5btree3map25IntoIter$LT$K$C$V$C$A$GT$10dying_next17hf4721a95892db42fE+0xa8>
10000a1b4: 1d 00 00 14 	b	0x10000a228 <__ZN5alloc11collections5btree3map25IntoIter$LT$K$C$V$C$A$GT$10dying_next17hf4721a95892db42fE+0x128>
10000a1b8: 89 22 40 a9 	ldp	x9, x8, [x20]
10000a1bc: 80 0a 40 f9 	ldr	x0, [x20, #16]
10000a1c0: 4a 00 80 52 	mov	w10, #2
10000a1c4: 8a 02 00 f9 	str	x10, [x20]
10000a1c8: a9 03 00 b4 	cbz	x9, 0x10000a23c <__ZN5alloc11collections5btree3map25IntoIter$LT$K$C$V$C$A$GT$10dying_next17hf4721a95892db42fE+0x13c>
10000a1cc: 3f 05 00 f1 	cmp	x9, #1
10000a1d0: 04 08 40 fa 	ccmp	x0, #0, #4, eq
10000a1d4: 20 05 00 54 	b.eq	0x10000a278 <__ZN5alloc11collections5btree3map25IntoIter$LT$K$C$V$C$A$GT$10dying_next17hf4721a95892db42fE+0x178>
10000a1d8: 1d 00 00 14 	b	0x10000a24c <__ZN5alloc11collections5btree3map25IntoIter$LT$K$C$V$C$A$GT$10dying_next17hf4721a95892db42fE+0x14c>
10000a1dc: 88 82 40 a9 	ldp	x8, x0, [x20, #8]
10000a1e0: 88 00 00 b4 	cbz	x8, 0x10000a1f0 <__ZN5alloc11collections5btree3map25IntoIter$LT$K$C$V$C$A$GT$10dying_next17hf4721a95892db42fE+0xf0>
10000a1e4: 00 9c 42 f9 	ldr	x0, [x0, #1336]
10000a1e8: 08 05 00 f1 	subs	x8, x8, #1
10000a1ec: c1 ff ff 54 	b.ne	0x10000a1e4 <__ZN5alloc11collections5btree3map25IntoIter$LT$K$C$V$C$A$GT$10dying_next17hf4721a95892db42fE+0xe4>
10000a1f0: 15 00 80 d2 	mov	x21, #0
10000a1f4: 08 00 80 d2 	mov	x8, #0
10000a1f8: 1f 20 03 d5 	nop
10000a1fc: a0 d7 15 9c 	ldr	q0, 0x100035cf0 <_anon.1f3d47ee37d7805743d16d88349f17b9.0+0x18>
10000a200: 80 02 80 3d 	str	q0, [x20]
10000a204: 80 7e 01 a9 	stp	x0, xzr, [x20, #16]
10000a208: 09 64 4a 79 	ldrh	w9, [x0, #1330]
10000a20c: bf 02 09 eb 	cmp	x21, x9
10000a210: 42 fa ff 54 	b.hs	0x10000a158 <__ZN5alloc11collections5btree3map25IntoIter$LT$K$C$V$C$A$GT$10dying_next17hf4721a95892db42fE+0x58>
10000a214: f6 03 00 aa 	mov	x22, x0
10000a218: f7 03 08 aa 	mov	x23, x8
10000a21c: e8 fb ff b5 	cbnz	x8, 0x10000a198 <__ZN5alloc11collections5btree3map25IntoIter$LT$K$C$V$C$A$GT$10dying_next17hf4721a95892db42fE+0x98>
10000a220: a9 06 00 91 	add	x9, x21, #1
10000a224: e8 03 16 aa 	mov	x8, x22
10000a228: 9f a2 00 a9 	stp	xzr, x8, [x20, #8]
10000a22c: 89 0e 00 f9 	str	x9, [x20, #24]
10000a230: 77 5a 00 a9 	stp	x23, x22, [x19]
10000a234: 75 0a 00 f9 	str	x21, [x19, #16]
10000a238: 11 00 00 14 	b	0x10000a27c <__ZN5alloc11collections5btree3map25IntoIter$LT$K$C$V$C$A$GT$10dying_next17hf4721a95892db42fE+0x17c>
10000a23c: 88 00 00 b4 	cbz	x8, 0x10000a24c <__ZN5alloc11collections5btree3map25IntoIter$LT$K$C$V$C$A$GT$10dying_next17hf4721a95892db42fE+0x14c>
10000a240: 00 9c 42 f9 	ldr	x0, [x0, #1336]
10000a244: 08 05 00 f1 	subs	x8, x8, #1
10000a248: c1 ff ff 54 	b.ne	0x10000a240 <__ZN5alloc11collections5btree3map25IntoIter$LT$K$C$V$C$A$GT$10dying_next17hf4721a95892db42fE+0x140>
10000a24c: 14 b3 80 52 	mov	w20, #1432
10000a250: 15 a7 80 52 	mov	w21, #1336
10000a254: 16 68 42 f9 	ldr	x22, [x0, #1232]
10000a258: 17 05 00 91 	add	x23, x8, #1
10000a25c: 1f 01 00 f1 	cmp	x8, #0
10000a260: a1 02 94 9a 	csel	x1, x21, x20, eq
10000a264: 02 01 80 52 	mov	w2, #8
10000a268: 38 ed ff 97 	bl	0x100005748 <___rust_dealloc>
10000a26c: e0 03 16 aa 	mov	x0, x22
10000a270: e8 03 17 aa 	mov	x8, x23
10000a274: 16 ff ff b5 	cbnz	x22, 0x10000a254 <__ZN5alloc11collections5btree3map25IntoIter$LT$K$C$V$C$A$GT$10dying_next17hf4721a95892db42fE+0x154>
10000a278: 7f 06 00 f9 	str	xzr, [x19, #8]
10000a27c: fd 7b 45 a9 	ldp	x29, x30, [sp, #80]
10000a280: f4 4f 44 a9 	ldp	x20, x19, [sp, #64]
10000a284: f6 57 43 a9 	ldp	x22, x21, [sp, #48]
10000a288: f8 5f 42 a9 	ldp	x24, x23, [sp, #32]
10000a28c: fa 67 41 a9 	ldp	x26, x25, [sp, #16]
10000a290: ff 83 01 91 	add	sp, sp, #96
10000a294: c0 03 5f d6 	ret
10000a298: 09 b3 80 52 	mov	w9, #1432
10000a29c: 0a a7 80 52 	mov	w10, #1336
10000a2a0: 1f 01 00 f1 	cmp	x8, #0
10000a2a4: 41 01 89 9a 	csel	x1, x10, x9, eq
10000a2a8: 02 01 80 52 	mov	w2, #8
10000a2ac: 27 ed ff 97 	bl	0x100005748 <___rust_dealloc>
10000a2b0: a0 04 16 30 	adr	x0, #180373
10000a2b4: 1f 20 03 d5 	nop
10000a2b8: 82 17 1d 10 	adr	x2, #238320
10000a2bc: 1f 20 03 d5 	nop
10000a2c0: 61 05 80 52 	mov	w1, #43
10000a2c4: e0 ac 00 94 	bl	0x100035644 <__ZN4core9panicking5panic17h5140de40daf56c24E>
10000a2c8: 20 00 20 d4 	brk	#0x1
10000a2cc: c0 03 16 30 	adr	x0, #180345
10000a2d0: 1f 20 03 d5 	nop
10000a2d4: 62 17 1d 10 	adr	x2, #238316
10000a2d8: 1f 20 03 d5 	nop
10000a2dc: 61 05 80 52 	mov	w1, #43
10000a2e0: d9 ac 00 94 	bl	0x100035644 <__ZN4core9panicking5panic17h5140de40daf56c24E>
10000a2e4: f3 03 00 aa 	mov	x19, x0
10000a2e8: e0 23 00 91 	add	x0, sp, #8
10000a2ec: 8f f3 ff 97 	bl	0x100007128 <__ZN4core3ptr72drop_in_place$LT$alloc..collections..btree..mem..replace..PanicGuard$GT$17he6e84be7ed04fb69E>
10000a2f0: e0 03 13 aa 	mov	x0, x19
10000a2f4: ab ad 00 94 	bl	0x1000359a0 <_writev+0x1000359a0>
10000a2f8: 04 ad 00 94 	bl	0x100035708 <__ZN4core9panicking19panic_cannot_unwind17h0bac00b37026e68cE>

000000010000a2fc <__ZN5alloc4sync12Arc$LT$T$GT$9drop_slow17h26dfbfcfd370d7feE>:
10000a2fc: 1f 04 00 b1 	cmn	x0, #1
10000a300: 40 01 00 54 	b.eq	0x10000a328 <__ZN5alloc4sync12Arc$LT$T$GT$9drop_slow17h26dfbfcfd370d7feE+0x2c>
10000a304: 08 20 00 91 	add	x8, x0, #8
10000a308: 09 00 80 92 	mov	x9, #-1
10000a30c: 08 01 69 f8 	<unknown>
10000a310: 1f 05 00 f1 	cmp	x8, #1
10000a314: a1 00 00 54 	b.ne	0x10000a328 <__ZN5alloc4sync12Arc$LT$T$GT$9drop_slow17h26dfbfcfd370d7feE+0x2c>
10000a318: bf 39 03 d5 	dmb	ishld
10000a31c: 01 07 80 52 	mov	w1, #56
10000a320: 02 01 80 52 	mov	w2, #8
10000a324: 09 ed ff 17 	b	0x100005748 <___rust_dealloc>
10000a328: c0 03 5f d6 	ret

000000010000a32c <__ZN5alloc4sync12Arc$LT$T$GT$9drop_slow17h366a35ba5850697aE>:
10000a32c: f4 4f be a9 	stp	x20, x19, [sp, #-32]!
10000a330: fd 7b 01 a9 	stp	x29, x30, [sp, #16]
10000a334: fd 43 00 91 	add	x29, sp, #16
10000a338: 13 00 40 f9 	ldr	x19, [x0]
10000a33c: e0 03 13 aa 	mov	x0, x19
10000a340: 08 0c 4e f8 	ldr	x8, [x0, #224]!
10000a344: e8 00 00 b4 	cbz	x8, 0x10000a360 <__ZN5alloc4sync12Arc$LT$T$GT$9drop_slow17h366a35ba5850697aE+0x34>
10000a348: 09 00 80 92 	mov	x9, #-1
10000a34c: 08 01 69 f8 	<unknown>
10000a350: 1f 05 00 f1 	cmp	x8, #1
10000a354: 61 00 00 54 	b.ne	0x10000a360 <__ZN5alloc4sync12Arc$LT$T$GT$9drop_slow17h366a35ba5850697aE+0x34>
10000a358: bf 39 03 d5 	dmb	ishld
10000a35c: f4 ff ff 97 	bl	0x10000a32c <__ZN5alloc4sync12Arc$LT$T$GT$9drop_slow17h366a35ba5850697aE>
10000a360: 7f 06 00 b1 	cmn	x19, #1
10000a364: a0 01 00 54 	b.eq	0x10000a398 <__ZN5alloc4sync12Arc$LT$T$GT$9drop_slow17h366a35ba5850697aE+0x6c>
10000a368: 68 22 00 91 	add	x8, x19, #8
10000a36c: 09 00 80 92 	mov	x9, #-1
10000a370: 08 01 69 f8 	<unknown>
10000a374: 1f 05 00 f1 	cmp	x8, #1
10000a378: 01 01 00 54 	b.ne	0x10000a398 <__ZN5alloc4sync12Arc$LT$T$GT$9drop_slow17h366a35ba5850697aE+0x6c>
10000a37c: bf 39 03 d5 	dmb	ishld
10000a380: e0 03 13 aa 	mov	x0, x19
10000a384: 01 1e 80 52 	mov	w1, #240
10000a388: 02 01 80 52 	mov	w2, #8
10000a38c: fd 7b 41 a9 	ldp	x29, x30, [sp, #16]
10000a390: f4 4f c2 a8 	ldp	x20, x19, [sp], #32
10000a394: ed ec ff 17 	b	0x100005748 <___rust_dealloc>
10000a398: fd 7b 41 a9 	ldp	x29, x30, [sp, #16]
10000a39c: f4 4f c2 a8 	ldp	x20, x19, [sp], #32
10000a3a0: c0 03 5f d6 	ret

000000010000a3a4 <__ZN5alloc4sync12Arc$LT$T$GT$9drop_slow17h914be0877e141af6E>:
10000a3a4: f4 4f be a9 	stp	x20, x19, [sp, #-32]!
10000a3a8: fd 7b 01 a9 	stp	x29, x30, [sp, #16]
10000a3ac: fd 43 00 91 	add	x29, sp, #16
10000a3b0: f3 03 00 aa 	mov	x19, x0
10000a3b4: 00 40 00 91 	add	x0, x0, #16
10000a3b8: 44 52 00 94 	bl	0x10001ecc8 <__ZN65_$LT$std..sys..unix..fs..Dir$u20$as$u20$core..ops..drop..Drop$GT$4drop17hb8741b9df74a6188E>
10000a3bc: 61 0e 40 f9 	ldr	x1, [x19, #24]
10000a3c0: a1 00 00 b4 	cbz	x1, 0x10000a3d4 <__ZN5alloc4sync12Arc$LT$T$GT$9drop_slow17h914be0877e141af6E+0x30>
10000a3c4: 60 12 40 f9 	ldr	x0, [x19, #32]
10000a3c8: e8 03 21 aa 	mvn	x8, x1
10000a3cc: 02 fd 7f d3 	lsr	x2, x8, #63
10000a3d0: de ec ff 97 	bl	0x100005748 <___rust_dealloc>
10000a3d4: 7f 06 00 b1 	cmn	x19, #1
10000a3d8: a0 01 00 54 	b.eq	0x10000a40c <__ZN5alloc4sync12Arc$LT$T$GT$9drop_slow17h914be0877e141af6E+0x68>
10000a3dc: 68 22 00 91 	add	x8, x19, #8
10000a3e0: 09 00 80 92 	mov	x9, #-1
10000a3e4: 08 01 69 f8 	<unknown>
10000a3e8: 1f 05 00 f1 	cmp	x8, #1
10000a3ec: 01 01 00 54 	b.ne	0x10000a40c <__ZN5alloc4sync12Arc$LT$T$GT$9drop_slow17h914be0877e141af6E+0x68>
10000a3f0: bf 39 03 d5 	dmb	ishld
10000a3f4: e0 03 13 aa 	mov	x0, x19
10000a3f8: 01 06 80 52 	mov	w1, #48
10000a3fc: 02 01 80 52 	mov	w2, #8
10000a400: fd 7b 41 a9 	ldp	x29, x30, [sp, #16]
10000a404: f4 4f c2 a8 	ldp	x20, x19, [sp], #32
10000a408: d0 ec ff 17 	b	0x100005748 <___rust_dealloc>
10000a40c: fd 7b 41 a9 	ldp	x29, x30, [sp, #16]
10000a410: f4 4f c2 a8 	ldp	x20, x19, [sp], #32
10000a414: c0 03 5f d6 	ret
10000a418: f4 03 00 aa 	mov	x20, x0
10000a41c: 60 62 00 91 	add	x0, x19, #24
10000a420: 54 f0 ff 97 	bl	0x100006570 <__ZN4core3ptr205drop_in_place$LT$$LT$alloc..boxed..Box$LT$dyn$u20$core..error..Error$u2b$core..marker..Send$u2b$core..marker..Sync$GT$$u20$as$u20$core..convert..From$LT$alloc..string..String$GT$$GT$..from..StringError$GT$17hc189c4586dd5d4e3E>
10000a424: e0 03 14 aa 	mov	x0, x20
10000a428: 5e ad 00 94 	bl	0x1000359a0 <_writev+0x1000359a0>

000000010000a42c <__ZN5alloc4sync12Arc$LT$T$GT$9drop_slow17ha933b7e537087b1aE>:
10000a42c: f4 4f be a9 	stp	x20, x19, [sp, #-32]!
10000a430: fd 7b 01 a9 	stp	x29, x30, [sp, #16]
10000a434: fd 43 00 91 	add	x29, sp, #16
10000a438: f3 03 00 aa 	mov	x19, x0
10000a43c: 08 08 40 f9 	ldr	x8, [x0, #16]
10000a440: e8 00 00 b4 	cbz	x8, 0x10000a45c <__ZN5alloc4sync12Arc$LT$T$GT$9drop_slow17ha933b7e537087b1aE+0x30>
10000a444: 1f 01 00 39 	strb	wzr, [x8]
10000a448: 61 0e 40 f9 	ldr	x1, [x19, #24]
10000a44c: 81 00 00 b4 	cbz	x1, 0x10000a45c <__ZN5alloc4sync12Arc$LT$T$GT$9drop_slow17ha933b7e537087b1aE+0x30>
10000a450: 60 0a 40 f9 	ldr	x0, [x19, #16]
10000a454: 22 00 80 52 	mov	w2, #1
10000a458: bc ec ff 97 	bl	0x100005748 <___rust_dealloc>
10000a45c: 60 12 40 f9 	ldr	x0, [x19, #32]
10000a460: 77 ad 00 94 	bl	0x100035a3c <_writev+0x100035a3c>
10000a464: 7f 06 00 b1 	cmn	x19, #1
10000a468: a0 01 00 54 	b.eq	0x10000a49c <__ZN5alloc4sync12Arc$LT$T$GT$9drop_slow17ha933b7e537087b1aE+0x70>
10000a46c: 68 22 00 91 	add	x8, x19, #8
10000a470: 09 00 80 92 	mov	x9, #-1
10000a474: 08 01 69 f8 	<unknown>
10000a478: 1f 05 00 f1 	cmp	x8, #1
10000a47c: 01 01 00 54 	b.ne	0x10000a49c <__ZN5alloc4sync12Arc$LT$T$GT$9drop_slow17ha933b7e537087b1aE+0x70>
10000a480: bf 39 03 d5 	dmb	ishld
10000a484: e0 03 13 aa 	mov	x0, x19
10000a488: 01 07 80 52 	mov	w1, #56
10000a48c: 02 01 80 52 	mov	w2, #8
10000a490: fd 7b 41 a9 	ldp	x29, x30, [sp, #16]
10000a494: f4 4f c2 a8 	ldp	x20, x19, [sp], #32
10000a498: ac ec ff 17 	b	0x100005748 <___rust_dealloc>
10000a49c: fd 7b 41 a9 	ldp	x29, x30, [sp, #16]
10000a4a0: f4 4f c2 a8 	ldp	x20, x19, [sp], #32
10000a4a4: c0 03 5f d6 	ret

000000010000a4a8 <__ZN5alloc4sync12Arc$LT$T$GT$9drop_slow17hfbdaaab5f62c66e2E>:
10000a4a8: f4 4f be a9 	stp	x20, x19, [sp, #-32]!
10000a4ac: fd 7b 01 a9 	stp	x29, x30, [sp, #16]
10000a4b0: fd 43 00 91 	add	x29, sp, #16
10000a4b4: f3 03 00 aa 	mov	x19, x0
10000a4b8: 14 08 40 f9 	ldr	x20, [x0, #16]
10000a4bc: 94 00 00 b4 	cbz	x20, 0x10000a4cc <__ZN5alloc4sync12Arc$LT$T$GT$9drop_slow17hfbdaaab5f62c66e2E+0x24>
10000a4c0: e0 03 14 aa 	mov	x0, x20
10000a4c4: ac ad 00 94 	bl	0x100035b74 <_writev+0x100035b74>
10000a4c8: 00 03 00 34 	cbz	w0, 0x10000a528 <__ZN5alloc4sync12Arc$LT$T$GT$9drop_slow17hfbdaaab5f62c66e2E+0x80>
10000a4cc: 61 12 40 f9 	ldr	x1, [x19, #32]
10000a4d0: a1 00 00 b4 	cbz	x1, 0x10000a4e4 <__ZN5alloc4sync12Arc$LT$T$GT$9drop_slow17hfbdaaab5f62c66e2E+0x3c>
10000a4d4: 60 16 40 f9 	ldr	x0, [x19, #40]
10000a4d8: e8 03 21 aa 	mvn	x8, x1
10000a4dc: 02 fd 7f d3 	lsr	x2, x8, #63
10000a4e0: 9a ec ff 97 	bl	0x100005748 <___rust_dealloc>
10000a4e4: 7f 06 00 b1 	cmn	x19, #1
10000a4e8: a0 01 00 54 	b.eq	0x10000a51c <__ZN5alloc4sync12Arc$LT$T$GT$9drop_slow17hfbdaaab5f62c66e2E+0x74>
10000a4ec: 68 22 00 91 	add	x8, x19, #8
10000a4f0: 09 00 80 92 	mov	x9, #-1
10000a4f4: 08 01 69 f8 	<unknown>
10000a4f8: 1f 05 00 f1 	cmp	x8, #1
10000a4fc: 01 01 00 54 	b.ne	0x10000a51c <__ZN5alloc4sync12Arc$LT$T$GT$9drop_slow17hfbdaaab5f62c66e2E+0x74>
10000a500: bf 39 03 d5 	dmb	ishld
10000a504: e0 03 13 aa 	mov	x0, x19
10000a508: 01 07 80 52 	mov	w1, #56
10000a50c: 02 01 80 52 	mov	w2, #8
10000a510: fd 7b 41 a9 	ldp	x29, x30, [sp, #16]
10000a514: f4 4f c2 a8 	ldp	x20, x19, [sp], #32
10000a518: 8c ec ff 17 	b	0x100005748 <___rust_dealloc>
10000a51c: fd 7b 41 a9 	ldp	x29, x30, [sp, #16]
10000a520: f4 4f c2 a8 	ldp	x20, x19, [sp], #32
10000a524: c0 03 5f d6 	ret
10000a528: e0 03 14 aa 	mov	x0, x20
10000a52c: 95 ad 00 94 	bl	0x100035b80 <_writev+0x100035b80>
10000a530: e0 03 14 aa 	mov	x0, x20
10000a534: 87 ad 00 94 	bl	0x100035b50 <_writev+0x100035b50>
10000a538: e0 03 14 aa 	mov	x0, x20
10000a53c: 01 08 80 52 	mov	w1, #64
10000a540: 02 01 80 52 	mov	w2, #8
10000a544: 81 ec ff 97 	bl	0x100005748 <___rust_dealloc>
10000a548: 61 12 40 f9 	ldr	x1, [x19, #32]
10000a54c: 41 fc ff b5 	cbnz	x1, 0x10000a4d4 <__ZN5alloc4sync12Arc$LT$T$GT$9drop_slow17hfbdaaab5f62c66e2E+0x2c>
10000a550: e5 ff ff 17 	b	0x10000a4e4 <__ZN5alloc4sync12Arc$LT$T$GT$9drop_slow17hfbdaaab5f62c66e2E+0x3c>

000000010000a554 <__ZN5alloc5alloc8box_free17h3125d351d32f12acE>:
10000a554: 01 03 80 52 	mov	w1, #24
10000a558: 02 01 80 52 	mov	w2, #8
10000a55c: 7b ec ff 17 	b	0x100005748 <___rust_dealloc>

000000010000a560 <__ZN5alloc5alloc8box_free17h37d2b627fc90e8c5E>:
10000a560: 41 00 00 b4 	cbz	x1, 0x10000a568 <__ZN5alloc5alloc8box_free17h37d2b627fc90e8c5E+0x8>
10000a564: 79 ec ff 17 	b	0x100005748 <___rust_dealloc>
10000a568: c0 03 5f d6 	ret

000000010000a56c <__ZN5alloc5alloc8box_free17h9e5c87d14f2ed297E>:
10000a56c: 01 08 80 52 	mov	w1, #64
10000a570: 02 01 80 52 	mov	w2, #8
10000a574: 75 ec ff 17 	b	0x100005748 <___rust_dealloc>

000000010000a578 <__ZN5alloc5alloc8box_free17hbd7e1da61ad7582fE>:
10000a578: 81 00 00 b4 	cbz	x1, 0x10000a588 <__ZN5alloc5alloc8box_free17hbd7e1da61ad7582fE+0x10>
10000a57c: 21 dc 78 d3 	lsl	x1, x1, #8
10000a580: 02 01 80 52 	mov	w2, #8
10000a584: 71 ec ff 17 	b	0x100005748 <___rust_dealloc>
10000a588: c0 03 5f d6 	ret

000000010000a58c <__ZN5alloc7raw_vec11finish_grow17h74a07193fb2e5d82E>:
10000a58c: f6 57 bd a9 	stp	x22, x21, [sp, #-48]!
10000a590: f4 4f 01 a9 	stp	x20, x19, [sp, #16]
10000a594: fd 7b 02 a9 	stp	x29, x30, [sp, #32]
10000a598: fd 83 00 91 	add	x29, sp, #32
10000a59c: f4 03 01 aa 	mov	x20, x1
10000a5a0: f3 03 00 aa 	mov	x19, x0
10000a5a4: a2 02 00 b4 	cbz	x2, 0x10000a5f8 <__ZN5alloc7raw_vec11finish_grow17h74a07193fb2e5d82E+0x6c>
10000a5a8: f5 03 02 aa 	mov	x21, x2
10000a5ac: 68 08 40 f9 	ldr	x8, [x3, #16]
10000a5b0: 48 01 00 b4 	cbz	x8, 0x10000a5d8 <__ZN5alloc7raw_vec11finish_grow17h74a07193fb2e5d82E+0x4c>
10000a5b4: 61 04 40 f9 	ldr	x1, [x3, #8]
10000a5b8: 01 01 00 b4 	cbz	x1, 0x10000a5d8 <__ZN5alloc7raw_vec11finish_grow17h74a07193fb2e5d82E+0x4c>
10000a5bc: 60 00 40 f9 	ldr	x0, [x3]
10000a5c0: e2 03 15 aa 	mov	x2, x21
10000a5c4: e3 03 14 aa 	mov	x3, x20
10000a5c8: 61 ec ff 97 	bl	0x10000574c <___rust_realloc>
10000a5cc: 00 01 00 b5 	cbnz	x0, 0x10000a5ec <__ZN5alloc7raw_vec11finish_grow17h74a07193fb2e5d82E+0x60>
10000a5d0: 74 d6 00 a9 	stp	x20, x21, [x19, #8]
10000a5d4: 0a 00 00 14 	b	0x10000a5fc <__ZN5alloc7raw_vec11finish_grow17h74a07193fb2e5d82E+0x70>
10000a5d8: f4 01 00 b4 	cbz	x20, 0x10000a614 <__ZN5alloc7raw_vec11finish_grow17h74a07193fb2e5d82E+0x88>
10000a5dc: e0 03 14 aa 	mov	x0, x20
10000a5e0: e1 03 15 aa 	mov	x1, x21
10000a5e4: 58 ec ff 97 	bl	0x100005744 <___rust_alloc>
10000a5e8: 40 ff ff b4 	cbz	x0, 0x10000a5d0 <__ZN5alloc7raw_vec11finish_grow17h74a07193fb2e5d82E+0x44>
10000a5ec: 08 00 80 d2 	mov	x8, #0
10000a5f0: 60 d2 00 a9 	stp	x0, x20, [x19, #8]
10000a5f4: 03 00 00 14 	b	0x10000a600 <__ZN5alloc7raw_vec11finish_grow17h74a07193fb2e5d82E+0x74>
10000a5f8: 74 fe 00 a9 	stp	x20, xzr, [x19, #8]
10000a5fc: 28 00 80 52 	mov	w8, #1
10000a600: 68 02 00 f9 	str	x8, [x19]
10000a604: fd 7b 42 a9 	ldp	x29, x30, [sp, #32]
10000a608: f4 4f 41 a9 	ldp	x20, x19, [sp, #16]
10000a60c: f6 57 c3 a8 	ldp	x22, x21, [sp], #48
10000a610: c0 03 5f d6 	ret
10000a614: e0 03 15 aa 	mov	x0, x21
10000a618: b5 fe ff b5 	cbnz	x21, 0x10000a5ec <__ZN5alloc7raw_vec11finish_grow17h74a07193fb2e5d82E+0x60>
10000a61c: ed ff ff 17 	b	0x10000a5d0 <__ZN5alloc7raw_vec11finish_grow17h74a07193fb2e5d82E+0x44>

000000010000a620 <__ZN5alloc7raw_vec19RawVec$LT$T$C$A$GT$16reserve_for_push17h10c12f47d72cea7cE>:
10000a620: ff 43 01 d1 	sub	sp, sp, #80
10000a624: f4 4f 03 a9 	stp	x20, x19, [sp, #48]
10000a628: fd 7b 04 a9 	stp	x29, x30, [sp, #64]
10000a62c: fd 03 01 91 	add	x29, sp, #64
10000a630: 29 04 00 b1 	adds	x9, x1, #1
10000a634: c2 03 00 54 	b.hs	0x10000a6ac <__ZN5alloc7raw_vec19RawVec$LT$T$C$A$GT$16reserve_for_push17h10c12f47d72cea7cE+0x8c>
10000a638: f3 03 00 aa 	mov	x19, x0
10000a63c: 08 00 40 f9 	ldr	x8, [x0]
10000a640: 0a f9 7f d3 	lsl	x10, x8, #1
10000a644: 5f 01 09 eb 	cmp	x10, x9
10000a648: 49 81 89 9a 	csel	x9, x10, x9, hi
10000a64c: 8a 00 80 52 	mov	w10, #4
10000a650: 3f 11 00 f1 	cmp	x9, #4
10000a654: 34 81 8a 9a 	csel	x20, x9, x10, hi
10000a658: 81 ee 7c d3 	lsl	x1, x20, #4
10000a65c: 89 fe 7b d3 	lsr	x9, x20, #59
10000a660: 3f 01 00 f1 	cmp	x9, #0
10000a664: e9 17 9f 1a 	cset	w9, eq
10000a668: 22 f1 7d d3 	lsl	x2, x9, #3
10000a66c: 28 02 00 b4 	cbz	x8, 0x10000a6b0 <__ZN5alloc7raw_vec19RawVec$LT$T$C$A$GT$16reserve_for_push17h10c12f47d72cea7cE+0x90>
10000a670: 69 06 40 f9 	ldr	x9, [x19, #8]
10000a674: 08 ed 7c d3 	lsl	x8, x8, #4
10000a678: e9 a3 01 a9 	stp	x9, x8, [sp, #24]
10000a67c: 08 01 80 52 	mov	w8, #8
10000a680: e8 17 00 f9 	str	x8, [sp, #40]
10000a684: e0 03 00 91 	mov	x0, sp
10000a688: e3 63 00 91 	add	x3, sp, #24
10000a68c: c0 ff ff 97 	bl	0x10000a58c <__ZN5alloc7raw_vec11finish_grow17h74a07193fb2e5d82E>
10000a690: e8 03 40 a9 	ldp	x8, x0, [sp]
10000a694: a8 01 00 b4 	cbz	x8, 0x10000a6c8 <__ZN5alloc7raw_vec19RawVec$LT$T$C$A$GT$16reserve_for_push17h10c12f47d72cea7cE+0xa8>
10000a698: e1 0b 40 f9 	ldr	x1, [sp, #16]
10000a69c: e8 07 41 b2 	mov	x8, #-9223372036854775807
10000a6a0: 3f 00 08 eb 	cmp	x1, x8
10000a6a4: 40 01 00 54 	b.eq	0x10000a6cc <__ZN5alloc7raw_vec19RawVec$LT$T$C$A$GT$16reserve_for_push17h10c12f47d72cea7cE+0xac>
10000a6a8: a1 01 00 b5 	cbnz	x1, 0x10000a6dc <__ZN5alloc7raw_vec19RawVec$LT$T$C$A$GT$16reserve_for_push17h10c12f47d72cea7cE+0xbc>
10000a6ac: 9b 88 00 94 	bl	0x10002c918 <__ZN5alloc7raw_vec17capacity_overflow17h45560cdc8c994c33E>
10000a6b0: ff 17 00 f9 	str	xzr, [sp, #40]
10000a6b4: e0 03 00 91 	mov	x0, sp
10000a6b8: e3 63 00 91 	add	x3, sp, #24
10000a6bc: b4 ff ff 97 	bl	0x10000a58c <__ZN5alloc7raw_vec11finish_grow17h74a07193fb2e5d82E>
10000a6c0: e8 03 40 a9 	ldp	x8, x0, [sp]
10000a6c4: a8 fe ff b5 	cbnz	x8, 0x10000a698 <__ZN5alloc7raw_vec19RawVec$LT$T$C$A$GT$16reserve_for_push17h10c12f47d72cea7cE+0x78>
10000a6c8: 74 02 00 a9 	stp	x20, x0, [x19]
10000a6cc: fd 7b 44 a9 	ldp	x29, x30, [sp, #64]
10000a6d0: f4 4f 43 a9 	ldp	x20, x19, [sp, #48]
10000a6d4: ff 43 01 91 	add	sp, sp, #80
10000a6d8: c0 03 5f d6 	ret
10000a6dc: b9 ab 00 94 	bl	0x1000355c0 <__ZN5alloc5alloc18handle_alloc_error17h1d9de7391f28bb67E>

000000010000a6e0 <__ZN5alloc7raw_vec19RawVec$LT$T$C$A$GT$16reserve_for_push17h11b88e36591a6ef4E>:
10000a6e0: ff 43 01 d1 	sub	sp, sp, #80
10000a6e4: f4 4f 03 a9 	stp	x20, x19, [sp, #48]
10000a6e8: fd 7b 04 a9 	stp	x29, x30, [sp, #64]
10000a6ec: fd 03 01 91 	add	x29, sp, #64
10000a6f0: 29 04 00 b1 	adds	x9, x1, #1
10000a6f4: c2 03 00 54 	b.hs	0x10000a76c <__ZN5alloc7raw_vec19RawVec$LT$T$C$A$GT$16reserve_for_push17h11b88e36591a6ef4E+0x8c>
10000a6f8: f3 03 00 aa 	mov	x19, x0
10000a6fc: 08 00 40 f9 	ldr	x8, [x0]
10000a700: 0a f9 7f d3 	lsl	x10, x8, #1
10000a704: 5f 01 09 eb 	cmp	x10, x9
10000a708: 49 81 89 9a 	csel	x9, x10, x9, hi
10000a70c: 8a 00 80 52 	mov	w10, #4
10000a710: 3f 11 00 f1 	cmp	x9, #4
10000a714: 34 81 8a 9a 	csel	x20, x9, x10, hi
10000a718: 81 f2 7d d3 	lsl	x1, x20, #3
10000a71c: 89 fe 7c d3 	lsr	x9, x20, #60
10000a720: 3f 01 00 f1 	cmp	x9, #0
10000a724: e9 17 9f 1a 	cset	w9, eq
10000a728: 22 f1 7d d3 	lsl	x2, x9, #3
10000a72c: 28 02 00 b4 	cbz	x8, 0x10000a770 <__ZN5alloc7raw_vec19RawVec$LT$T$C$A$GT$16reserve_for_push17h11b88e36591a6ef4E+0x90>
10000a730: 69 06 40 f9 	ldr	x9, [x19, #8]
10000a734: 08 f1 7d d3 	lsl	x8, x8, #3
10000a738: e9 a3 01 a9 	stp	x9, x8, [sp, #24]
10000a73c: 08 01 80 52 	mov	w8, #8
10000a740: e8 17 00 f9 	str	x8, [sp, #40]
10000a744: e0 03 00 91 	mov	x0, sp
10000a748: e3 63 00 91 	add	x3, sp, #24
10000a74c: 90 ff ff 97 	bl	0x10000a58c <__ZN5alloc7raw_vec11finish_grow17h74a07193fb2e5d82E>
10000a750: e8 03 40 a9 	ldp	x8, x0, [sp]
10000a754: a8 01 00 b4 	cbz	x8, 0x10000a788 <__ZN5alloc7raw_vec19RawVec$LT$T$C$A$GT$16reserve_for_push17h11b88e36591a6ef4E+0xa8>
10000a758: e1 0b 40 f9 	ldr	x1, [sp, #16]
10000a75c: e8 07 41 b2 	mov	x8, #-9223372036854775807
10000a760: 3f 00 08 eb 	cmp	x1, x8
10000a764: 40 01 00 54 	b.eq	0x10000a78c <__ZN5alloc7raw_vec19RawVec$LT$T$C$A$GT$16reserve_for_push17h11b88e36591a6ef4E+0xac>
10000a768: a1 01 00 b5 	cbnz	x1, 0x10000a79c <__ZN5alloc7raw_vec19RawVec$LT$T$C$A$GT$16reserve_for_push17h11b88e36591a6ef4E+0xbc>
10000a76c: 6b 88 00 94 	bl	0x10002c918 <__ZN5alloc7raw_vec17capacity_overflow17h45560cdc8c994c33E>
10000a770: ff 17 00 f9 	str	xzr, [sp, #40]
10000a774: e0 03 00 91 	mov	x0, sp
10000a778: e3 63 00 91 	add	x3, sp, #24
10000a77c: 84 ff ff 97 	bl	0x10000a58c <__ZN5alloc7raw_vec11finish_grow17h74a07193fb2e5d82E>
10000a780: e8 03 40 a9 	ldp	x8, x0, [sp]
10000a784: a8 fe ff b5 	cbnz	x8, 0x10000a758 <__ZN5alloc7raw_vec19RawVec$LT$T$C$A$GT$16reserve_for_push17h11b88e36591a6ef4E+0x78>
10000a788: 74 02 00 a9 	stp	x20, x0, [x19]
10000a78c: fd 7b 44 a9 	ldp	x29, x30, [sp, #64]
10000a790: f4 4f 43 a9 	ldp	x20, x19, [sp, #48]
10000a794: ff 43 01 91 	add	sp, sp, #80
10000a798: c0 03 5f d6 	ret
10000a79c: 89 ab 00 94 	bl	0x1000355c0 <__ZN5alloc5alloc18handle_alloc_error17h1d9de7391f28bb67E>

000000010000a7a0 <__ZN5alloc7raw_vec19RawVec$LT$T$C$A$GT$16reserve_for_push17h12a1291e1c8358a1E>:
10000a7a0: ff 43 01 d1 	sub	sp, sp, #80
10000a7a4: f4 4f 03 a9 	stp	x20, x19, [sp, #48]
10000a7a8: fd 7b 04 a9 	stp	x29, x30, [sp, #64]
10000a7ac: fd 03 01 91 	add	x29, sp, #64
10000a7b0: 29 04 00 b1 	adds	x9, x1, #1
10000a7b4: c2 03 00 54 	b.hs	0x10000a82c <__ZN5alloc7raw_vec19RawVec$LT$T$C$A$GT$16reserve_for_push17h12a1291e1c8358a1E+0x8c>
10000a7b8: f3 03 00 aa 	mov	x19, x0
10000a7bc: 08 00 40 f9 	ldr	x8, [x0]
10000a7c0: 0a f9 7f d3 	lsl	x10, x8, #1
10000a7c4: 5f 01 09 eb 	cmp	x10, x9
10000a7c8: 49 81 89 9a 	csel	x9, x10, x9, hi
10000a7cc: 8a 00 80 52 	mov	w10, #4
10000a7d0: 3f 11 00 f1 	cmp	x9, #4
10000a7d4: 34 81 8a 9a 	csel	x20, x9, x10, hi
10000a7d8: 81 ea 7b d3 	lsl	x1, x20, #5
10000a7dc: 89 fe 7a d3 	lsr	x9, x20, #58
10000a7e0: 3f 01 00 f1 	cmp	x9, #0
10000a7e4: e9 17 9f 1a 	cset	w9, eq
10000a7e8: 22 f1 7d d3 	lsl	x2, x9, #3
10000a7ec: 28 02 00 b4 	cbz	x8, 0x10000a830 <__ZN5alloc7raw_vec19RawVec$LT$T$C$A$GT$16reserve_for_push17h12a1291e1c8358a1E+0x90>
10000a7f0: 69 06 40 f9 	ldr	x9, [x19, #8]
10000a7f4: 08 e9 7b d3 	lsl	x8, x8, #5
10000a7f8: e9 a3 01 a9 	stp	x9, x8, [sp, #24]
10000a7fc: 08 01 80 52 	mov	w8, #8
10000a800: e8 17 00 f9 	str	x8, [sp, #40]
10000a804: e0 03 00 91 	mov	x0, sp
10000a808: e3 63 00 91 	add	x3, sp, #24
10000a80c: 60 ff ff 97 	bl	0x10000a58c <__ZN5alloc7raw_vec11finish_grow17h74a07193fb2e5d82E>
10000a810: e8 03 40 a9 	ldp	x8, x0, [sp]
10000a814: a8 01 00 b4 	cbz	x8, 0x10000a848 <__ZN5alloc7raw_vec19RawVec$LT$T$C$A$GT$16reserve_for_push17h12a1291e1c8358a1E+0xa8>
10000a818: e1 0b 40 f9 	ldr	x1, [sp, #16]
10000a81c: e8 07 41 b2 	mov	x8, #-9223372036854775807
10000a820: 3f 00 08 eb 	cmp	x1, x8
10000a824: 40 01 00 54 	b.eq	0x10000a84c <__ZN5alloc7raw_vec19RawVec$LT$T$C$A$GT$16reserve_for_push17h12a1291e1c8358a1E+0xac>
10000a828: a1 01 00 b5 	cbnz	x1, 0x10000a85c <__ZN5alloc7raw_vec19RawVec$LT$T$C$A$GT$16reserve_for_push17h12a1291e1c8358a1E+0xbc>
10000a82c: 3b 88 00 94 	bl	0x10002c918 <__ZN5alloc7raw_vec17capacity_overflow17h45560cdc8c994c33E>
10000a830: ff 17 00 f9 	str	xzr, [sp, #40]
10000a834: e0 03 00 91 	mov	x0, sp
10000a838: e3 63 00 91 	add	x3, sp, #24
10000a83c: 54 ff ff 97 	bl	0x10000a58c <__ZN5alloc7raw_vec11finish_grow17h74a07193fb2e5d82E>
10000a840: e8 03 40 a9 	ldp	x8, x0, [sp]
10000a844: a8 fe ff b5 	cbnz	x8, 0x10000a818 <__ZN5alloc7raw_vec19RawVec$LT$T$C$A$GT$16reserve_for_push17h12a1291e1c8358a1E+0x78>
10000a848: 74 02 00 a9 	stp	x20, x0, [x19]
10000a84c: fd 7b 44 a9 	ldp	x29, x30, [sp, #64]
10000a850: f4 4f 43 a9 	ldp	x20, x19, [sp, #48]
10000a854: ff 43 01 91 	add	sp, sp, #80
10000a858: c0 03 5f d6 	ret
10000a85c: 59 ab 00 94 	bl	0x1000355c0 <__ZN5alloc5alloc18handle_alloc_error17h1d9de7391f28bb67E>

000000010000a860 <__ZN5alloc7raw_vec19RawVec$LT$T$C$A$GT$16reserve_for_push17h2e5e92972ffb7407E>:
10000a860: ff 43 01 d1 	sub	sp, sp, #80
10000a864: f4 4f 03 a9 	stp	x20, x19, [sp, #48]
10000a868: fd 7b 04 a9 	stp	x29, x30, [sp, #64]
10000a86c: fd 03 01 91 	add	x29, sp, #64
10000a870: 29 04 00 b1 	adds	x9, x1, #1
10000a874: c2 03 00 54 	b.hs	0x10000a8ec <__ZN5alloc7raw_vec19RawVec$LT$T$C$A$GT$16reserve_for_push17h2e5e92972ffb7407E+0x8c>
10000a878: f3 03 00 aa 	mov	x19, x0
10000a87c: 08 00 40 f9 	ldr	x8, [x0]
10000a880: 0a f9 7f d3 	lsl	x10, x8, #1
10000a884: 5f 01 09 eb 	cmp	x10, x9
10000a888: 49 81 89 9a 	csel	x9, x10, x9, hi
10000a88c: 8a 00 80 52 	mov	w10, #4
10000a890: 3f 11 00 f1 	cmp	x9, #4
10000a894: 34 81 8a 9a 	csel	x20, x9, x10, hi
10000a898: 81 e6 7a d3 	lsl	x1, x20, #6
10000a89c: 89 fe 79 d3 	lsr	x9, x20, #57
10000a8a0: 3f 01 00 f1 	cmp	x9, #0
10000a8a4: e9 17 9f 1a 	cset	w9, eq
10000a8a8: 22 f1 7d d3 	lsl	x2, x9, #3
10000a8ac: 28 02 00 b4 	cbz	x8, 0x10000a8f0 <__ZN5alloc7raw_vec19RawVec$LT$T$C$A$GT$16reserve_for_push17h2e5e92972ffb7407E+0x90>
10000a8b0: 69 06 40 f9 	ldr	x9, [x19, #8]
10000a8b4: 08 e5 7a d3 	lsl	x8, x8, #6
10000a8b8: e9 a3 01 a9 	stp	x9, x8, [sp, #24]
10000a8bc: 08 01 80 52 	mov	w8, #8
10000a8c0: e8 17 00 f9 	str	x8, [sp, #40]
10000a8c4: e0 03 00 91 	mov	x0, sp
10000a8c8: e3 63 00 91 	add	x3, sp, #24
10000a8cc: 30 ff ff 97 	bl	0x10000a58c <__ZN5alloc7raw_vec11finish_grow17h74a07193fb2e5d82E>
10000a8d0: e8 03 40 a9 	ldp	x8, x0, [sp]
10000a8d4: a8 01 00 b4 	cbz	x8, 0x10000a908 <__ZN5alloc7raw_vec19RawVec$LT$T$C$A$GT$16reserve_for_push17h2e5e92972ffb7407E+0xa8>
10000a8d8: e1 0b 40 f9 	ldr	x1, [sp, #16]
10000a8dc: e8 07 41 b2 	mov	x8, #-9223372036854775807
10000a8e0: 3f 00 08 eb 	cmp	x1, x8
10000a8e4: 40 01 00 54 	b.eq	0x10000a90c <__ZN5alloc7raw_vec19RawVec$LT$T$C$A$GT$16reserve_for_push17h2e5e92972ffb7407E+0xac>
10000a8e8: a1 01 00 b5 	cbnz	x1, 0x10000a91c <__ZN5alloc7raw_vec19RawVec$LT$T$C$A$GT$16reserve_for_push17h2e5e92972ffb7407E+0xbc>
10000a8ec: 0b 88 00 94 	bl	0x10002c918 <__ZN5alloc7raw_vec17capacity_overflow17h45560cdc8c994c33E>
10000a8f0: ff 17 00 f9 	str	xzr, [sp, #40]
10000a8f4: e0 03 00 91 	mov	x0, sp
10000a8f8: e3 63 00 91 	add	x3, sp, #24
10000a8fc: 24 ff ff 97 	bl	0x10000a58c <__ZN5alloc7raw_vec11finish_grow17h74a07193fb2e5d82E>
10000a900: e8 03 40 a9 	ldp	x8, x0, [sp]
10000a904: a8 fe ff b5 	cbnz	x8, 0x10000a8d8 <__ZN5alloc7raw_vec19RawVec$LT$T$C$A$GT$16reserve_for_push17h2e5e92972ffb7407E+0x78>
10000a908: 74 02 00 a9 	stp	x20, x0, [x19]
10000a90c: fd 7b 44 a9 	ldp	x29, x30, [sp, #64]
10000a910: f4 4f 43 a9 	ldp	x20, x19, [sp, #48]
10000a914: ff 43 01 91 	add	sp, sp, #80
10000a918: c0 03 5f d6 	ret
10000a91c: 29 ab 00 94 	bl	0x1000355c0 <__ZN5alloc5alloc18handle_alloc_error17h1d9de7391f28bb67E>

000000010000a920 <__ZN5alloc7raw_vec19RawVec$LT$T$C$A$GT$16reserve_for_push17h33086531ebca9d14E>:
10000a920: ff 43 01 d1 	sub	sp, sp, #80
10000a924: f4 4f 03 a9 	stp	x20, x19, [sp, #48]
10000a928: fd 7b 04 a9 	stp	x29, x30, [sp, #64]
10000a92c: fd 03 01 91 	add	x29, sp, #64
10000a930: 29 04 00 b1 	adds	x9, x1, #1
10000a934: 62 04 00 54 	b.hs	0x10000a9c0 <__ZN5alloc7raw_vec19RawVec$LT$T$C$A$GT$16reserve_for_push17h33086531ebca9d14E+0xa0>
10000a938: f3 03 00 aa 	mov	x19, x0
10000a93c: 08 00 40 f9 	ldr	x8, [x0]
10000a940: 0a f9 7f d3 	lsl	x10, x8, #1
10000a944: 5f 01 09 eb 	cmp	x10, x9
10000a948: 49 81 89 9a 	csel	x9, x10, x9, hi
10000a94c: 8a 00 80 52 	mov	w10, #4
10000a950: 3f 11 00 f1 	cmp	x9, #4
10000a954: 34 81 8a 9a 	csel	x20, x9, x10, hi
10000a958: 49 07 95 d2 	mov	x9, #43066
10000a95c: 69 50 a7 f2 	movk	x9, #14979, lsl #16
10000a960: 09 75 d0 f2 	movk	x9, #33704, lsl #32
10000a964: 49 07 e0 f2 	movk	x9, #58, lsl #48
10000a968: 9f 02 09 eb 	cmp	x20, x9
10000a96c: e9 87 9f 1a 	cset	w9, ls
10000a970: 0a 46 80 52 	mov	w10, #560
10000a974: 81 7e 0a 9b 	mul	x1, x20, x10
10000a978: 22 f1 7d d3 	lsl	x2, x9, #3
10000a97c: 48 02 00 b4 	cbz	x8, 0x10000a9c4 <__ZN5alloc7raw_vec19RawVec$LT$T$C$A$GT$16reserve_for_push17h33086531ebca9d14E+0xa4>
10000a980: 69 06 40 f9 	ldr	x9, [x19, #8]
10000a984: 0a 46 80 52 	mov	w10, #560
10000a988: 08 7d 0a 9b 	mul	x8, x8, x10
10000a98c: e9 a3 01 a9 	stp	x9, x8, [sp, #24]
10000a990: 08 01 80 52 	mov	w8, #8
10000a994: e8 17 00 f9 	str	x8, [sp, #40]
10000a998: e0 03 00 91 	mov	x0, sp
10000a99c: e3 63 00 91 	add	x3, sp, #24
10000a9a0: fb fe ff 97 	bl	0x10000a58c <__ZN5alloc7raw_vec11finish_grow17h74a07193fb2e5d82E>
10000a9a4: e8 03 40 a9 	ldp	x8, x0, [sp]
10000a9a8: a8 01 00 b4 	cbz	x8, 0x10000a9dc <__ZN5alloc7raw_vec19RawVec$LT$T$C$A$GT$16reserve_for_push17h33086531ebca9d14E+0xbc>
10000a9ac: e1 0b 40 f9 	ldr	x1, [sp, #16]
10000a9b0: e8 07 41 b2 	mov	x8, #-9223372036854775807
10000a9b4: 3f 00 08 eb 	cmp	x1, x8
10000a9b8: 40 01 00 54 	b.eq	0x10000a9e0 <__ZN5alloc7raw_vec19RawVec$LT$T$C$A$GT$16reserve_for_push17h33086531ebca9d14E+0xc0>
10000a9bc: a1 01 00 b5 	cbnz	x1, 0x10000a9f0 <__ZN5alloc7raw_vec19RawVec$LT$T$C$A$GT$16reserve_for_push17h33086531ebca9d14E+0xd0>
10000a9c0: d6 87 00 94 	bl	0x10002c918 <__ZN5alloc7raw_vec17capacity_overflow17h45560cdc8c994c33E>
10000a9c4: ff 17 00 f9 	str	xzr, [sp, #40]
10000a9c8: e0 03 00 91 	mov	x0, sp
10000a9cc: e3 63 00 91 	add	x3, sp, #24
10000a9d0: ef fe ff 97 	bl	0x10000a58c <__ZN5alloc7raw_vec11finish_grow17h74a07193fb2e5d82E>
10000a9d4: e8 03 40 a9 	ldp	x8, x0, [sp]
10000a9d8: a8 fe ff b5 	cbnz	x8, 0x10000a9ac <__ZN5alloc7raw_vec19RawVec$LT$T$C$A$GT$16reserve_for_push17h33086531ebca9d14E+0x8c>
10000a9dc: 74 02 00 a9 	stp	x20, x0, [x19]
10000a9e0: fd 7b 44 a9 	ldp	x29, x30, [sp, #64]
10000a9e4: f4 4f 43 a9 	ldp	x20, x19, [sp, #48]
10000a9e8: ff 43 01 91 	add	sp, sp, #80
10000a9ec: c0 03 5f d6 	ret
10000a9f0: f4 aa 00 94 	bl	0x1000355c0 <__ZN5alloc5alloc18handle_alloc_error17h1d9de7391f28bb67E>

000000010000a9f4 <__ZN5alloc7raw_vec19RawVec$LT$T$C$A$GT$16reserve_for_push17h4b7f82df5b7e5f8dE>:
10000a9f4: ff 43 01 d1 	sub	sp, sp, #80
10000a9f8: f4 4f 03 a9 	stp	x20, x19, [sp, #48]
10000a9fc: fd 7b 04 a9 	stp	x29, x30, [sp, #64]
10000aa00: fd 03 01 91 	add	x29, sp, #64
10000aa04: 29 04 00 b1 	adds	x9, x1, #1
10000aa08: 62 04 00 54 	b.hs	0x10000aa94 <__ZN5alloc7raw_vec19RawVec$LT$T$C$A$GT$16reserve_for_push17h4b7f82df5b7e5f8dE+0xa0>
10000aa0c: f3 03 00 aa 	mov	x19, x0
10000aa10: 08 00 40 f9 	ldr	x8, [x0]
10000aa14: 0a f9 7f d3 	lsl	x10, x8, #1
10000aa18: 5f 01 09 eb 	cmp	x10, x9
10000aa1c: 49 81 89 9a 	csel	x9, x10, x9, hi
10000aa20: 8a 00 80 52 	mov	w10, #4
10000aa24: 3f 11 00 f1 	cmp	x9, #4
10000aa28: 34 81 8a 9a 	csel	x20, x9, x10, hi
10000aa2c: e9 f3 00 b2 	mov	x9, #6148914691236517205
10000aa30: c9 aa 8a f2 	movk	x9, #21846
10000aa34: a9 aa e0 f2 	movk	x9, #1365, lsl #48
10000aa38: 29 05 00 d1 	sub	x9, x9, #1
10000aa3c: 9f 02 09 eb 	cmp	x20, x9
10000aa40: 89 06 14 8b 	add	x9, x20, x20, lsl #1
10000aa44: ea 87 9f 1a 	cset	w10, ls
10000aa48: 21 f1 7d d3 	lsl	x1, x9, #3
10000aa4c: 42 f1 7d d3 	lsl	x2, x10, #3
10000aa50: 48 02 00 b4 	cbz	x8, 0x10000aa98 <__ZN5alloc7raw_vec19RawVec$LT$T$C$A$GT$16reserve_for_push17h4b7f82df5b7e5f8dE+0xa4>
10000aa54: 69 06 40 f9 	ldr	x9, [x19, #8]
10000aa58: 08 05 08 8b 	add	x8, x8, x8, lsl #1
10000aa5c: 08 f1 7d d3 	lsl	x8, x8, #3
10000aa60: e9 a3 01 a9 	stp	x9, x8, [sp, #24]
10000aa64: 08 01 80 52 	mov	w8, #8
10000aa68: e8 17 00 f9 	str	x8, [sp, #40]
10000aa6c: e0 03 00 91 	mov	x0, sp
10000aa70: e3 63 00 91 	add	x3, sp, #24
10000aa74: c6 fe ff 97 	bl	0x10000a58c <__ZN5alloc7raw_vec11finish_grow17h74a07193fb2e5d82E>
10000aa78: e8 03 40 a9 	ldp	x8, x0, [sp]
10000aa7c: a8 01 00 b4 	cbz	x8, 0x10000aab0 <__ZN5alloc7raw_vec19RawVec$LT$T$C$A$GT$16reserve_for_push17h4b7f82df5b7e5f8dE+0xbc>
10000aa80: e1 0b 40 f9 	ldr	x1, [sp, #16]
10000aa84: e8 07 41 b2 	mov	x8, #-9223372036854775807
10000aa88: 3f 00 08 eb 	cmp	x1, x8
10000aa8c: 40 01 00 54 	b.eq	0x10000aab4 <__ZN5alloc7raw_vec19RawVec$LT$T$C$A$GT$16reserve_for_push17h4b7f82df5b7e5f8dE+0xc0>
10000aa90: a1 01 00 b5 	cbnz	x1, 0x10000aac4 <__ZN5alloc7raw_vec19RawVec$LT$T$C$A$GT$16reserve_for_push17h4b7f82df5b7e5f8dE+0xd0>
10000aa94: a1 87 00 94 	bl	0x10002c918 <__ZN5alloc7raw_vec17capacity_overflow17h45560cdc8c994c33E>
10000aa98: ff 17 00 f9 	str	xzr, [sp, #40]
10000aa9c: e0 03 00 91 	mov	x0, sp
10000aaa0: e3 63 00 91 	add	x3, sp, #24
10000aaa4: ba fe ff 97 	bl	0x10000a58c <__ZN5alloc7raw_vec11finish_grow17h74a07193fb2e5d82E>
10000aaa8: e8 03 40 a9 	ldp	x8, x0, [sp]
10000aaac: a8 fe ff b5 	cbnz	x8, 0x10000aa80 <__ZN5alloc7raw_vec19RawVec$LT$T$C$A$GT$16reserve_for_push17h4b7f82df5b7e5f8dE+0x8c>
10000aab0: 74 02 00 a9 	stp	x20, x0, [x19]
10000aab4: fd 7b 44 a9 	ldp	x29, x30, [sp, #64]
10000aab8: f4 4f 43 a9 	ldp	x20, x19, [sp, #48]
10000aabc: ff 43 01 91 	add	sp, sp, #80
10000aac0: c0 03 5f d6 	ret
10000aac4: bf aa 00 94 	bl	0x1000355c0 <__ZN5alloc5alloc18handle_alloc_error17h1d9de7391f28bb67E>

000000010000aac8 <__ZN5alloc7raw_vec19RawVec$LT$T$C$A$GT$16reserve_for_push17h4e74934c9cdf59a1E>:
10000aac8: ff 43 01 d1 	sub	sp, sp, #80
10000aacc: f4 4f 03 a9 	stp	x20, x19, [sp, #48]
10000aad0: fd 7b 04 a9 	stp	x29, x30, [sp, #64]
10000aad4: fd 03 01 91 	add	x29, sp, #64
10000aad8: 29 04 00 b1 	adds	x9, x1, #1
10000aadc: 62 04 00 54 	b.hs	0x10000ab68 <__ZN5alloc7raw_vec19RawVec$LT$T$C$A$GT$16reserve_for_push17h4e74934c9cdf59a1E+0xa0>
10000aae0: f3 03 00 aa 	mov	x19, x0
10000aae4: 08 00 40 f9 	ldr	x8, [x0]
10000aae8: 0a f9 7f d3 	lsl	x10, x8, #1
10000aaec: 5f 01 09 eb 	cmp	x10, x9
10000aaf0: 49 81 89 9a 	csel	x9, x10, x9, hi
10000aaf4: 8a 00 80 52 	mov	w10, #4
10000aaf8: 3f 11 00 f1 	cmp	x9, #4
10000aafc: 34 81 8a 9a 	csel	x20, x9, x10, hi
10000ab00: e9 e7 00 b2 	mov	x9, #3689348814741910323
10000ab04: 89 66 86 f2 	movk	x9, #13108
10000ab08: 69 66 e0 f2 	movk	x9, #819, lsl #48
10000ab0c: 29 05 00 d1 	sub	x9, x9, #1
10000ab10: 9f 02 09 eb 	cmp	x20, x9
10000ab14: 89 0a 14 8b 	add	x9, x20, x20, lsl #2
10000ab18: ea 87 9f 1a 	cset	w10, ls
10000ab1c: 21 f1 7d d3 	lsl	x1, x9, #3
10000ab20: 42 f1 7d d3 	lsl	x2, x10, #3
10000ab24: 48 02 00 b4 	cbz	x8, 0x10000ab6c <__ZN5alloc7raw_vec19RawVec$LT$T$C$A$GT$16reserve_for_push17h4e74934c9cdf59a1E+0xa4>
10000ab28: 69 06 40 f9 	ldr	x9, [x19, #8]
10000ab2c: 08 09 08 8b 	add	x8, x8, x8, lsl #2
10000ab30: 08 f1 7d d3 	lsl	x8, x8, #3
10000ab34: e9 a3 01 a9 	stp	x9, x8, [sp, #24]
10000ab38: 08 01 80 52 	mov	w8, #8
10000ab3c: e8 17 00 f9 	str	x8, [sp, #40]
10000ab40: e0 03 00 91 	mov	x0, sp
10000ab44: e3 63 00 91 	add	x3, sp, #24
10000ab48: 91 fe ff 97 	bl	0x10000a58c <__ZN5alloc7raw_vec11finish_grow17h74a07193fb2e5d82E>
10000ab4c: e8 03 40 a9 	ldp	x8, x0, [sp]
10000ab50: a8 01 00 b4 	cbz	x8, 0x10000ab84 <__ZN5alloc7raw_vec19RawVec$LT$T$C$A$GT$16reserve_for_push17h4e74934c9cdf59a1E+0xbc>
10000ab54: e1 0b 40 f9 	ldr	x1, [sp, #16]
10000ab58: e8 07 41 b2 	mov	x8, #-9223372036854775807
10000ab5c: 3f 00 08 eb 	cmp	x1, x8
10000ab60: 40 01 00 54 	b.eq	0x10000ab88 <__ZN5alloc7raw_vec19RawVec$LT$T$C$A$GT$16reserve_for_push17h4e74934c9cdf59a1E+0xc0>
10000ab64: a1 01 00 b5 	cbnz	x1, 0x10000ab98 <__ZN5alloc7raw_vec19RawVec$LT$T$C$A$GT$16reserve_for_push17h4e74934c9cdf59a1E+0xd0>
10000ab68: 6c 87 00 94 	bl	0x10002c918 <__ZN5alloc7raw_vec17capacity_overflow17h45560cdc8c994c33E>
10000ab6c: ff 17 00 f9 	str	xzr, [sp, #40]
10000ab70: e0 03 00 91 	mov	x0, sp
10000ab74: e3 63 00 91 	add	x3, sp, #24
10000ab78: 85 fe ff 97 	bl	0x10000a58c <__ZN5alloc7raw_vec11finish_grow17h74a07193fb2e5d82E>
10000ab7c: e8 03 40 a9 	ldp	x8, x0, [sp]
10000ab80: a8 fe ff b5 	cbnz	x8, 0x10000ab54 <__ZN5alloc7raw_vec19RawVec$LT$T$C$A$GT$16reserve_for_push17h4e74934c9cdf59a1E+0x8c>
10000ab84: 74 02 00 a9 	stp	x20, x0, [x19]
10000ab88: fd 7b 44 a9 	ldp	x29, x30, [sp, #64]
10000ab8c: f4 4f 43 a9 	ldp	x20, x19, [sp, #48]
10000ab90: ff 43 01 91 	add	sp, sp, #80
10000ab94: c0 03 5f d6 	ret
10000ab98: 8a aa 00 94 	bl	0x1000355c0 <__ZN5alloc5alloc18handle_alloc_error17h1d9de7391f28bb67E>

000000010000ab9c <__ZN5alloc7raw_vec19RawVec$LT$T$C$A$GT$16reserve_for_push17h545d7d9dfaea75f3E>:
10000ab9c: ff 43 01 d1 	sub	sp, sp, #80
10000aba0: f4 4f 03 a9 	stp	x20, x19, [sp, #48]
10000aba4: fd 7b 04 a9 	stp	x29, x30, [sp, #64]
10000aba8: fd 03 01 91 	add	x29, sp, #64
10000abac: 29 04 00 b1 	adds	x9, x1, #1
10000abb0: c2 03 00 54 	b.hs	0x10000ac28 <__ZN5alloc7raw_vec19RawVec$LT$T$C$A$GT$16reserve_for_push17h545d7d9dfaea75f3E+0x8c>
10000abb4: f3 03 00 aa 	mov	x19, x0
10000abb8: 08 00 40 f9 	ldr	x8, [x0]
10000abbc: 0a f9 7f d3 	lsl	x10, x8, #1
10000abc0: 5f 01 09 eb 	cmp	x10, x9
10000abc4: 49 81 89 9a 	csel	x9, x10, x9, hi
10000abc8: 8a 00 80 52 	mov	w10, #4
10000abcc: 3f 11 00 f1 	cmp	x9, #4
10000abd0: 34 81 8a 9a 	csel	x20, x9, x10, hi
10000abd4: 81 f6 7e d3 	lsl	x1, x20, #2
10000abd8: 89 fe 7d d3 	lsr	x9, x20, #61
10000abdc: 3f 01 00 f1 	cmp	x9, #0
10000abe0: e9 17 9f 1a 	cset	w9, eq
10000abe4: 22 f9 7f d3 	lsl	x2, x9, #1
10000abe8: 28 02 00 b4 	cbz	x8, 0x10000ac2c <__ZN5alloc7raw_vec19RawVec$LT$T$C$A$GT$16reserve_for_push17h545d7d9dfaea75f3E+0x90>
10000abec: 69 06 40 f9 	ldr	x9, [x19, #8]
10000abf0: 08 f5 7e d3 	lsl	x8, x8, #2
10000abf4: e9 a3 01 a9 	stp	x9, x8, [sp, #24]
10000abf8: 48 00 80 52 	mov	w8, #2
10000abfc: e8 17 00 f9 	str	x8, [sp, #40]
10000ac00: e0 03 00 91 	mov	x0, sp
10000ac04: e3 63 00 91 	add	x3, sp, #24
10000ac08: 61 fe ff 97 	bl	0x10000a58c <__ZN5alloc7raw_vec11finish_grow17h74a07193fb2e5d82E>
10000ac0c: e8 03 40 a9 	ldp	x8, x0, [sp]
10000ac10: a8 01 00 b4 	cbz	x8, 0x10000ac44 <__ZN5alloc7raw_vec19RawVec$LT$T$C$A$GT$16reserve_for_push17h545d7d9dfaea75f3E+0xa8>
10000ac14: e1 0b 40 f9 	ldr	x1, [sp, #16]
10000ac18: e8 07 41 b2 	mov	x8, #-9223372036854775807
10000ac1c: 3f 00 08 eb 	cmp	x1, x8
10000ac20: 40 01 00 54 	b.eq	0x10000ac48 <__ZN5alloc7raw_vec19RawVec$LT$T$C$A$GT$16reserve_for_push17h545d7d9dfaea75f3E+0xac>
10000ac24: a1 01 00 b5 	cbnz	x1, 0x10000ac58 <__ZN5alloc7raw_vec19RawVec$LT$T$C$A$GT$16reserve_for_push17h545d7d9dfaea75f3E+0xbc>
10000ac28: 3c 87 00 94 	bl	0x10002c918 <__ZN5alloc7raw_vec17capacity_overflow17h45560cdc8c994c33E>
10000ac2c: ff 17 00 f9 	str	xzr, [sp, #40]
10000ac30: e0 03 00 91 	mov	x0, sp
10000ac34: e3 63 00 91 	add	x3, sp, #24
10000ac38: 55 fe ff 97 	bl	0x10000a58c <__ZN5alloc7raw_vec11finish_grow17h74a07193fb2e5d82E>
10000ac3c: e8 03 40 a9 	ldp	x8, x0, [sp]
10000ac40: a8 fe ff b5 	cbnz	x8, 0x10000ac14 <__ZN5alloc7raw_vec19RawVec$LT$T$C$A$GT$16reserve_for_push17h545d7d9dfaea75f3E+0x78>
10000ac44: 74 02 00 a9 	stp	x20, x0, [x19]
10000ac48: fd 7b 44 a9 	ldp	x29, x30, [sp, #64]
10000ac4c: f4 4f 43 a9 	ldp	x20, x19, [sp, #48]
10000ac50: ff 43 01 91 	add	sp, sp, #80
10000ac54: c0 03 5f d6 	ret
10000ac58: 5a aa 00 94 	bl	0x1000355c0 <__ZN5alloc5alloc18handle_alloc_error17h1d9de7391f28bb67E>

000000010000ac5c <__ZN5alloc7raw_vec19RawVec$LT$T$C$A$GT$16reserve_for_push17h73b54fc320783f93E>:
10000ac5c: ff 43 01 d1 	sub	sp, sp, #80
10000ac60: f4 4f 03 a9 	stp	x20, x19, [sp, #48]
10000ac64: fd 7b 04 a9 	stp	x29, x30, [sp, #64]
10000ac68: fd 03 01 91 	add	x29, sp, #64
10000ac6c: 29 04 00 b1 	adds	x9, x1, #1
10000ac70: 62 04 00 54 	b.hs	0x10000acfc <__ZN5alloc7raw_vec19RawVec$LT$T$C$A$GT$16reserve_for_push17h73b54fc320783f93E+0xa0>
10000ac74: f3 03 00 aa 	mov	x19, x0
10000ac78: 08 00 40 f9 	ldr	x8, [x0]
10000ac7c: 0a f9 7f d3 	lsl	x10, x8, #1
10000ac80: 5f 01 09 eb 	cmp	x10, x9
10000ac84: 49 81 89 9a 	csel	x9, x10, x9, hi
10000ac88: 8a 00 80 52 	mov	w10, #4
10000ac8c: 3f 11 00 f1 	cmp	x9, #4
10000ac90: 34 81 8a 9a 	csel	x20, x9, x10, hi
10000ac94: e9 38 8e d2 	mov	x9, #29127
10000ac98: 89 e3 b8 f2 	movk	x9, #50972, lsl #16
10000ac9c: 29 8e c3 f2 	movk	x9, #7281, lsl #32
10000aca0: e9 38 e0 f2 	movk	x9, #455, lsl #48
10000aca4: 9f 02 09 eb 	cmp	x20, x9
10000aca8: 89 0e 14 8b 	add	x9, x20, x20, lsl #3
10000acac: ea 87 9f 1a 	cset	w10, ls
10000acb0: 21 f1 7d d3 	lsl	x1, x9, #3
10000acb4: 42 f1 7d d3 	lsl	x2, x10, #3
10000acb8: 48 02 00 b4 	cbz	x8, 0x10000ad00 <__ZN5alloc7raw_vec19RawVec$LT$T$C$A$GT$16reserve_for_push17h73b54fc320783f93E+0xa4>
10000acbc: 69 06 40 f9 	ldr	x9, [x19, #8]
10000acc0: 08 0d 08 8b 	add	x8, x8, x8, lsl #3
10000acc4: 08 f1 7d d3 	lsl	x8, x8, #3
10000acc8: e9 a3 01 a9 	stp	x9, x8, [sp, #24]
10000accc: 08 01 80 52 	mov	w8, #8
10000acd0: e8 17 00 f9 	str	x8, [sp, #40]
10000acd4: e0 03 00 91 	mov	x0, sp
10000acd8: e3 63 00 91 	add	x3, sp, #24
10000acdc: 2c fe ff 97 	bl	0x10000a58c <__ZN5alloc7raw_vec11finish_grow17h74a07193fb2e5d82E>
10000ace0: e8 03 40 a9 	ldp	x8, x0, [sp]
10000ace4: a8 01 00 b4 	cbz	x8, 0x10000ad18 <__ZN5alloc7raw_vec19RawVec$LT$T$C$A$GT$16reserve_for_push17h73b54fc320783f93E+0xbc>
10000ace8: e1 0b 40 f9 	ldr	x1, [sp, #16]
10000acec: e8 07 41 b2 	mov	x8, #-9223372036854775807
10000acf0: 3f 00 08 eb 	cmp	x1, x8
10000acf4: 40 01 00 54 	b.eq	0x10000ad1c <__ZN5alloc7raw_vec19RawVec$LT$T$C$A$GT$16reserve_for_push17h73b54fc320783f93E+0xc0>
10000acf8: a1 01 00 b5 	cbnz	x1, 0x10000ad2c <__ZN5alloc7raw_vec19RawVec$LT$T$C$A$GT$16reserve_for_push17h73b54fc320783f93E+0xd0>
10000acfc: 07 87 00 94 	bl	0x10002c918 <__ZN5alloc7raw_vec17capacity_overflow17h45560cdc8c994c33E>
10000ad00: ff 17 00 f9 	str	xzr, [sp, #40]
10000ad04: e0 03 00 91 	mov	x0, sp
10000ad08: e3 63 00 91 	add	x3, sp, #24
10000ad0c: 20 fe ff 97 	bl	0x10000a58c <__ZN5alloc7raw_vec11finish_grow17h74a07193fb2e5d82E>
10000ad10: e8 03 40 a9 	ldp	x8, x0, [sp]
10000ad14: a8 fe ff b5 	cbnz	x8, 0x10000ace8 <__ZN5alloc7raw_vec19RawVec$LT$T$C$A$GT$16reserve_for_push17h73b54fc320783f93E+0x8c>
10000ad18: 74 02 00 a9 	stp	x20, x0, [x19]
10000ad1c: fd 7b 44 a9 	ldp	x29, x30, [sp, #64]
10000ad20: f4 4f 43 a9 	ldp	x20, x19, [sp, #48]
10000ad24: ff 43 01 91 	add	sp, sp, #80
10000ad28: c0 03 5f d6 	ret
10000ad2c: 25 aa 00 94 	bl	0x1000355c0 <__ZN5alloc5alloc18handle_alloc_error17h1d9de7391f28bb67E>

000000010000ad30 <__ZN5alloc7raw_vec19RawVec$LT$T$C$A$GT$16reserve_for_push17ha2d92b590ae33d16E>:
10000ad30: ff 43 01 d1 	sub	sp, sp, #80
10000ad34: f4 4f 03 a9 	stp	x20, x19, [sp, #48]
10000ad38: fd 7b 04 a9 	stp	x29, x30, [sp, #64]
10000ad3c: fd 03 01 91 	add	x29, sp, #64
10000ad40: 29 04 00 b1 	adds	x9, x1, #1
10000ad44: 82 03 00 54 	b.hs	0x10000adb4 <__ZN5alloc7raw_vec19RawVec$LT$T$C$A$GT$16reserve_for_push17ha2d92b590ae33d16E+0x84>
10000ad48: f3 03 00 aa 	mov	x19, x0
10000ad4c: 08 00 40 f9 	ldr	x8, [x0]
10000ad50: 0a f9 7f d3 	lsl	x10, x8, #1
10000ad54: 5f 01 09 eb 	cmp	x10, x9
10000ad58: 49 81 89 9a 	csel	x9, x10, x9, hi
10000ad5c: 0a 01 80 52 	mov	w10, #8
10000ad60: 3f 21 00 f1 	cmp	x9, #8
10000ad64: 34 81 8a 9a 	csel	x20, x9, x10, hi
10000ad68: e9 03 34 aa 	mvn	x9, x20
10000ad6c: 22 fd 7f d3 	lsr	x2, x9, #63
10000ad70: 48 02 00 b4 	cbz	x8, 0x10000adb8 <__ZN5alloc7raw_vec19RawVec$LT$T$C$A$GT$16reserve_for_push17ha2d92b590ae33d16E+0x88>
10000ad74: 69 06 40 f9 	ldr	x9, [x19, #8]
10000ad78: ea 03 28 aa 	mvn	x10, x8
10000ad7c: 4a fd 7f d3 	lsr	x10, x10, #63
10000ad80: e9 a3 01 a9 	stp	x9, x8, [sp, #24]
10000ad84: ea 17 00 f9 	str	x10, [sp, #40]
10000ad88: e0 03 00 91 	mov	x0, sp
10000ad8c: e3 63 00 91 	add	x3, sp, #24
10000ad90: e1 03 14 aa 	mov	x1, x20
10000ad94: fe fd ff 97 	bl	0x10000a58c <__ZN5alloc7raw_vec11finish_grow17h74a07193fb2e5d82E>
10000ad98: e8 03 40 a9 	ldp	x8, x0, [sp]
10000ad9c: c8 01 00 b4 	cbz	x8, 0x10000add4 <__ZN5alloc7raw_vec19RawVec$LT$T$C$A$GT$16reserve_for_push17ha2d92b590ae33d16E+0xa4>
10000ada0: e1 0b 40 f9 	ldr	x1, [sp, #16]
10000ada4: e8 07 41 b2 	mov	x8, #-9223372036854775807
10000ada8: 3f 00 08 eb 	cmp	x1, x8
10000adac: 60 01 00 54 	b.eq	0x10000add8 <__ZN5alloc7raw_vec19RawVec$LT$T$C$A$GT$16reserve_for_push17ha2d92b590ae33d16E+0xa8>
10000adb0: c1 01 00 b5 	cbnz	x1, 0x10000ade8 <__ZN5alloc7raw_vec19RawVec$LT$T$C$A$GT$16reserve_for_push17ha2d92b590ae33d16E+0xb8>
10000adb4: d9 86 00 94 	bl	0x10002c918 <__ZN5alloc7raw_vec17capacity_overflow17h45560cdc8c994c33E>
10000adb8: ff 17 00 f9 	str	xzr, [sp, #40]
10000adbc: e0 03 00 91 	mov	x0, sp
10000adc0: e3 63 00 91 	add	x3, sp, #24
10000adc4: e1 03 14 aa 	mov	x1, x20
10000adc8: f1 fd ff 97 	bl	0x10000a58c <__ZN5alloc7raw_vec11finish_grow17h74a07193fb2e5d82E>
10000adcc: e8 03 40 a9 	ldp	x8, x0, [sp]
10000add0: 88 fe ff b5 	cbnz	x8, 0x10000ada0 <__ZN5alloc7raw_vec19RawVec$LT$T$C$A$GT$16reserve_for_push17ha2d92b590ae33d16E+0x70>
10000add4: 74 02 00 a9 	stp	x20, x0, [x19]
10000add8: fd 7b 44 a9 	ldp	x29, x30, [sp, #64]
10000addc: f4 4f 43 a9 	ldp	x20, x19, [sp, #48]
10000ade0: ff 43 01 91 	add	sp, sp, #80
10000ade4: c0 03 5f d6 	ret
10000ade8: f6 a9 00 94 	bl	0x1000355c0 <__ZN5alloc5alloc18handle_alloc_error17h1d9de7391f28bb67E>

000000010000adec <__ZN5gimli4read4line15FileEntryFormat5parse17h4e78573c85b5e2b1E>:
10000adec: ff 03 02 d1 	sub	sp, sp, #128
10000adf0: fc 6f 02 a9 	stp	x28, x27, [sp, #32]
10000adf4: fa 67 03 a9 	stp	x26, x25, [sp, #48]
10000adf8: f8 5f 04 a9 	stp	x24, x23, [sp, #64]
10000adfc: f6 57 05 a9 	stp	x22, x21, [sp, #80]
10000ae00: f4 4f 06 a9 	stp	x20, x19, [sp, #96]
10000ae04: fd 7b 07 a9 	stp	x29, x30, [sp, #112]
10000ae08: fd c3 01 91 	add	x29, sp, #112
10000ae0c: f3 03 00 aa 	mov	x19, x0
10000ae10: 36 20 40 a9 	ldp	x22, x8, [x1]
10000ae14: e8 0b 00 b4 	cbz	x8, 0x10000af90 <__ZN5gimli4read4line15FileEntryFormat5parse17h4e78573c85b5e2b1E+0x1a4>
10000ae18: f4 03 01 aa 	mov	x20, x1
10000ae1c: d7 16 40 38 	ldrb	w23, [x22], #1
10000ae20: 1a 05 00 d1 	sub	x26, x8, #1
10000ae24: 36 68 00 a9 	stp	x22, x26, [x1]
10000ae28: 57 0c 00 b4 	cbz	x23, 0x10000afb0 <__ZN5gimli4read4line15FileEntryFormat5parse17h4e78573c85b5e2b1E+0x1c4>
10000ae2c: f5 f6 7e d3 	lsl	x21, x23, #2
10000ae30: e0 03 15 aa 	mov	x0, x21
10000ae34: 41 00 80 52 	mov	w1, #2
10000ae38: 43 ea ff 97 	bl	0x100005744 <___rust_alloc>
10000ae3c: 40 12 00 b4 	cbz	x0, 0x10000b084 <__ZN5gimli4read4line15FileEntryFormat5parse17h4e78573c85b5e2b1E+0x298>
10000ae40: 01 00 80 d2 	mov	x1, #0
10000ae44: 18 00 80 52 	mov	w24, #0
10000ae48: 19 00 80 d2 	mov	x25, #0
10000ae4c: f7 83 00 a9 	stp	x23, x0, [sp, #8]
10000ae50: ee ff 9f 52 	mov	w14, #65535
10000ae54: ff 0f 00 f9 	str	xzr, [sp, #24]
10000ae58: 09 00 80 d2 	mov	x9, #0
10000ae5c: 0a 00 80 52 	mov	w10, #0
10000ae60: e8 03 1c aa 	mov	x8, x28
10000ae64: 39 07 00 91 	add	x25, x25, #1
10000ae68: eb 03 1a aa 	mov	x11, x26
10000ae6c: 1c 00 80 d2 	mov	x28, #0
10000ae70: 07 00 00 14 	b	0x10000ae8c <__ZN5gimli4read4line15FileEntryFormat5parse17h4e78573c85b5e2b1E+0xa0>
10000ae74: 8d 19 40 92 	and	x13, x12, #0x7f
10000ae78: ad 21 ca 9a 	lsl	x13, x13, x10
10000ae7c: bc 01 1c aa 	orr	x28, x13, x28
10000ae80: 4a 1d 00 11 	add	w10, w10, #7
10000ae84: 29 05 00 91 	add	x9, x9, #1
10000ae88: 8c 01 38 36 	tbz	w12, #7, 0x10000aeb8 <__ZN5gimli4read4line15FileEntryFormat5parse17h4e78573c85b5e2b1E+0xcc>
10000ae8c: cd 02 09 8b 	add	x13, x22, x9
10000ae90: 5f 03 09 eb 	cmp	x26, x9
10000ae94: 20 0a 00 54 	b.eq	0x10000afd8 <__ZN5gimli4read4line15FileEntryFormat5parse17h4e78573c85b5e2b1E+0x1ec>
10000ae98: ac 15 40 38 	ldrb	w12, [x13], #1
10000ae9c: 6b 05 00 d1 	sub	x11, x11, #1
10000aea0: 8d 2e 00 a9 	stp	x13, x11, [x20]
10000aea4: 5f fd 00 71 	cmp	w10, #63
10000aea8: 61 fe ff 54 	b.ne	0x10000ae74 <__ZN5gimli4read4line15FileEntryFormat5parse17h4e78573c85b5e2b1E+0x88>
10000aeac: 9f 09 00 71 	cmp	w12, #2
10000aeb0: 23 fe ff 54 	b.lo	0x10000ae74 <__ZN5gimli4read4line15FileEntryFormat5parse17h4e78573c85b5e2b1E+0x88>
10000aeb4: 4c 00 00 14 	b	0x10000afe4 <__ZN5gimli4read4line15FileEntryFormat5parse17h4e78573c85b5e2b1E+0x1f8>
10000aeb8: c8 02 09 8b 	add	x8, x22, x9
10000aebc: 9f 03 0e eb 	cmp	x28, x14
10000aec0: e9 ff 9f 52 	mov	w9, #65535
10000aec4: 95 33 89 9a 	csel	x21, x28, x9, lo
10000aec8: bf 06 00 71 	cmp	w21, #1
10000aecc: 18 17 98 1a 	cinc	w24, w24, eq
10000aed0: 6b 0b 00 b4 	cbz	x11, 0x10000b03c <__ZN5gimli4read4line15FileEntryFormat5parse17h4e78573c85b5e2b1E+0x250>
10000aed4: 09 05 00 d1 	sub	x9, x8, #1
10000aed8: 6a 05 00 91 	add	x10, x11, #1
10000aedc: 36 09 00 91 	add	x22, x9, #2
10000aee0: 5a 09 00 d1 	sub	x26, x10, #2
10000aee4: 96 6a 00 a9 	stp	x22, x26, [x20]
10000aee8: 0b 01 40 39 	ldrb	w11, [x8]
10000aeec: 68 19 00 12 	and	w8, w11, #0x7f
10000aef0: 2b 02 38 36 	tbz	w11, #7, 0x10000af34 <__ZN5gimli4read4line15FileEntryFormat5parse17h4e78573c85b5e2b1E+0x148>
10000aef4: ba 0a 00 b4 	cbz	x26, 0x10000b048 <__ZN5gimli4read4line15FileEntryFormat5parse17h4e78573c85b5e2b1E+0x25c>
10000aef8: 36 0d 00 91 	add	x22, x9, #3
10000aefc: 5a 0d 00 d1 	sub	x26, x10, #3
10000af00: 96 6a 00 a9 	stp	x22, x26, [x20]
10000af04: 2b 09 40 39 	ldrb	w11, [x9, #2]
10000af08: 6c 19 00 12 	and	w12, w11, #0x7f
10000af0c: 88 19 19 33 	bfi	w8, w12, #7, #7
10000af10: 2b 01 38 36 	tbz	w11, #7, 0x10000af34 <__ZN5gimli4read4line15FileEntryFormat5parse17h4e78573c85b5e2b1E+0x148>
10000af14: ba 09 00 b4 	cbz	x26, 0x10000b048 <__ZN5gimli4read4line15FileEntryFormat5parse17h4e78573c85b5e2b1E+0x25c>
10000af18: 36 11 00 91 	add	x22, x9, #4
10000af1c: 5a 11 00 d1 	sub	x26, x10, #4
10000af20: 96 6a 00 a9 	stp	x22, x26, [x20]
10000af24: 29 0d 40 39 	ldrb	w9, [x9, #3]
10000af28: 3f 0d 00 71 	cmp	w9, #3
10000af2c: 68 09 00 54 	b.hi	0x10000b058 <__ZN5gimli4read4line15FileEntryFormat5parse17h4e78573c85b5e2b1E+0x26c>
10000af30: 28 1d 12 33 	bfi	w8, w9, #14, #8
10000af34: fb 03 08 aa 	mov	x27, x8
10000af38: e8 07 40 f9 	ldr	x8, [sp, #8]
10000af3c: 3f 00 08 eb 	cmp	x1, x8
10000af40: 81 00 00 54 	b.ne	0x10000af50 <__ZN5gimli4read4line15FileEntryFormat5parse17h4e78573c85b5e2b1E+0x164>
10000af44: e0 23 00 91 	add	x0, sp, #8
10000af48: 15 ff ff 97 	bl	0x10000ab9c <__ZN5alloc7raw_vec19RawVec$LT$T$C$A$GT$16reserve_for_push17h545d7d9dfaea75f3E>
10000af4c: e0 07 41 a9 	ldp	x0, x1, [sp, #16]
10000af50: 08 08 01 8b 	add	x8, x0, x1, lsl #2
10000af54: 15 01 00 79 	strh	w21, [x8]
10000af58: 1b 05 00 79 	strh	w27, [x8, #2]
10000af5c: 21 04 00 91 	add	x1, x1, #1
10000af60: e1 0f 00 f9 	str	x1, [sp, #24]
10000af64: 3f 03 17 eb 	cmp	x25, x23
10000af68: ee ff 9f 52 	mov	w14, #65535
10000af6c: 61 f7 ff 54 	b.ne	0x10000ae58 <__ZN5gimli4read4line15FileEntryFormat5parse17h4e78573c85b5e2b1E+0x6c>
10000af70: 1f 07 00 71 	cmp	w24, #1
10000af74: 41 02 00 54 	b.ne	0x10000afbc <__ZN5gimli4read4line15FileEntryFormat5parse17h4e78573c85b5e2b1E+0x1d0>
10000af78: e0 83 c0 3c 	ldur	q0, [sp, #8]
10000af7c: 60 82 80 3c 	stur	q0, [x19, #8]
10000af80: e8 0f 40 f9 	ldr	x8, [sp, #24]
10000af84: 68 0e 00 f9 	str	x8, [x19, #24]
10000af88: 7f 02 00 f9 	str	xzr, [x19]
10000af8c: 24 00 00 14 	b	0x10000b01c <__ZN5gimli4read4line15FileEntryFormat5parse17h4e78573c85b5e2b1E+0x230>
10000af90: 68 02 80 52 	mov	w8, #19
10000af94: 68 12 00 79 	strh	w8, [x19, #8]
10000af98: 7f 1e 00 79 	strh	wzr, [x19, #14]
10000af9c: 7f a2 00 b8 	stur	wzr, [x19, #10]
10000afa0: 76 0a 00 f9 	str	x22, [x19, #16]
10000afa4: 28 00 80 52 	mov	w8, #1
10000afa8: 68 02 00 f9 	str	x8, [x19]
10000afac: 1c 00 00 14 	b	0x10000b01c <__ZN5gimli4read4line15FileEntryFormat5parse17h4e78573c85b5e2b1E+0x230>
10000afb0: 48 00 80 52 	mov	w8, #2
10000afb4: f7 a3 00 a9 	stp	x23, x8, [sp, #8]
10000afb8: ff 0f 00 f9 	str	xzr, [sp, #24]
10000afbc: 88 08 80 52 	mov	w8, #68
10000afc0: 68 22 00 39 	strb	w8, [x19, #8]
10000afc4: 28 00 80 52 	mov	w8, #1
10000afc8: 68 02 00 f9 	str	x8, [x19]
10000afcc: e8 07 40 f9 	ldr	x8, [sp, #8]
10000afd0: e8 01 00 b5 	cbnz	x8, 0x10000b00c <__ZN5gimli4read4line15FileEntryFormat5parse17h4e78573c85b5e2b1E+0x220>
10000afd4: 12 00 00 14 	b	0x10000b01c <__ZN5gimli4read4line15FileEntryFormat5parse17h4e78573c85b5e2b1E+0x230>
10000afd8: 69 02 80 52 	mov	w9, #19
10000afdc: e8 03 0d aa 	mov	x8, x13
10000afe0: 02 00 00 14 	b	0x10000afe8 <__ZN5gimli4read4line15FileEntryFormat5parse17h4e78573c85b5e2b1E+0x1fc>
10000afe4: c9 00 80 52 	mov	w9, #6
10000afe8: 69 22 00 39 	strb	w9, [x19, #8]
10000afec: 7f 26 00 39 	strb	wzr, [x19, #9]
10000aff0: 7f 1e 00 79 	strh	wzr, [x19, #14]
10000aff4: 7f a2 00 b8 	stur	wzr, [x19, #10]
10000aff8: 68 0a 00 f9 	str	x8, [x19, #16]
10000affc: 28 00 80 52 	mov	w8, #1
10000b000: 68 02 00 f9 	str	x8, [x19]
10000b004: e8 07 40 f9 	ldr	x8, [sp, #8]
10000b008: a8 00 00 b4 	cbz	x8, 0x10000b01c <__ZN5gimli4read4line15FileEntryFormat5parse17h4e78573c85b5e2b1E+0x230>
10000b00c: e0 0b 40 f9 	ldr	x0, [sp, #16]
10000b010: 01 f5 7e d3 	lsl	x1, x8, #2
10000b014: 42 00 80 52 	mov	w2, #2
10000b018: cc e9 ff 97 	bl	0x100005748 <___rust_dealloc>
10000b01c: fd 7b 47 a9 	ldp	x29, x30, [sp, #112]
10000b020: f4 4f 46 a9 	ldp	x20, x19, [sp, #96]
10000b024: f6 57 45 a9 	ldp	x22, x21, [sp, #80]
10000b028: f8 5f 44 a9 	ldp	x24, x23, [sp, #64]
10000b02c: fa 67 43 a9 	ldp	x26, x25, [sp, #48]
10000b030: fc 6f 42 a9 	ldp	x28, x27, [sp, #32]
10000b034: ff 03 02 91 	add	sp, sp, #128
10000b038: c0 03 5f d6 	ret
10000b03c: 1b 00 80 52 	mov	w27, #0
10000b040: 69 02 80 52 	mov	w9, #19
10000b044: 06 00 00 14 	b	0x10000b05c <__ZN5gimli4read4line15FileEntryFormat5parse17h4e78573c85b5e2b1E+0x270>
10000b048: 1b 00 80 52 	mov	w27, #0
10000b04c: 69 02 80 52 	mov	w9, #19
10000b050: e8 03 16 aa 	mov	x8, x22
10000b054: 02 00 00 14 	b	0x10000b05c <__ZN5gimli4read4line15FileEntryFormat5parse17h4e78573c85b5e2b1E+0x270>
10000b058: c9 00 80 52 	mov	w9, #6
10000b05c: 69 22 00 39 	strb	w9, [x19, #8]
10000b060: 7f 26 00 39 	strb	wzr, [x19, #9]
10000b064: 7b 16 00 79 	strh	w27, [x19, #10]
10000b068: 7f 0e 00 b9 	str	wzr, [x19, #12]
10000b06c: 68 0a 00 f9 	str	x8, [x19, #16]
10000b070: 28 00 80 52 	mov	w8, #1
10000b074: 68 02 00 f9 	str	x8, [x19]
10000b078: e8 07 40 f9 	ldr	x8, [sp, #8]
10000b07c: 88 fc ff b5 	cbnz	x8, 0x10000b00c <__ZN5gimli4read4line15FileEntryFormat5parse17h4e78573c85b5e2b1E+0x220>
10000b080: e7 ff ff 17 	b	0x10000b01c <__ZN5gimli4read4line15FileEntryFormat5parse17h4e78573c85b5e2b1E+0x230>
10000b084: e0 03 15 aa 	mov	x0, x21
10000b088: 41 00 80 52 	mov	w1, #2
10000b08c: 4d a9 00 94 	bl	0x1000355c0 <__ZN5alloc5alloc18handle_alloc_error17h1d9de7391f28bb67E>
10000b090: f3 03 00 aa 	mov	x19, x0
10000b094: e0 23 00 91 	add	x0, sp, #8
10000b098: 6c f0 ff 97 	bl	0x100007248 <__ZN4core3ptr78drop_in_place$LT$alloc..vec..Vec$LT$gimli..read..line..FileEntryFormat$GT$$GT$17h240da5584a553484E>
10000b09c: e0 03 13 aa 	mov	x0, x19
10000b0a0: 40 aa 00 94 	bl	0x1000359a0 <_writev+0x1000359a0>
10000b0a4: 99 a9 00 94 	bl	0x100035708 <__ZN4core9panicking19panic_cannot_unwind17h0bac00b37026e68cE>

000000010000b0a8 <__ZN5gimli4read4line15parse_attribute17h6c9a27dfeca25ea1E>:
10000b0a8: ff 43 01 d1 	sub	sp, sp, #80
10000b0ac: f4 4f 03 a9 	stp	x20, x19, [sp, #48]
10000b0b0: fd 7b 04 a9 	stp	x29, x30, [sp, #64]
10000b0b4: fd 03 01 91 	add	x29, sp, #64
10000b0b8: f3 03 00 aa 	mov	x19, x0
10000b0bc: 48 3c 08 53 	ubfx	w8, w2, #8, #8
10000b0c0: 69 3c 00 12 	and	w9, w3, #0xffff
10000b0c4: 2a 0d 00 51 	sub	w10, w9, #3
10000b0c8: 5f 95 00 71 	cmp	w10, #37
10000b0cc: 28 02 00 54 	b.hi	0x10000b110 <__ZN5gimli4read4line15parse_attribute17h6c9a27dfeca25ea1E+0x68>
10000b0d0: 29 67 15 10 	adr	x9, #175332
10000b0d4: 1f 20 03 d5 	nop
10000b0d8: 8b 00 00 10 	adr	x11, #16
10000b0dc: 2c 79 6a 78 	ldrh	w12, [x9, x10, lsl #1]
10000b0e0: 6b 09 0c 8b 	add	x11, x11, x12, lsl #2
10000b0e4: 60 01 1f d6 	br	x11
10000b0e8: 28 30 40 a9 	ldp	x8, x12, [x1]
10000b0ec: 8b 09 00 f1 	subs	x11, x12, #2
10000b0f0: 82 28 00 54 	b.hs	0x10000b600 <__ZN5gimli4read4line15parse_attribute17h6c9a27dfeca25ea1E+0x558>
10000b0f4: 09 00 80 d2 	mov	x9, #0
10000b0f8: 6a 02 80 52 	mov	w10, #19
10000b0fc: eb 03 0c aa 	mov	x11, x12
10000b100: 4c 1d 00 12 	and	w12, w10, #0xff
10000b104: 9f 2d 01 71 	cmp	w12, #75
10000b108: 81 28 00 54 	b.ne	0x10000b618 <__ZN5gimli4read4line15parse_attribute17h6c9a27dfeca25ea1E+0x570>
10000b10c: 4f 01 00 14 	b	0x10000b648 <__ZN5gimli4read4line15parse_attribute17h6c9a27dfeca25ea1E+0x5a0>
10000b110: 4a e0 83 52 	mov	w10, #7938
10000b114: 3f 01 0a 6b 	cmp	w9, w10
10000b118: 80 01 00 54 	b.eq	0x10000b148 <__ZN5gimli4read4line15parse_attribute17h6c9a27dfeca25ea1E+0xa0>
10000b11c: 2a e4 83 52 	mov	w10, #7969
10000b120: 3f 01 0a 6b 	cmp	w9, w10
10000b124: a1 03 00 54 	b.ne	0x10000b198 <__ZN5gimli4read4line15parse_attribute17h6c9a27dfeca25ea1E+0xf0>
10000b128: 1f 21 00 71 	cmp	w8, #8
10000b12c: 21 25 00 54 	b.ne	0x10000b5d0 <__ZN5gimli4read4line15parse_attribute17h6c9a27dfeca25ea1E+0x528>
10000b130: 29 20 40 a9 	ldp	x9, x8, [x1]
10000b134: 0a 21 00 f1 	subs	x10, x8, #8
10000b138: 02 38 00 54 	b.hs	0x10000b838 <__ZN5gimli4read4line15parse_attribute17h6c9a27dfeca25ea1E+0x790>
10000b13c: 08 00 80 d2 	mov	x8, #0
10000b140: 6a 02 80 52 	mov	w10, #19
10000b144: c0 01 00 14 	b	0x10000b844 <__ZN5gimli4read4line15parse_attribute17h6c9a27dfeca25ea1E+0x79c>
10000b148: 09 00 80 52 	mov	w9, #0
10000b14c: 0e 00 80 d2 	mov	x14, #0
10000b150: 28 28 40 a9 	ldp	x8, x10, [x1]
10000b154: 4a 05 00 d1 	sub	x10, x10, #1
10000b158: 07 00 00 14 	b	0x10000b174 <__ZN5gimli4read4line15parse_attribute17h6c9a27dfeca25ea1E+0xcc>
10000b15c: 6c 19 40 92 	and	x12, x11, #0x7f
10000b160: 8c 21 c9 9a 	lsl	x12, x12, x9
10000b164: 8e 01 0e aa 	orr	x14, x12, x14
10000b168: 29 1d 00 11 	add	w9, w9, #7
10000b16c: 4a 05 00 d1 	sub	x10, x10, #1
10000b170: cb 23 38 36 	tbz	w11, #7, 0x10000b5e8 <__ZN5gimli4read4line15parse_attribute17h6c9a27dfeca25ea1E+0x540>
10000b174: 5f 05 00 b1 	cmn	x10, #1
10000b178: 60 17 00 54 	b.eq	0x10000b464 <__ZN5gimli4read4line15parse_attribute17h6c9a27dfeca25ea1E+0x3bc>
10000b17c: 0b 15 40 38 	ldrb	w11, [x8], #1
10000b180: 28 28 00 a9 	stp	x8, x10, [x1]
10000b184: 3f fd 00 71 	cmp	w9, #63
10000b188: a1 fe ff 54 	b.ne	0x10000b15c <__ZN5gimli4read4line15parse_attribute17h6c9a27dfeca25ea1E+0xb4>
10000b18c: 7f 09 00 71 	cmp	w11, #2
10000b190: 63 fe ff 54 	b.lo	0x10000b15c <__ZN5gimli4read4line15parse_attribute17h6c9a27dfeca25ea1E+0xb4>
10000b194: b2 00 00 14 	b	0x10000b45c <__ZN5gimli4read4line15parse_attribute17h6c9a27dfeca25ea1E+0x3b4>
10000b198: 88 01 80 52 	mov	w8, #12
10000b19c: 68 22 00 39 	strb	w8, [x19, #8]
10000b1a0: 3f 02 00 14 	b	0x10000ba9c <__ZN5gimli4read4line15parse_attribute17h6c9a27dfeca25ea1E+0x9f4>
10000b1a4: 28 30 40 a9 	ldp	x8, x12, [x1]
10000b1a8: 8b 11 00 f1 	subs	x11, x12, #4
10000b1ac: 22 24 00 54 	b.hs	0x10000b630 <__ZN5gimli4read4line15parse_attribute17h6c9a27dfeca25ea1E+0x588>
10000b1b0: 09 00 80 d2 	mov	x9, #0
10000b1b4: 6a 02 80 52 	mov	w10, #19
10000b1b8: eb 03 0c aa 	mov	x11, x12
10000b1bc: 4c 1d 00 12 	and	w12, w10, #0xff
10000b1c0: 9f 2d 01 71 	cmp	w12, #75
10000b1c4: 20 24 00 54 	b.eq	0x10000b648 <__ZN5gimli4read4line15parse_attribute17h6c9a27dfeca25ea1E+0x5a0>
10000b1c8: 89 01 00 14 	b	0x10000b7ec <__ZN5gimli4read4line15parse_attribute17h6c9a27dfeca25ea1E+0x744>
10000b1cc: 29 20 40 a9 	ldp	x9, x8, [x1]
10000b1d0: 0a 09 00 f1 	subs	x10, x8, #2
10000b1d4: 22 25 00 54 	b.hs	0x10000b678 <__ZN5gimli4read4line15parse_attribute17h6c9a27dfeca25ea1E+0x5d0>
10000b1d8: 08 00 80 52 	mov	w8, #0
10000b1dc: 6a 02 80 52 	mov	w10, #19
10000b1e0: 4b 1d 00 12 	and	w11, w10, #0xff
10000b1e4: 7f 2d 01 71 	cmp	w11, #75
10000b1e8: 40 25 00 54 	b.eq	0x10000b690 <__ZN5gimli4read4line15parse_attribute17h6c9a27dfeca25ea1E+0x5e8>
10000b1ec: ff 13 00 79 	strh	wzr, [sp, #8]
10000b1f0: ff a3 00 b8 	stur	wzr, [sp, #10]
10000b1f4: e8 93 40 78 	ldurh	w8, [sp, #9]
10000b1f8: 6a 22 00 39 	strb	w10, [x19, #8]
10000b1fc: 7f 26 00 39 	strb	wzr, [x19, #9]
10000b200: 68 16 00 79 	strh	w8, [x19, #10]
10000b204: 7f 0e 00 b9 	str	wzr, [x19, #12]
10000b208: 24 02 00 14 	b	0x10000ba98 <__ZN5gimli4read4line15parse_attribute17h6c9a27dfeca25ea1E+0x9f0>
10000b20c: 29 20 40 a9 	ldp	x9, x8, [x1]
10000b210: 0a 11 00 f1 	subs	x10, x8, #4
10000b214: 82 24 00 54 	b.hs	0x10000b6a4 <__ZN5gimli4read4line15parse_attribute17h6c9a27dfeca25ea1E+0x5fc>
10000b218: 08 00 80 52 	mov	w8, #0
10000b21c: 6a 02 80 52 	mov	w10, #19
10000b220: 4b 1d 00 12 	and	w11, w10, #0xff
10000b224: 7f 2d 01 71 	cmp	w11, #75
10000b228: a0 24 00 54 	b.eq	0x10000b6bc <__ZN5gimli4read4line15parse_attribute17h6c9a27dfeca25ea1E+0x614>
10000b22c: ff 0b 00 b9 	str	wzr, [sp, #8]
10000b230: ff 3b 00 39 	strb	wzr, [sp, #14]
10000b234: ff 1b 00 79 	strh	wzr, [sp, #12]
10000b238: e8 b3 40 b8 	ldur	w8, [sp, #11]
10000b23c: ff 43 00 79 	strh	wzr, [sp, #32]
10000b240: eb 5f 10 53 	ubfx	w11, wzr, #16, #8
10000b244: eb 8b 00 39 	strb	w11, [sp, #34]
10000b248: 7f 92 00 78 	sturh	wzr, [x19, #9]
10000b24c: 6b 2e 00 39 	strb	w11, [x19, #11]
10000b250: 6a 22 00 39 	strb	w10, [x19, #8]
10000b254: 68 0e 00 b9 	str	w8, [x19, #12]
10000b258: 10 02 00 14 	b	0x10000ba98 <__ZN5gimli4read4line15parse_attribute17h6c9a27dfeca25ea1E+0x9f0>
10000b25c: 29 20 40 a9 	ldp	x9, x8, [x1]
10000b260: 08 21 00 f1 	subs	x8, x8, #8
10000b264: 62 23 00 54 	b.hs	0x10000b6d0 <__ZN5gimli4read4line15parse_attribute17h6c9a27dfeca25ea1E+0x628>
10000b268: 0e 00 80 d2 	mov	x14, #0
10000b26c: 68 02 80 52 	mov	w8, #19
10000b270: 0a 1d 00 12 	and	w10, w8, #0xff
10000b274: 5f 2d 01 71 	cmp	w10, #75
10000b278: 80 23 00 54 	b.eq	0x10000b6e8 <__ZN5gimli4read4line15parse_attribute17h6c9a27dfeca25ea1E+0x640>
10000b27c: ff 3b 00 39 	strb	wzr, [sp, #14]
10000b280: ff 1b 00 79 	strh	wzr, [sp, #12]
10000b284: ff 0b 00 b9 	str	wzr, [sp, #8]
10000b288: e9 f3 00 f8 	stur	x9, [sp, #15]
10000b28c: e9 07 40 f9 	ldr	x9, [sp, #8]
10000b290: ea 13 40 b9 	ldr	w10, [sp, #16]
10000b294: ea 2b 00 b9 	str	w10, [sp, #40]
10000b298: ea 33 41 b8 	ldur	w10, [sp, #19]
10000b29c: ea b3 02 b8 	stur	w10, [sp, #43]
10000b2a0: e9 13 00 f9 	str	x9, [sp, #32]
10000b2a4: ea 73 42 f8 	ldur	x10, [sp, #39]
10000b2a8: e9 1b 00 b9 	str	w9, [sp, #24]
10000b2ac: e9 33 42 b8 	ldur	w9, [sp, #35]
10000b2b0: e9 b3 01 b8 	stur	w9, [sp, #27]
10000b2b4: e9 1b 40 b9 	ldr	w9, [sp, #24]
10000b2b8: 69 92 00 b8 	stur	w9, [x19, #9]
10000b2bc: e9 b3 41 b8 	ldur	w9, [sp, #27]
10000b2c0: 69 0e 00 b9 	str	w9, [x19, #12]
10000b2c4: 68 22 00 39 	strb	w8, [x19, #8]
10000b2c8: 6a 0a 00 f9 	str	x10, [x19, #16]
10000b2cc: f4 01 00 14 	b	0x10000ba9c <__ZN5gimli4read4line15parse_attribute17h6c9a27dfeca25ea1E+0x9f4>
10000b2d0: 28 28 40 a9 	ldp	x8, x10, [x1]
10000b2d4: ea 1b 00 b4 	cbz	x10, 0x10000b650 <__ZN5gimli4read4line15parse_attribute17h6c9a27dfeca25ea1E+0x5a8>
10000b2d8: 09 00 80 d2 	mov	x9, #0
10000b2dc: 0b 69 69 38 	ldrb	w11, [x8, x9]
10000b2e0: 6b 31 00 34 	cbz	w11, 0x10000b90c <__ZN5gimli4read4line15parse_attribute17h6c9a27dfeca25ea1E+0x864>
10000b2e4: 29 05 00 91 	add	x9, x9, #1
10000b2e8: 5f 01 09 eb 	cmp	x10, x9
10000b2ec: 81 ff ff 54 	b.ne	0x10000b2dc <__ZN5gimli4read4line15parse_attribute17h6c9a27dfeca25ea1E+0x234>
10000b2f0: d8 00 00 14 	b	0x10000b650 <__ZN5gimli4read4line15parse_attribute17h6c9a27dfeca25ea1E+0x5a8>
10000b2f4: 0b 00 80 52 	mov	w11, #0
10000b2f8: 09 00 80 d2 	mov	x9, #0
10000b2fc: 28 28 40 a9 	ldp	x8, x10, [x1]
10000b300: 06 00 00 14 	b	0x10000b318 <__ZN5gimli4read4line15parse_attribute17h6c9a27dfeca25ea1E+0x270>
10000b304: 8d 19 40 92 	and	x13, x12, #0x7f
10000b308: ad 21 cb 9a 	lsl	x13, x13, x11
10000b30c: a9 01 09 aa 	orr	x9, x13, x9
10000b310: 6b 1d 00 11 	add	w11, w11, #7
10000b314: ec 01 38 36 	tbz	w12, #7, 0x10000b350 <__ZN5gimli4read4line15parse_attribute17h6c9a27dfeca25ea1E+0x2a8>
10000b318: 6a 0a 00 b4 	cbz	x10, 0x10000b464 <__ZN5gimli4read4line15parse_attribute17h6c9a27dfeca25ea1E+0x3bc>
10000b31c: 0c 15 40 38 	ldrb	w12, [x8], #1
10000b320: 4a 05 00 d1 	sub	x10, x10, #1
10000b324: 28 28 00 a9 	stp	x8, x10, [x1]
10000b328: 7f fd 00 71 	cmp	w11, #63
10000b32c: c1 fe ff 54 	b.ne	0x10000b304 <__ZN5gimli4read4line15parse_attribute17h6c9a27dfeca25ea1E+0x25c>
10000b330: 9f 09 00 71 	cmp	w12, #2
10000b334: 83 fe ff 54 	b.lo	0x10000b304 <__ZN5gimli4read4line15parse_attribute17h6c9a27dfeca25ea1E+0x25c>
10000b338: 49 00 00 14 	b	0x10000b45c <__ZN5gimli4read4line15parse_attribute17h6c9a27dfeca25ea1E+0x3b4>
10000b33c: 28 28 40 a9 	ldp	x8, x10, [x1]
10000b340: 0a 2a 00 b4 	cbz	x10, 0x10000b880 <__ZN5gimli4read4line15parse_attribute17h6c9a27dfeca25ea1E+0x7d8>
10000b344: 09 15 40 38 	ldrb	w9, [x8], #1
10000b348: 4a 05 00 d1 	sub	x10, x10, #1
10000b34c: 28 28 00 a9 	stp	x8, x10, [x1]
10000b350: 4b 01 09 eb 	subs	x11, x10, x9
10000b354: e3 17 00 54 	b.lo	0x10000b650 <__ZN5gimli4read4line15parse_attribute17h6c9a27dfeca25ea1E+0x5a8>
10000b358: c1 00 00 14 	b	0x10000b65c <__ZN5gimli4read4line15parse_attribute17h6c9a27dfeca25ea1E+0x5b4>
10000b35c: 29 28 40 a9 	ldp	x9, x10, [x1]
10000b360: 6a 29 00 b4 	cbz	x10, 0x10000b88c <__ZN5gimli4read4line15parse_attribute17h6c9a27dfeca25ea1E+0x7e4>
10000b364: 28 15 40 38 	ldrb	w8, [x9], #1
10000b368: 4a 05 00 d1 	sub	x10, x10, #1
10000b36c: 29 28 00 a9 	stp	x9, x10, [x1]
10000b370: 6a 09 80 52 	mov	w10, #75
10000b374: 4b 1d 00 12 	and	w11, w10, #0xff
10000b378: 7f 2d 01 71 	cmp	w11, #75
10000b37c: 20 29 00 54 	b.eq	0x10000b8a0 <__ZN5gimli4read4line15parse_attribute17h6c9a27dfeca25ea1E+0x7f8>
10000b380: 5e 01 00 14 	b	0x10000b8f8 <__ZN5gimli4read4line15parse_attribute17h6c9a27dfeca25ea1E+0x850>
10000b384: 28 28 40 a9 	ldp	x8, x10, [x1]
10000b388: 6a 29 00 b4 	cbz	x10, 0x10000b8b4 <__ZN5gimli4read4line15parse_attribute17h6c9a27dfeca25ea1E+0x80c>
10000b38c: 09 15 40 38 	ldrb	w9, [x8], #1
10000b390: 4a 05 00 d1 	sub	x10, x10, #1
10000b394: 28 28 00 a9 	stp	x8, x10, [x1]
10000b398: 6a 09 80 52 	mov	w10, #75
10000b39c: 4b 1d 00 12 	and	w11, w10, #0xff
10000b3a0: 7f 2d 01 71 	cmp	w11, #75
10000b3a4: 21 29 00 54 	b.ne	0x10000b8c8 <__ZN5gimli4read4line15parse_attribute17h6c9a27dfeca25ea1E+0x820>
10000b3a8: 0a 00 80 52 	mov	w10, #0
10000b3ac: 0b 00 80 52 	mov	w11, #0
10000b3b0: 0c 00 80 d2 	mov	x12, #0
10000b3b4: 3f 01 00 71 	cmp	w9, #0
10000b3b8: e8 07 9f 1a 	cset	w8, ne
10000b3bc: 2d 01 80 52 	mov	w13, #9
10000b3c0: a3 01 00 14 	b	0x10000ba4c <__ZN5gimli4read4line15parse_attribute17h6c9a27dfeca25ea1E+0x9a4>
10000b3c4: e0 23 00 91 	add	x0, sp, #8
10000b3c8: b1 09 00 94 	bl	0x10000da8c <__ZN5gimli4read6reader6Reader12read_sleb12817ha5e157350d885e99E>
10000b3cc: e8 23 40 39 	ldrb	w8, [sp, #8]
10000b3d0: 1f 2d 01 71 	cmp	w8, #75
10000b3d4: 61 19 00 54 	b.ne	0x10000b700 <__ZN5gimli4read4line15parse_attribute17h6c9a27dfeca25ea1E+0x658>
10000b3d8: e8 0b 40 f9 	ldr	x8, [sp, #16]
10000b3dc: 0a 3d 08 53 	ubfx	w10, w8, #8, #8
10000b3e0: 0b 3d 10 12 	and	w11, w8, #0xffff0000
10000b3e4: 0c 7d 60 92 	and	x12, x8, #0xffffffff00000000
10000b3e8: cd 00 80 52 	mov	w13, #6
10000b3ec: 98 01 00 14 	b	0x10000ba4c <__ZN5gimli4read4line15parse_attribute17h6c9a27dfeca25ea1E+0x9a4>
10000b3f0: 1f 21 00 71 	cmp	w8, #8
10000b3f4: c1 19 00 54 	b.ne	0x10000b72c <__ZN5gimli4read4line15parse_attribute17h6c9a27dfeca25ea1E+0x684>
10000b3f8: 29 20 40 a9 	ldp	x9, x8, [x1]
10000b3fc: 0a 21 00 f1 	subs	x10, x8, #8
10000b400: 62 2a 00 54 	b.hs	0x10000b94c <__ZN5gimli4read4line15parse_attribute17h6c9a27dfeca25ea1E+0x8a4>
10000b404: 08 00 80 d2 	mov	x8, #0
10000b408: 6a 02 80 52 	mov	w10, #19
10000b40c: 53 01 00 14 	b	0x10000b958 <__ZN5gimli4read4line15parse_attribute17h6c9a27dfeca25ea1E+0x8b0>
10000b410: 09 00 80 52 	mov	w9, #0
10000b414: 0e 00 80 d2 	mov	x14, #0
10000b418: 28 28 40 a9 	ldp	x8, x10, [x1]
10000b41c: 4a 05 00 d1 	sub	x10, x10, #1
10000b420: 07 00 00 14 	b	0x10000b43c <__ZN5gimli4read4line15parse_attribute17h6c9a27dfeca25ea1E+0x394>
10000b424: 6c 19 40 92 	and	x12, x11, #0x7f
10000b428: 8c 21 c9 9a 	lsl	x12, x12, x9
10000b42c: 8e 01 0e aa 	orr	x14, x12, x14
10000b430: 29 1d 00 11 	add	w9, w9, #7
10000b434: 4a 05 00 d1 	sub	x10, x10, #1
10000b438: eb 27 38 36 	tbz	w11, #7, 0x10000b934 <__ZN5gimli4read4line15parse_attribute17h6c9a27dfeca25ea1E+0x88c>
10000b43c: 5f 05 00 b1 	cmn	x10, #1
10000b440: 20 01 00 54 	b.eq	0x10000b464 <__ZN5gimli4read4line15parse_attribute17h6c9a27dfeca25ea1E+0x3bc>
10000b444: 0b 15 40 38 	ldrb	w11, [x8], #1
10000b448: 28 28 00 a9 	stp	x8, x10, [x1]
10000b44c: 3f fd 00 71 	cmp	w9, #63
10000b450: a1 fe ff 54 	b.ne	0x10000b424 <__ZN5gimli4read4line15parse_attribute17h6c9a27dfeca25ea1E+0x37c>
10000b454: 7f 09 00 71 	cmp	w11, #2
10000b458: 63 fe ff 54 	b.lo	0x10000b424 <__ZN5gimli4read4line15parse_attribute17h6c9a27dfeca25ea1E+0x37c>
10000b45c: c9 00 80 52 	mov	w9, #6
10000b460: 02 00 00 14 	b	0x10000b468 <__ZN5gimli4read4line15parse_attribute17h6c9a27dfeca25ea1E+0x3c0>
10000b464: 69 02 80 52 	mov	w9, #19
10000b468: 69 22 00 39 	strb	w9, [x19, #8]
10000b46c: 7f 26 00 39 	strb	wzr, [x19, #9]
10000b470: 7f 1e 00 79 	strh	wzr, [x19, #14]
10000b474: 7f a2 00 b8 	stur	wzr, [x19, #10]
10000b478: 68 0a 00 f9 	str	x8, [x19, #16]
10000b47c: 88 01 00 14 	b	0x10000ba9c <__ZN5gimli4read4line15parse_attribute17h6c9a27dfeca25ea1E+0x9f4>
10000b480: 28 24 40 a9 	ldp	x8, x9, [x1]
10000b484: 29 41 00 f1 	subs	x9, x9, #16
10000b488: 43 0e 00 54 	b.lo	0x10000b650 <__ZN5gimli4read4line15parse_attribute17h6c9a27dfeca25ea1E+0x5a8>
10000b48c: 0c 41 00 91 	add	x12, x8, #16
10000b490: 0a 3d 08 53 	ubfx	w10, w8, #8, #8
10000b494: 0b 3d 10 12 	and	w11, w8, #0xffff0000
10000b498: 2c 24 00 a9 	stp	x12, x9, [x1]
10000b49c: 0c 7d 60 92 	and	x12, x8, #0xffffffff00000000
10000b4a0: 2d 00 80 52 	mov	w13, #1
10000b4a4: 09 02 80 52 	mov	w9, #16
10000b4a8: 69 01 00 14 	b	0x10000ba4c <__ZN5gimli4read4line15parse_attribute17h6c9a27dfeca25ea1E+0x9a4>
10000b4ac: 1f 21 00 71 	cmp	w8, #8
10000b4b0: a1 14 00 54 	b.ne	0x10000b744 <__ZN5gimli4read4line15parse_attribute17h6c9a27dfeca25ea1E+0x69c>
10000b4b4: 29 20 40 a9 	ldp	x9, x8, [x1]
10000b4b8: 0a 21 00 f1 	subs	x10, x8, #8
10000b4bc: 62 25 00 54 	b.hs	0x10000b968 <__ZN5gimli4read4line15parse_attribute17h6c9a27dfeca25ea1E+0x8c0>
10000b4c0: 08 00 80 d2 	mov	x8, #0
10000b4c4: 6a 02 80 52 	mov	w10, #19
10000b4c8: 2b 01 00 14 	b	0x10000b974 <__ZN5gimli4read4line15parse_attribute17h6c9a27dfeca25ea1E+0x8cc>
10000b4cc: 29 28 40 a9 	ldp	x9, x10, [x1]
10000b4d0: 0a 20 00 b4 	cbz	x10, 0x10000b8d0 <__ZN5gimli4read4line15parse_attribute17h6c9a27dfeca25ea1E+0x828>
10000b4d4: 28 15 40 38 	ldrb	w8, [x9], #1
10000b4d8: 4a 05 00 d1 	sub	x10, x10, #1
10000b4dc: 29 28 00 a9 	stp	x9, x10, [x1]
10000b4e0: 6a 09 80 52 	mov	w10, #75
10000b4e4: 4b 1d 00 12 	and	w11, w10, #0xff
10000b4e8: 7f 2d 01 71 	cmp	w11, #75
10000b4ec: 61 20 00 54 	b.ne	0x10000b8f8 <__ZN5gimli4read4line15parse_attribute17h6c9a27dfeca25ea1E+0x850>
10000b4f0: fd 00 00 14 	b	0x10000b8e4 <__ZN5gimli4read4line15parse_attribute17h6c9a27dfeca25ea1E+0x83c>
10000b4f4: 29 20 40 a9 	ldp	x9, x8, [x1]
10000b4f8: 0a 09 00 f1 	subs	x10, x8, #2
10000b4fc: 02 13 00 54 	b.hs	0x10000b75c <__ZN5gimli4read4line15parse_attribute17h6c9a27dfeca25ea1E+0x6b4>
10000b500: 08 00 80 52 	mov	w8, #0
10000b504: 6a 02 80 52 	mov	w10, #19
10000b508: 4b 1d 00 12 	and	w11, w10, #0xff
10000b50c: 7f 2d 01 71 	cmp	w11, #75
10000b510: 20 13 00 54 	b.eq	0x10000b774 <__ZN5gimli4read4line15parse_attribute17h6c9a27dfeca25ea1E+0x6cc>
10000b514: ff 13 00 79 	strh	wzr, [sp, #8]
10000b518: ff a3 00 b8 	stur	wzr, [sp, #10]
10000b51c: ff 3b 00 39 	strb	wzr, [sp, #14]
10000b520: e8 0b 40 b9 	ldr	w8, [sp, #8]
10000b524: e8 23 00 b9 	str	w8, [sp, #32]
10000b528: 1a 00 00 14 	b	0x10000b590 <__ZN5gimli4read4line15parse_attribute17h6c9a27dfeca25ea1E+0x4e8>
10000b52c: 29 20 40 a9 	ldp	x9, x8, [x1]
10000b530: 08 0d 00 f1 	subs	x8, x8, #3
10000b534: a2 12 00 54 	b.hs	0x10000b788 <__ZN5gimli4read4line15parse_attribute17h6c9a27dfeca25ea1E+0x6e0>
10000b538: 08 00 80 d2 	mov	x8, #0
10000b53c: 6a 02 80 52 	mov	w10, #19
10000b540: 4b 1d 00 12 	and	w11, w10, #0xff
10000b544: 7f 2d 01 71 	cmp	w11, #75
10000b548: 20 13 00 54 	b.eq	0x10000b7ac <__ZN5gimli4read4line15parse_attribute17h6c9a27dfeca25ea1E+0x704>
10000b54c: 6a 22 00 39 	strb	w10, [x19, #8]
10000b550: 7f 3e 00 39 	strb	wzr, [x19, #15]
10000b554: 7f d2 00 78 	sturh	wzr, [x19, #13]
10000b558: 7f 92 00 b8 	stur	wzr, [x19, #9]
10000b55c: 4f 01 00 14 	b	0x10000ba98 <__ZN5gimli4read4line15parse_attribute17h6c9a27dfeca25ea1E+0x9f0>
10000b560: 29 20 40 a9 	ldp	x9, x8, [x1]
10000b564: 0a 11 00 f1 	subs	x10, x8, #4
10000b568: c2 12 00 54 	b.hs	0x10000b7c0 <__ZN5gimli4read4line15parse_attribute17h6c9a27dfeca25ea1E+0x718>
10000b56c: 08 00 80 52 	mov	w8, #0
10000b570: 6a 02 80 52 	mov	w10, #19
10000b574: 4b 1d 00 12 	and	w11, w10, #0xff
10000b578: 7f 2d 01 71 	cmp	w11, #75
10000b57c: e0 12 00 54 	b.eq	0x10000b7d8 <__ZN5gimli4read4line15parse_attribute17h6c9a27dfeca25ea1E+0x730>
10000b580: ff 0b 00 b9 	str	wzr, [sp, #8]
10000b584: ff 3b 00 39 	strb	wzr, [sp, #14]
10000b588: ff 1b 00 79 	strh	wzr, [sp, #12]
10000b58c: ff 23 00 b9 	str	wzr, [sp, #32]
10000b590: e8 b3 40 b8 	ldur	w8, [sp, #11]
10000b594: e8 33 02 b8 	stur	w8, [sp, #35]
10000b598: e8 23 40 b9 	ldr	w8, [sp, #32]
10000b59c: 68 92 00 b8 	stur	w8, [x19, #9]
10000b5a0: e8 33 42 b8 	ldur	w8, [sp, #35]
10000b5a4: 68 0e 00 b9 	str	w8, [x19, #12]
10000b5a8: 6a 22 00 39 	strb	w10, [x19, #8]
10000b5ac: 3b 01 00 14 	b	0x10000ba98 <__ZN5gimli4read4line15parse_attribute17h6c9a27dfeca25ea1E+0x9f0>
10000b5b0: 1f 21 00 71 	cmp	w8, #8
10000b5b4: 61 13 00 54 	b.ne	0x10000b820 <__ZN5gimli4read4line15parse_attribute17h6c9a27dfeca25ea1E+0x778>
10000b5b8: 29 20 40 a9 	ldp	x9, x8, [x1]
10000b5bc: 0a 21 00 f1 	subs	x10, x8, #8
10000b5c0: 22 1e 00 54 	b.hs	0x10000b984 <__ZN5gimli4read4line15parse_attribute17h6c9a27dfeca25ea1E+0x8dc>
10000b5c4: 08 00 80 d2 	mov	x8, #0
10000b5c8: 6a 02 80 52 	mov	w10, #19
10000b5cc: f1 00 00 14 	b	0x10000b990 <__ZN5gimli4read4line15parse_attribute17h6c9a27dfeca25ea1E+0x8e8>
10000b5d0: 29 20 40 a9 	ldp	x9, x8, [x1]
10000b5d4: 0a 11 00 f1 	subs	x10, x8, #4
10000b5d8: e2 13 00 54 	b.hs	0x10000b854 <__ZN5gimli4read4line15parse_attribute17h6c9a27dfeca25ea1E+0x7ac>
10000b5dc: 08 00 80 d2 	mov	x8, #0
10000b5e0: 6a 02 80 52 	mov	w10, #19
10000b5e4: 9f 00 00 14 	b	0x10000b860 <__ZN5gimli4read4line15parse_attribute17h6c9a27dfeca25ea1E+0x7b8>
10000b5e8: ca 3d 08 53 	ubfx	w10, w14, #8, #8
10000b5ec: cb 3d 10 12 	and	w11, w14, #0xffff0000
10000b5f0: cc 7d 60 92 	and	x12, x14, #0xffffffff00000000
10000b5f4: ad 03 80 52 	mov	w13, #29
10000b5f8: e8 03 0e aa 	mov	x8, x14
10000b5fc: 14 01 00 14 	b	0x10000ba4c <__ZN5gimli4read4line15parse_attribute17h6c9a27dfeca25ea1E+0x9a4>
10000b600: 09 25 40 78 	ldrh	w9, [x8], #2
10000b604: 28 2c 00 a9 	stp	x8, x11, [x1]
10000b608: 6a 09 80 52 	mov	w10, #75
10000b60c: 4c 1d 00 12 	and	w12, w10, #0xff
10000b610: 9f 2d 01 71 	cmp	w12, #75
10000b614: a0 01 00 54 	b.eq	0x10000b648 <__ZN5gimli4read4line15parse_attribute17h6c9a27dfeca25ea1E+0x5a0>
10000b618: ff 13 00 79 	strh	wzr, [sp, #8]
10000b61c: ff a3 00 b8 	stur	wzr, [sp, #10]
10000b620: ff 3b 00 39 	strb	wzr, [sp, #14]
10000b624: e9 0b 40 b9 	ldr	w9, [sp, #8]
10000b628: e9 23 00 b9 	str	w9, [sp, #32]
10000b62c: 74 00 00 14 	b	0x10000b7fc <__ZN5gimli4read4line15parse_attribute17h6c9a27dfeca25ea1E+0x754>
10000b630: 09 45 40 b8 	ldr	w9, [x8], #4
10000b634: 28 2c 00 a9 	stp	x8, x11, [x1]
10000b638: 6a 09 80 52 	mov	w10, #75
10000b63c: 4c 1d 00 12 	and	w12, w10, #0xff
10000b640: 9f 2d 01 71 	cmp	w12, #75
10000b644: 41 0d 00 54 	b.ne	0x10000b7ec <__ZN5gimli4read4line15parse_attribute17h6c9a27dfeca25ea1E+0x744>
10000b648: 6b 01 09 eb 	subs	x11, x11, x9
10000b64c: 82 00 00 54 	b.hs	0x10000b65c <__ZN5gimli4read4line15parse_attribute17h6c9a27dfeca25ea1E+0x5b4>
10000b650: 69 02 80 52 	mov	w9, #19
10000b654: 69 a2 00 a9 	stp	x9, x8, [x19, #8]
10000b658: 11 01 00 14 	b	0x10000ba9c <__ZN5gimli4read4line15parse_attribute17h6c9a27dfeca25ea1E+0x9f4>
10000b65c: 0c 01 09 8b 	add	x12, x8, x9
10000b660: 0a 3d 08 53 	ubfx	w10, w8, #8, #8
10000b664: 2c 2c 00 a9 	stp	x12, x11, [x1]
10000b668: 0b 3d 10 12 	and	w11, w8, #0xffff0000
10000b66c: 0c 7d 60 92 	and	x12, x8, #0xffffffff00000000
10000b670: 2d 00 80 52 	mov	w13, #1
10000b674: f6 00 00 14 	b	0x10000ba4c <__ZN5gimli4read4line15parse_attribute17h6c9a27dfeca25ea1E+0x9a4>
10000b678: 28 25 40 78 	ldrh	w8, [x9], #2
10000b67c: 29 28 00 a9 	stp	x9, x10, [x1]
10000b680: 6a 09 80 52 	mov	w10, #75
10000b684: 4b 1d 00 12 	and	w11, w10, #0xff
10000b688: 7f 2d 01 71 	cmp	w11, #75
10000b68c: 01 db ff 54 	b.ne	0x10000b1ec <__ZN5gimli4read4line15parse_attribute17h6c9a27dfeca25ea1E+0x144>
10000b690: 0b 00 80 52 	mov	w11, #0
10000b694: 0c 00 80 d2 	mov	x12, #0
10000b698: 0a 7d 08 53 	lsr	w10, w8, #8
10000b69c: 6d 00 80 52 	mov	w13, #3
10000b6a0: eb 00 00 14 	b	0x10000ba4c <__ZN5gimli4read4line15parse_attribute17h6c9a27dfeca25ea1E+0x9a4>
10000b6a4: 28 45 40 b8 	ldr	w8, [x9], #4
10000b6a8: 29 28 00 a9 	stp	x9, x10, [x1]
10000b6ac: 6a 09 80 52 	mov	w10, #75
10000b6b0: 4b 1d 00 12 	and	w11, w10, #0xff
10000b6b4: 7f 2d 01 71 	cmp	w11, #75
10000b6b8: a1 db ff 54 	b.ne	0x10000b22c <__ZN5gimli4read4line15parse_attribute17h6c9a27dfeca25ea1E+0x184>
10000b6bc: 0c 00 80 d2 	mov	x12, #0
10000b6c0: 0a 3d 08 53 	ubfx	w10, w8, #8, #8
10000b6c4: 0b 3d 10 12 	and	w11, w8, #0xffff0000
10000b6c8: 8d 00 80 52 	mov	w13, #4
10000b6cc: e0 00 00 14 	b	0x10000ba4c <__ZN5gimli4read4line15parse_attribute17h6c9a27dfeca25ea1E+0x9a4>
10000b6d0: 2e 85 40 f8 	ldr	x14, [x9], #8
10000b6d4: 29 20 00 a9 	stp	x9, x8, [x1]
10000b6d8: 68 09 80 52 	mov	w8, #75
10000b6dc: 0a 1d 00 12 	and	w10, w8, #0xff
10000b6e0: 5f 2d 01 71 	cmp	w10, #75
10000b6e4: c1 dc ff 54 	b.ne	0x10000b27c <__ZN5gimli4read4line15parse_attribute17h6c9a27dfeca25ea1E+0x1d4>
10000b6e8: ca 3d 08 53 	ubfx	w10, w14, #8, #8
10000b6ec: cb 3d 10 12 	and	w11, w14, #0xffff0000
10000b6f0: cc 7d 60 92 	and	x12, x14, #0xffffffff00000000
10000b6f4: ad 00 80 52 	mov	w13, #5
10000b6f8: e8 03 0e aa 	mov	x8, x14
10000b6fc: d4 00 00 14 	b	0x10000ba4c <__ZN5gimli4read4line15parse_attribute17h6c9a27dfeca25ea1E+0x9a4>
10000b700: e9 0b 40 f9 	ldr	x9, [sp, #16]
10000b704: ea 93 40 b8 	ldur	w10, [sp, #9]
10000b708: ea 23 00 b9 	str	w10, [sp, #32]
10000b70c: ea 0f 40 b9 	ldr	w10, [sp, #12]
10000b710: ea 33 02 b8 	stur	w10, [sp, #35]
10000b714: ea 23 40 b9 	ldr	w10, [sp, #32]
10000b718: 6a 92 00 b8 	stur	w10, [x19, #9]
10000b71c: ea 33 42 b8 	ldur	w10, [sp, #35]
10000b720: 6a 0e 00 b9 	str	w10, [x19, #12]
10000b724: 68 22 00 39 	strb	w8, [x19, #8]
10000b728: dc 00 00 14 	b	0x10000ba98 <__ZN5gimli4read4line15parse_attribute17h6c9a27dfeca25ea1E+0x9f0>
10000b72c: 29 20 40 a9 	ldp	x9, x8, [x1]
10000b730: 0a 11 00 f1 	subs	x10, x8, #4
10000b734: c2 14 00 54 	b.hs	0x10000b9cc <__ZN5gimli4read4line15parse_attribute17h6c9a27dfeca25ea1E+0x924>
10000b738: 08 00 80 d2 	mov	x8, #0
10000b73c: 6a 02 80 52 	mov	w10, #19
10000b740: a6 00 00 14 	b	0x10000b9d8 <__ZN5gimli4read4line15parse_attribute17h6c9a27dfeca25ea1E+0x930>
10000b744: 29 20 40 a9 	ldp	x9, x8, [x1]
10000b748: 0a 11 00 f1 	subs	x10, x8, #4
10000b74c: 62 15 00 54 	b.hs	0x10000b9f8 <__ZN5gimli4read4line15parse_attribute17h6c9a27dfeca25ea1E+0x950>
10000b750: 08 00 80 d2 	mov	x8, #0
10000b754: 6a 02 80 52 	mov	w10, #19
10000b758: ab 00 00 14 	b	0x10000ba04 <__ZN5gimli4read4line15parse_attribute17h6c9a27dfeca25ea1E+0x95c>
10000b75c: 28 25 40 78 	ldrh	w8, [x9], #2
10000b760: 29 28 00 a9 	stp	x9, x10, [x1]
10000b764: 6a 09 80 52 	mov	w10, #75
10000b768: 4b 1d 00 12 	and	w11, w10, #0xff
10000b76c: 7f 2d 01 71 	cmp	w11, #75
10000b770: 21 ed ff 54 	b.ne	0x10000b514 <__ZN5gimli4read4line15parse_attribute17h6c9a27dfeca25ea1E+0x46c>
10000b774: 0b 00 80 52 	mov	w11, #0
10000b778: 0c 00 80 d2 	mov	x12, #0
10000b77c: 0a 7d 08 53 	lsr	w10, w8, #8
10000b780: ad 03 80 52 	mov	w13, #29
10000b784: b2 00 00 14 	b	0x10000ba4c <__ZN5gimli4read4line15parse_attribute17h6c9a27dfeca25ea1E+0x9a4>
10000b788: 2a 0d 00 91 	add	x10, x9, #3
10000b78c: 2a 20 00 a9 	stp	x10, x8, [x1]
10000b790: 2a 09 40 39 	ldrb	w10, [x9, #2]
10000b794: 28 01 40 79 	ldrh	w8, [x9]
10000b798: 48 1d 70 b3 	bfi	x8, x10, #16, #8
10000b79c: 6a 09 80 52 	mov	w10, #75
10000b7a0: 4b 1d 00 12 	and	w11, w10, #0xff
10000b7a4: 7f 2d 01 71 	cmp	w11, #75
10000b7a8: 21 ed ff 54 	b.ne	0x10000b54c <__ZN5gimli4read4line15parse_attribute17h6c9a27dfeca25ea1E+0x4a4>
10000b7ac: 0c 00 80 d2 	mov	x12, #0
10000b7b0: 0a 3d 08 53 	ubfx	w10, w8, #8, #8
10000b7b4: 0b 1d 10 12 	and	w11, w8, #0xff0000
10000b7b8: ad 03 80 52 	mov	w13, #29
10000b7bc: a4 00 00 14 	b	0x10000ba4c <__ZN5gimli4read4line15parse_attribute17h6c9a27dfeca25ea1E+0x9a4>
10000b7c0: 28 45 40 b8 	ldr	w8, [x9], #4
10000b7c4: 29 28 00 a9 	stp	x9, x10, [x1]
10000b7c8: 6a 09 80 52 	mov	w10, #75
10000b7cc: 4b 1d 00 12 	and	w11, w10, #0xff
10000b7d0: 7f 2d 01 71 	cmp	w11, #75
10000b7d4: 61 ed ff 54 	b.ne	0x10000b580 <__ZN5gimli4read4line15parse_attribute17h6c9a27dfeca25ea1E+0x4d8>
10000b7d8: 0c 00 80 d2 	mov	x12, #0
10000b7dc: 0a 7d 08 53 	lsr	w10, w8, #8
10000b7e0: 0b 3d 10 12 	and	w11, w8, #0xffff0000
10000b7e4: ad 03 80 52 	mov	w13, #29
10000b7e8: 99 00 00 14 	b	0x10000ba4c <__ZN5gimli4read4line15parse_attribute17h6c9a27dfeca25ea1E+0x9a4>
10000b7ec: ff 0b 00 b9 	str	wzr, [sp, #8]
10000b7f0: ff 3b 00 39 	strb	wzr, [sp, #14]
10000b7f4: ff 1b 00 79 	strh	wzr, [sp, #12]
10000b7f8: ff 23 00 b9 	str	wzr, [sp, #32]
10000b7fc: e9 b3 40 b8 	ldur	w9, [sp, #11]
10000b800: e9 33 02 b8 	stur	w9, [sp, #35]
10000b804: e9 23 40 b9 	ldr	w9, [sp, #32]
10000b808: 69 92 00 b8 	stur	w9, [x19, #9]
10000b80c: e9 33 42 b8 	ldur	w9, [sp, #35]
10000b810: 69 0e 00 b9 	str	w9, [x19, #12]
10000b814: 6a 22 00 39 	strb	w10, [x19, #8]
10000b818: 68 0a 00 f9 	str	x8, [x19, #16]
10000b81c: a0 00 00 14 	b	0x10000ba9c <__ZN5gimli4read4line15parse_attribute17h6c9a27dfeca25ea1E+0x9f4>
10000b820: 29 20 40 a9 	ldp	x9, x8, [x1]
10000b824: 0a 11 00 f1 	subs	x10, x8, #4
10000b828: e2 0f 00 54 	b.hs	0x10000ba24 <__ZN5gimli4read4line15parse_attribute17h6c9a27dfeca25ea1E+0x97c>
10000b82c: 08 00 80 d2 	mov	x8, #0
10000b830: 6a 02 80 52 	mov	w10, #19
10000b834: 7f 00 00 14 	b	0x10000ba30 <__ZN5gimli4read4line15parse_attribute17h6c9a27dfeca25ea1E+0x988>
10000b838: 28 85 40 f8 	ldr	x8, [x9], #8
10000b83c: 29 28 00 a9 	stp	x9, x10, [x1]
10000b840: 6a 09 80 52 	mov	w10, #75
10000b844: 4a 1d 00 12 	and	w10, w10, #0xff
10000b848: 5f 2d 01 71 	cmp	w10, #75
10000b84c: 00 01 00 54 	b.eq	0x10000b86c <__ZN5gimli4read4line15parse_attribute17h6c9a27dfeca25ea1E+0x7c4>
10000b850: 53 00 00 14 	b	0x10000b99c <__ZN5gimli4read4line15parse_attribute17h6c9a27dfeca25ea1E+0x8f4>
10000b854: 28 45 40 b8 	ldr	w8, [x9], #4
10000b858: 29 28 00 a9 	stp	x9, x10, [x1]
10000b85c: 6a 09 80 52 	mov	w10, #75
10000b860: 4a 1d 00 12 	and	w10, w10, #0xff
10000b864: 5f 2d 01 71 	cmp	w10, #75
10000b868: 01 10 00 54 	b.ne	0x10000ba68 <__ZN5gimli4read4line15parse_attribute17h6c9a27dfeca25ea1E+0x9c0>
10000b86c: 0a 3d 08 53 	ubfx	w10, w8, #8, #8
10000b870: 0b 3d 10 12 	and	w11, w8, #0xffff0000
10000b874: 0c 7d 60 92 	and	x12, x8, #0xffffffff00000000
10000b878: 6d 03 80 52 	mov	w13, #27
10000b87c: 74 00 00 14 	b	0x10000ba4c <__ZN5gimli4read4line15parse_attribute17h6c9a27dfeca25ea1E+0x9a4>
10000b880: 69 02 80 52 	mov	w9, #19
10000b884: 69 12 00 79 	strh	w9, [x19, #8]
10000b888: fa fe ff 17 	b	0x10000b470 <__ZN5gimli4read4line15parse_attribute17h6c9a27dfeca25ea1E+0x3c8>
10000b88c: 08 00 80 52 	mov	w8, #0
10000b890: 6a 02 80 52 	mov	w10, #19
10000b894: 4b 1d 00 12 	and	w11, w10, #0xff
10000b898: 7f 2d 01 71 	cmp	w11, #75
10000b89c: e1 02 00 54 	b.ne	0x10000b8f8 <__ZN5gimli4read4line15parse_attribute17h6c9a27dfeca25ea1E+0x850>
10000b8a0: 0a 00 80 52 	mov	w10, #0
10000b8a4: 0b 00 80 52 	mov	w11, #0
10000b8a8: 0c 00 80 d2 	mov	x12, #0
10000b8ac: 4d 00 80 52 	mov	w13, #2
10000b8b0: 67 00 00 14 	b	0x10000ba4c <__ZN5gimli4read4line15parse_attribute17h6c9a27dfeca25ea1E+0x9a4>
10000b8b4: 09 00 80 52 	mov	w9, #0
10000b8b8: 6a 02 80 52 	mov	w10, #19
10000b8bc: 4b 1d 00 12 	and	w11, w10, #0xff
10000b8c0: 7f 2d 01 71 	cmp	w11, #75
10000b8c4: 20 d7 ff 54 	b.eq	0x10000b3a8 <__ZN5gimli4read4line15parse_attribute17h6c9a27dfeca25ea1E+0x300>
10000b8c8: 6a 22 00 39 	strb	w10, [x19, #8]
10000b8cc: e8 fe ff 17 	b	0x10000b46c <__ZN5gimli4read4line15parse_attribute17h6c9a27dfeca25ea1E+0x3c4>
10000b8d0: 08 00 80 52 	mov	w8, #0
10000b8d4: 6a 02 80 52 	mov	w10, #19
10000b8d8: 4b 1d 00 12 	and	w11, w10, #0xff
10000b8dc: 7f 2d 01 71 	cmp	w11, #75
10000b8e0: c1 00 00 54 	b.ne	0x10000b8f8 <__ZN5gimli4read4line15parse_attribute17h6c9a27dfeca25ea1E+0x850>
10000b8e4: 0a 00 80 52 	mov	w10, #0
10000b8e8: 0b 00 80 52 	mov	w11, #0
10000b8ec: 0c 00 80 d2 	mov	x12, #0
10000b8f0: ad 03 80 52 	mov	w13, #29
10000b8f4: 56 00 00 14 	b	0x10000ba4c <__ZN5gimli4read4line15parse_attribute17h6c9a27dfeca25ea1E+0x9a4>
10000b8f8: 6a 22 00 39 	strb	w10, [x19, #8]
10000b8fc: 7f 26 00 39 	strb	wzr, [x19, #9]
10000b900: 7f 1e 00 79 	strh	wzr, [x19, #14]
10000b904: 7f a2 00 b8 	stur	wzr, [x19, #10]
10000b908: 64 00 00 14 	b	0x10000ba98 <__ZN5gimli4read4line15parse_attribute17h6c9a27dfeca25ea1E+0x9f0>
10000b90c: 0b 01 09 8b 	add	x11, x8, x9
10000b910: 6b 05 00 91 	add	x11, x11, #1
10000b914: ec 03 29 aa 	mvn	x12, x9
10000b918: 4a 01 0c 8b 	add	x10, x10, x12
10000b91c: 2b 28 00 a9 	stp	x11, x10, [x1]
10000b920: 0a 3d 08 53 	ubfx	w10, w8, #8, #8
10000b924: 0b 3d 10 12 	and	w11, w8, #0xffff0000
10000b928: 0c 7d 60 92 	and	x12, x8, #0xffffffff00000000
10000b92c: ed 03 80 52 	mov	w13, #31
10000b930: 47 00 00 14 	b	0x10000ba4c <__ZN5gimli4read4line15parse_attribute17h6c9a27dfeca25ea1E+0x9a4>
10000b934: ca 3d 08 53 	ubfx	w10, w14, #8, #8
10000b938: cb 3d 10 12 	and	w11, w14, #0xffff0000
10000b93c: cc 7d 60 92 	and	x12, x14, #0xffffffff00000000
10000b940: ed 00 80 52 	mov	w13, #7
10000b944: e8 03 0e aa 	mov	x8, x14
10000b948: 41 00 00 14 	b	0x10000ba4c <__ZN5gimli4read4line15parse_attribute17h6c9a27dfeca25ea1E+0x9a4>
10000b94c: 28 85 40 f8 	ldr	x8, [x9], #8
10000b950: 29 28 00 a9 	stp	x9, x10, [x1]
10000b954: 6a 09 80 52 	mov	w10, #75
10000b958: 4a 1d 00 12 	and	w10, w10, #0xff
10000b95c: 5f 2d 01 71 	cmp	w10, #75
10000b960: e1 01 00 54 	b.ne	0x10000b99c <__ZN5gimli4read4line15parse_attribute17h6c9a27dfeca25ea1E+0x8f4>
10000b964: 20 00 00 14 	b	0x10000b9e4 <__ZN5gimli4read4line15parse_attribute17h6c9a27dfeca25ea1E+0x93c>
10000b968: 28 85 40 f8 	ldr	x8, [x9], #8
10000b96c: 29 28 00 a9 	stp	x9, x10, [x1]
10000b970: 6a 09 80 52 	mov	w10, #75
10000b974: 4a 1d 00 12 	and	w10, w10, #0xff
10000b978: 5f 2d 01 71 	cmp	w10, #75
10000b97c: 01 01 00 54 	b.ne	0x10000b99c <__ZN5gimli4read4line15parse_attribute17h6c9a27dfeca25ea1E+0x8f4>
10000b980: 24 00 00 14 	b	0x10000ba10 <__ZN5gimli4read4line15parse_attribute17h6c9a27dfeca25ea1E+0x968>
10000b984: 28 85 40 f8 	ldr	x8, [x9], #8
10000b988: 29 28 00 a9 	stp	x9, x10, [x1]
10000b98c: 6a 09 80 52 	mov	w10, #75
10000b990: 4a 1d 00 12 	and	w10, w10, #0xff
10000b994: 5f 2d 01 71 	cmp	w10, #75
10000b998: 20 05 00 54 	b.eq	0x10000ba3c <__ZN5gimli4read4line15parse_attribute17h6c9a27dfeca25ea1E+0x994>
10000b99c: ff 3b 00 39 	strb	wzr, [sp, #14]
10000b9a0: ff 1b 00 79 	strh	wzr, [sp, #12]
10000b9a4: ff 0b 00 b9 	str	wzr, [sp, #8]
10000b9a8: e9 f3 00 f8 	stur	x9, [sp, #15]
10000b9ac: e8 07 40 f9 	ldr	x8, [sp, #8]
10000b9b0: e9 13 40 b9 	ldr	w9, [sp, #16]
10000b9b4: e9 2b 00 b9 	str	w9, [sp, #40]
10000b9b8: e9 33 41 b8 	ldur	w9, [sp, #19]
10000b9bc: e9 b3 02 b8 	stur	w9, [sp, #43]
10000b9c0: e8 13 00 f9 	str	x8, [sp, #32]
10000b9c4: e9 73 42 f8 	ldur	x9, [sp, #39]
10000b9c8: 2b 00 00 14 	b	0x10000ba74 <__ZN5gimli4read4line15parse_attribute17h6c9a27dfeca25ea1E+0x9cc>
10000b9cc: 28 45 40 b8 	ldr	w8, [x9], #4
10000b9d0: 29 28 00 a9 	stp	x9, x10, [x1]
10000b9d4: 6a 09 80 52 	mov	w10, #75
10000b9d8: 4a 1d 00 12 	and	w10, w10, #0xff
10000b9dc: 5f 2d 01 71 	cmp	w10, #75
10000b9e0: 41 04 00 54 	b.ne	0x10000ba68 <__ZN5gimli4read4line15parse_attribute17h6c9a27dfeca25ea1E+0x9c0>
10000b9e4: 0a 3d 08 53 	ubfx	w10, w8, #8, #8
10000b9e8: 0b 3d 10 12 	and	w11, w8, #0xffff0000
10000b9ec: 0c 7d 60 92 	and	x12, x8, #0xffffffff00000000
10000b9f0: 4d 03 80 52 	mov	w13, #26
10000b9f4: 16 00 00 14 	b	0x10000ba4c <__ZN5gimli4read4line15parse_attribute17h6c9a27dfeca25ea1E+0x9a4>
10000b9f8: 28 45 40 b8 	ldr	w8, [x9], #4
10000b9fc: 29 28 00 a9 	stp	x9, x10, [x1]
10000ba00: 6a 09 80 52 	mov	w10, #75
10000ba04: 4a 1d 00 12 	and	w10, w10, #0xff
10000ba08: 5f 2d 01 71 	cmp	w10, #75
10000ba0c: e1 02 00 54 	b.ne	0x10000ba68 <__ZN5gimli4read4line15parse_attribute17h6c9a27dfeca25ea1E+0x9c0>
10000ba10: 0a 3d 08 53 	ubfx	w10, w8, #8, #8
10000ba14: 0b 3d 10 12 	and	w11, w8, #0xffff0000
10000ba18: 0c 7d 60 92 	and	x12, x8, #0xffffffff00000000
10000ba1c: cd 03 80 52 	mov	w13, #30
10000ba20: 0b 00 00 14 	b	0x10000ba4c <__ZN5gimli4read4line15parse_attribute17h6c9a27dfeca25ea1E+0x9a4>
10000ba24: 28 45 40 b8 	ldr	w8, [x9], #4
10000ba28: 29 28 00 a9 	stp	x9, x10, [x1]
10000ba2c: 6a 09 80 52 	mov	w10, #75
10000ba30: 4a 1d 00 12 	and	w10, w10, #0xff
10000ba34: 5f 2d 01 71 	cmp	w10, #75
10000ba38: 81 01 00 54 	b.ne	0x10000ba68 <__ZN5gimli4read4line15parse_attribute17h6c9a27dfeca25ea1E+0x9c0>
10000ba3c: 0a 3d 08 53 	ubfx	w10, w8, #8, #8
10000ba40: 0b 3d 10 12 	and	w11, w8, #0xffff0000
10000ba44: 0c 7d 60 92 	and	x12, x8, #0xffffffff00000000
10000ba48: 4d 01 80 52 	mov	w13, #10
10000ba4c: 08 1d 00 12 	and	w8, w8, #0xff
10000ba50: 48 1d 18 33 	bfi	w8, w10, #8, #8
10000ba54: 08 01 0b 2a 	orr	w8, w8, w11
10000ba58: 88 01 08 aa 	orr	x8, x12, x8
10000ba5c: 6d 22 00 a9 	stp	x13, x8, [x19]
10000ba60: 69 0a 00 f9 	str	x9, [x19, #16]
10000ba64: 10 00 00 14 	b	0x10000baa4 <__ZN5gimli4read4line15parse_attribute17h6c9a27dfeca25ea1E+0x9fc>
10000ba68: ff 23 00 b9 	str	wzr, [sp, #32]
10000ba6c: ff 9b 00 39 	strb	wzr, [sp, #38]
10000ba70: ff 4b 00 79 	strh	wzr, [sp, #36]
10000ba74: e8 23 40 b9 	ldr	w8, [sp, #32]
10000ba78: e8 1b 00 b9 	str	w8, [sp, #24]
10000ba7c: e8 33 42 b8 	ldur	w8, [sp, #35]
10000ba80: e8 b3 01 b8 	stur	w8, [sp, #27]
10000ba84: e8 1b 40 b9 	ldr	w8, [sp, #24]
10000ba88: 68 92 00 b8 	stur	w8, [x19, #9]
10000ba8c: e8 b3 41 b8 	ldur	w8, [sp, #27]
10000ba90: 68 0e 00 b9 	str	w8, [x19, #12]
10000ba94: 6a 22 00 39 	strb	w10, [x19, #8]
10000ba98: 69 0a 00 f9 	str	x9, [x19, #16]
10000ba9c: c8 05 80 52 	mov	w8, #46
10000baa0: 68 02 00 f9 	str	x8, [x19]
10000baa4: fd 7b 44 a9 	ldp	x29, x30, [sp, #64]
10000baa8: f4 4f 43 a9 	ldp	x20, x19, [sp, #48]
10000baac: ff 43 01 91 	add	sp, sp, #80
10000bab0: c0 03 5f d6 	ret

000000010000bab4 <__ZN5gimli4read4unit15parse_attribute17h891933b803200d91E>:
10000bab4: ff 83 01 d1 	sub	sp, sp, #96
10000bab8: f6 57 03 a9 	stp	x22, x21, [sp, #48]
10000babc: f4 4f 04 a9 	stp	x20, x19, [sp, #64]
10000bac0: fd 7b 05 a9 	stp	x29, x30, [sp, #80]
10000bac4: fd 43 01 91 	add	x29, sp, #80
10000bac8: f4 03 03 aa 	mov	x20, x3
10000bacc: f5 03 01 aa 	mov	x21, x1
10000bad0: f3 03 00 aa 	mov	x19, x0
10000bad4: 69 14 40 79 	ldrh	w9, [x3, #10]
10000bad8: 4b 19 15 10 	adr	x11, #172840
10000badc: 1f 20 03 d5 	nop
10000bae0: ec 03 09 aa 	mov	x12, x9
10000bae4: e8 03 0c aa 	mov	x8, x12
10000bae8: 8a 3d 00 12 	and	w10, w12, #0xffff
10000baec: 4c 05 00 51 	sub	w12, w10, #1
10000baf0: 9f ad 00 71 	cmp	w12, #43
10000baf4: c8 03 00 54 	b.hi	0x10000bb6c <__ZN5gimli4read4unit15parse_attribute17h891933b803200d91E+0xb8>
10000baf8: 8a 00 00 10 	adr	x10, #16
10000bafc: 6d 79 6c 78 	ldrh	w13, [x11, x12, lsl #1]
10000bb00: 4a 09 0d 8b 	add	x10, x10, x13, lsl #2
10000bb04: 40 01 1f d6 	br	x10
10000bb08: aa 36 40 a9 	ldp	x10, x13, [x21]
10000bb0c: ad 3b 00 b4 	cbz	x13, 0x10000c280 <__ZN5gimli4read4unit15parse_attribute17h891933b803200d91E+0x7cc>
10000bb10: ee 03 0a aa 	mov	x14, x10
10000bb14: d0 15 40 38 	ldrb	w16, [x14], #1
10000bb18: af 05 00 d1 	sub	x15, x13, #1
10000bb1c: ae 3e 00 a9 	stp	x14, x15, [x21]
10000bb20: 0c 1a 00 12 	and	w12, w16, #0x7f
10000bb24: 10 fe 3f 36 	tbz	w16, #7, 0x10000bae4 <__ZN5gimli4read4unit15parse_attribute17h891933b803200d91E+0x30>
10000bb28: 4f 64 00 b4 	cbz	x15, 0x10000c7b0 <__ZN5gimli4read4unit15parse_attribute17h891933b803200d91E+0xcfc>
10000bb2c: 4e 09 00 91 	add	x14, x10, #2
10000bb30: af 09 00 d1 	sub	x15, x13, #2
10000bb34: ae 3e 00 a9 	stp	x14, x15, [x21]
10000bb38: 50 05 40 39 	ldrb	w16, [x10, #1]
10000bb3c: 11 1a 00 12 	and	w17, w16, #0x7f
10000bb40: 2c 1a 19 33 	bfi	w12, w17, #7, #7
10000bb44: 10 fd 3f 36 	tbz	w16, #7, 0x10000bae4 <__ZN5gimli4read4unit15parse_attribute17h891933b803200d91E+0x30>
10000bb48: 4f 63 00 b4 	cbz	x15, 0x10000c7b0 <__ZN5gimli4read4unit15parse_attribute17h891933b803200d91E+0xcfc>
10000bb4c: 4e 0d 00 91 	add	x14, x10, #3
10000bb50: ad 0d 00 d1 	sub	x13, x13, #3
10000bb54: ae 36 00 a9 	stp	x14, x13, [x21]
10000bb58: 4a 09 40 39 	ldrb	w10, [x10, #2]
10000bb5c: 5f 0d 00 71 	cmp	w10, #3
10000bb60: 28 87 00 54 	b.hi	0x10000cc44 <__ZN5gimli4read4unit15parse_attribute17h891933b803200d91E+0x1190>
10000bb64: 4c 1d 12 33 	bfi	w12, w10, #14, #8
10000bb68: df ff ff 17 	b	0x10000bae4 <__ZN5gimli4read4unit15parse_attribute17h891933b803200d91E+0x30>
10000bb6c: 08 e0 83 12 	mov	w8, #-7937
10000bb70: 48 01 08 0b 	add	w8, w10, w8
10000bb74: 1f 81 00 71 	cmp	w8, #32
10000bb78: a8 38 00 54 	b.hi	0x10000c28c <__ZN5gimli4read4unit15parse_attribute17h891933b803200d91E+0x7d8>
10000bb7c: e9 16 15 10 	adr	x9, #172764
10000bb80: 1f 20 03 d5 	nop
10000bb84: 8a 00 00 10 	adr	x10, #16
10000bb88: 2b 79 68 78 	ldrh	w11, [x9, x8, lsl #1]
10000bb8c: 4a 09 0b 8b 	add	x10, x10, x11, lsl #2
10000bb90: 40 01 1f d6 	br	x10
10000bb94: 09 00 80 52 	mov	w9, #0
10000bb98: 0c 00 80 d2 	mov	x12, #0
10000bb9c: a8 2a 40 a9 	ldp	x8, x10, [x21]
10000bba0: 4a 05 00 d1 	sub	x10, x10, #1
10000bba4: 07 00 00 14 	b	0x10000bbc0 <__ZN5gimli4read4unit15parse_attribute17h891933b803200d91E+0x10c>
10000bba8: 6d 19 40 92 	and	x13, x11, #0x7f
10000bbac: ad 21 c9 9a 	lsl	x13, x13, x9
10000bbb0: ac 01 0c aa 	orr	x12, x13, x12
10000bbb4: 29 1d 00 11 	add	w9, w9, #7
10000bbb8: 4a 05 00 d1 	sub	x10, x10, #1
10000bbbc: 6b 39 38 36 	tbz	w11, #7, 0x10000c2e8 <__ZN5gimli4read4unit15parse_attribute17h891933b803200d91E+0x834>
10000bbc0: 5f 05 00 b1 	cmn	x10, #1
10000bbc4: e0 2b 00 54 	b.eq	0x10000c140 <__ZN5gimli4read4unit15parse_attribute17h891933b803200d91E+0x68c>
10000bbc8: 0b 15 40 38 	ldrb	w11, [x8], #1
10000bbcc: a8 2a 00 a9 	stp	x8, x10, [x21]
10000bbd0: 3f fd 00 71 	cmp	w9, #63
10000bbd4: a1 fe ff 54 	b.ne	0x10000bba8 <__ZN5gimli4read4unit15parse_attribute17h891933b803200d91E+0xf4>
10000bbd8: 7f 09 00 71 	cmp	w11, #2
10000bbdc: 63 fe ff 54 	b.lo	0x10000bba8 <__ZN5gimli4read4unit15parse_attribute17h891933b803200d91E+0xf4>
10000bbe0: 56 01 00 14 	b	0x10000c138 <__ZN5gimli4read4unit15parse_attribute17h891933b803200d91E+0x684>
10000bbe4: 09 00 80 52 	mov	w9, #0
10000bbe8: 0c 00 80 d2 	mov	x12, #0
10000bbec: a8 2a 40 a9 	ldp	x8, x10, [x21]
10000bbf0: 4a 05 00 d1 	sub	x10, x10, #1
10000bbf4: 07 00 00 14 	b	0x10000bc10 <__ZN5gimli4read4unit15parse_attribute17h891933b803200d91E+0x15c>
10000bbf8: 6d 19 40 92 	and	x13, x11, #0x7f
10000bbfc: ad 21 c9 9a 	lsl	x13, x13, x9
10000bc00: ac 01 0c aa 	orr	x12, x13, x12
10000bc04: 29 1d 00 11 	add	w9, w9, #7
10000bc08: 4a 05 00 d1 	sub	x10, x10, #1
10000bc0c: ab 37 38 36 	tbz	w11, #7, 0x10000c300 <__ZN5gimli4read4unit15parse_attribute17h891933b803200d91E+0x84c>
10000bc10: 5f 05 00 b1 	cmn	x10, #1
10000bc14: 60 29 00 54 	b.eq	0x10000c140 <__ZN5gimli4read4unit15parse_attribute17h891933b803200d91E+0x68c>
10000bc18: 0b 15 40 38 	ldrb	w11, [x8], #1
10000bc1c: a8 2a 00 a9 	stp	x8, x10, [x21]
10000bc20: 3f fd 00 71 	cmp	w9, #63
10000bc24: a1 fe ff 54 	b.ne	0x10000bbf8 <__ZN5gimli4read4unit15parse_attribute17h891933b803200d91E+0x144>
10000bc28: 7f 09 00 71 	cmp	w11, #2
10000bc2c: 63 fe ff 54 	b.lo	0x10000bbf8 <__ZN5gimli4read4unit15parse_attribute17h891933b803200d91E+0x144>
10000bc30: 42 01 00 14 	b	0x10000c138 <__ZN5gimli4read4unit15parse_attribute17h891933b803200d91E+0x684>
10000bc34: 48 3c 08 53 	ubfx	w8, w2, #8, #8
10000bc38: 1f 21 00 71 	cmp	w8, #8
10000bc3c: 61 31 00 54 	b.ne	0x10000c268 <__ZN5gimli4read4unit15parse_attribute17h891933b803200d91E+0x7b4>
10000bc40: a9 22 40 a9 	ldp	x9, x8, [x21]
10000bc44: 0a 21 00 f1 	subs	x10, x8, #8
10000bc48: 82 36 00 54 	b.hs	0x10000c318 <__ZN5gimli4read4unit15parse_attribute17h891933b803200d91E+0x864>
10000bc4c: 08 00 80 d2 	mov	x8, #0
10000bc50: 6a 02 80 52 	mov	w10, #19
10000bc54: b4 01 00 14 	b	0x10000c324 <__ZN5gimli4read4unit15parse_attribute17h891933b803200d91E+0x870>
10000bc58: e0 23 00 91 	add	x0, sp, #8
10000bc5c: e1 03 15 aa 	mov	x1, x21
10000bc60: 18 07 00 94 	bl	0x10000d8c0 <__ZN5gimli4read6reader6Reader12read_address17h440d59a3db18222aE>
10000bc64: e8 23 40 39 	ldrb	w8, [sp, #8]
10000bc68: 1f 2d 01 71 	cmp	w8, #75
10000bc6c: 21 33 00 54 	b.ne	0x10000c2d0 <__ZN5gimli4read4unit15parse_attribute17h891933b803200d91E+0x81c>
